"File: 4-10_TM5.c    Assembler  Version HGASM0202      Page 1


   1  0000              ; Generated by holtek-gcc v3.18, Tue Mar 20 11:16:38 2018
   2  0000              ; 
   3  0000              ; Configuration:
   4  0000              ;       with long instruction
   5  0000              ;       Multi-ROM, Multi-RAM
   6  0000              ;       bits_per_rom_unit:16
   7  0000              ;       with mp1
   8  0000              ;       with tbhp, address(0x9)
   9  0000              ;          Use tabrd-const
  10  0000              ;       
  11  0000              ; SFR address of long-instruction arch:
  12  0000              ;    mp0 = -1,1,0
  13  0000              ;    mp1 = 4,3,2
  14  0000              ;    mp2 = 14,13,12
  15  0000              ;    tbp = 9,7,8
  16  0000              ;    acc = 5
  17  0000              ;    pcl = 6
  18  0000              ;    status = 10
  19  0000              ;    bp = 11
  20  0000              ;    intc = 48
  21  0000              ;       
  22  0000              ;       
  23  0000              ; use 'tabrdc' instead of 'tabrd'
  24  0000              ;       
  25  0000              
  26  0000              #pragma translator "holtek-gcc 4.6.4" "3.18" "build 20130711"
  27  0000              ; Rebuild 126
  28  0000              
  29  0000              ir equ [2]
  30  0000              mp equ [3]
  31  0000              sbp equ [4]
  32  0000              acc equ [5]
  33  0000              bp equ [11]
  34  0000              tblp equ [7]
  35  0000              tbhp equ [9]
  36  0000              status equ [10]
  37  0000              c equ [10].0
  38  0000              ac equ [10].1
  39  0000              z equ [10].2
  40  0000              ov equ [10].3
  41  0000              cz equ [10].6
  42  0000              sc equ [10].7
  43  0000              intc equ [48]
  44  0000              
  45  0000              extern ra:byte
  46  0000              extern rb:byte
  47  0000              extern rc:byte
  48  0000              extern rd:byte
  49  0000              extern re:byte
  50  0000              extern rf:byte
  51  0000              extern rg:byte
  52  0000              extern rh:byte
  53  0000              extern _Crom2Prom:near
  54  0000              extern _Crom2PromNext:near
  55  0000              
  56  0000              RAMBANK 0 @BITDATASEC, @BITDATASEC1
  57  0000              @HCCINIT	.section 'data'
  58  0000              @HCCINIT0	.section 'data'
  59  0000              @BITDATASEC	 .section 'data'
"File: 4-10_TM5.ASM  Assembler  Version HGASM0202      Page 2

  60  0000              @BITDATASEC1	 .section 'data'
  61  0000              
  62  0000              #pragma debug scope 1 1
  63  0000              	extern __DELAY3:near
  64  0000              	extern __DELAYX3:near
  65  0000              	extern __DELAYX6:near
  66  0000              	extern __DELAYY5:near
  67  0000              	extern __DELAYY3:near
  68  0000              	extern _builtin_holtek_delay_2:byte
  69  0000              ___pc equ [26]
  70  0000              ___mfi4 equ [56]
  71  0000              public _ISR_STM
  72  0000              #pragma debug scope 2 1

  36  0000              #line 36 "C:\Users\YVTC\Desktop\單晶片微控制器(一)\0320\4-10_TM5.c"
  36  0000              rombank 0 @ISR_STM_code
  36  0000              @ISR_STM_code .section at 56 'code'
  36  0000  0080     E  	mov r1,a
  36  0001  070B        	mov a,bp
  36  0002  1F0B        	clr bp
  36  0003  2800     R  	jmp _ISR_STM
  36  0004              ROMBANK 0 _ISR_STM
  36  0004              #pragma debug scope 1 1
  36  0004              @dummy56 endp
  36  0004              #pragma debug scope 3 1
  36  0000              _ISR_STM .section 'code'
  36  0000              _ISR_STM proc
  36  0000  0080     E  	mov r2,a
  36  0001  070A        	mov a, status
  36  0002  0080     E  	mov r3,a
  36  0003  111A        	swapa [26]
  36  0004  0E0F        	and a,0fh
  36  0005  0080     E  	mov ra,a
  36  0006  0F01        	mov a,1
  36  0007  0480     E  	xorm a,ra
  36  0008  0F01        	mov a,1
  36  0009  0680     E  	andm a,ra
  36  000A  1100     E  	swapa ra
  36  000B  0EF0        	and a,0f0h 
  36  000C  0080     E  	mov ra,a
  36  000D  361A        	clr [26].4
  36  000E  0700     E  	mov a,ra
  36  000F  059A        	orm a,[26]
  37  0010              #line 37 "C:\Users\YVTC\Desktop\單晶片微控制器(一)\0320\4-10_TM5.c"
  37  0010  37B8        	clr [56].7
  37  0011  0700     E  	mov a,r2
  37  0012  008B        	mov bp,a
  37  0013  0700     E  	mov a,r3
  37  0014  008A        	mov status,a
  37  0015  0700     E  	mov a,r1
  37  0016  0004        	reti
  37  0017              _ISR_STM endp
  37  0017              
  37  0017              #line 37 "C:\Users\YVTC\Desktop\單晶片微控制器(一)\0320\4-10_TM5.c"
  37  0017              #pragma debug scope 1 1
  37  0017              public _PAUSE
  37  0017              #pragma debug scope 4 1
  40  0017              #line 40 "C:\Users\YVTC\Desktop\單晶片微控制器(一)\0320\4-10_TM5.c"
  40  0000              _PAUSE .section 'code'
  40  0000              _PAUSE proc
"File: 4-10_TM5.c    Assembler  Version HGASM0202      Page 3

  40  0000  00              local _PAUSE_2 db 1 dup(?)	; 0,1
  40  0000  0080     R  	mov _PAUSE_2[0],a
  40  0001              #pragma debug variable 8 4 _PAUSE_2+0 "i"
  41  0001              #line 41 "C:\Users\YVTC\Desktop\單晶片微控制器(一)\0320\4-10_TM5.c"
  41  0001  1F00     E  	clr ra
  41  0002  2800     R  	jmp _L3
  41  0003              _L4:
  41  0003              #line 41 "C:\Users\YVTC\Desktop\單晶片微控制器(一)\0320\4-10_TM5.c"
  41  0003              ;# 41 "C:\Users\YVTC\Desktop\單晶片微控制器(一)\0320\4-10_TM5.c" 1
  41  0003              	IF 20000>263690
  41  0003              ;# 41 "C:\Users\YVTC\Desktop\單晶片微控制器(一)\0320\4-10_TM5.c" 1
  41  0003              	ERRMESSAGE 'the value 20000of the argument exceeds the maxinum 263690'
  41  0003              	ENDIF
  41  0003              ;# 41 "C:\Users\YVTC\Desktop\單晶片微控制器(一)\0320\4-10_TM5.c" 1
  41  0003              	IF 20000<0
  41  0003              ;# 41 "C:\Users\YVTC\Desktop\單晶片微控制器(一)\0320\4-10_TM5.c" 1
  41  0003              	ERRMESSAGE 'the value 20000 of the argument exceeds the mininum 0'
  41  0003              	ENDIF
  41  0003              ;# 41 "C:\Users\YVTC\Desktop\單晶片微控制器(一)\0320\4-10_TM5.c" 1
  41  0003              	IF 20000==0
  41  0003              ;# 41 "C:\Users\YVTC\Desktop\單晶片微控制器(一)\0320\4-10_TM5.c" 1
  41  0003              	JMP $
  41  0003              	ENDIF
  41  0003              ;# 41 "C:\Users\YVTC\Desktop\單晶片微控制器(一)\0320\4-10_TM5.c" 1
  41  0003              	IF (20000>=1) AND (20000<( 4 + __PBP__ * 2))
  41  0003              ;# 41 "C:\Users\YVTC\Desktop\單晶片微控制器(一)\0320\4-10_TM5.c" 1
  41  0003              	NOP
  41  0003              	ENDIF
  41  0003              ;# 41 "C:\Users\YVTC\Desktop\單晶片微控制器(一)\0320\4-10_TM5.c" 1
  41  0003              	IF (20000>=2) AND (20000<( 4 + __PBP__ * 2))
  41  0003              ;# 41 "C:\Users\YVTC\Desktop\單晶片微控制器(一)\0320\4-10_TM5.c" 1
  41  0003              	NOP
  41  0003              	ENDIF
  41  0003              ;# 41 "C:\Users\YVTC\Desktop\單晶片微控制器(一)\0320\4-10_TM5.c" 1
  41  0003              	IF (20000>=3) AND (20000<( 4 + __PBP__ * 2))
  41  0003              ;# 41 "C:\Users\YVTC\Desktop\單晶片微控制器(一)\0320\4-10_TM5.c" 1
  41  0003              	NOP
  41  0003              	ENDIF
  41  0003              ;# 41 "C:\Users\YVTC\Desktop\單晶片微控制器(一)\0320\4-10_TM5.c" 1
  41  0003              	IF (20000>=4) AND (20000<( 4 + __PBP__ * 2)) AND ( __PBP__ > 0 )
  41  0003              ;# 41 "C:\Users\YVTC\Desktop\單晶片微控制器(一)\0320\4-10_TM5.c" 1
  41  0003              	NOP
  41  0003              	ENDIF
  41  0003              ;# 41 "C:\Users\YVTC\Desktop\單晶片微控制器(一)\0320\4-10_TM5.c" 1
  41  0003              	IF (20000>=5) AND (20000<( 4 + __PBP__ * 2)) AND ( __PBP__ > 0 )
  41  0003              ;# 41 "C:\Users\YVTC\Desktop\單晶片微控制器(一)\0320\4-10_TM5.c" 1
  41  0003              	NOP
  41  0003              	ENDIF
  41  0003              ;# 41 "C:\Users\YVTC\Desktop\單晶片微控制器(一)\0320\4-10_TM5.c" 1
  41  0003              	IF (20000>=6) AND (20000<( 4 + __PBP__ * 2))  AND ( __PBP__ > 1 )
  41  0003              ;# 41 "C:\Users\YVTC\Desktop\單晶片微控制器(一)\0320\4-10_TM5.c" 1
  41  0003              	NOP
  41  0003              	ENDIF
  41  0003              ;# 41 "C:\Users\YVTC\Desktop\單晶片微控制器(一)\0320\4-10_TM5.c" 1
  41  0003              	IF (20000>=7) AND (20000<( 4 + __PBP__ * 2))  AND ( __PBP__ > 1 )
  41  0003              ;# 41 "C:\Users\YVTC\Desktop\單晶片微控制器(一)\0320\4-10_TM5.c" 1
  41  0003              	NOP
  41  0003              	ENDIF
  41  0003              ;# 41 "C:\Users\YVTC\Desktop\單晶片微控制器(一)\0320\4-10_TM5.c" 1
  41  0003              	IF (20000>=8) AND (20000<( 4 + __PBP__ * 2))  AND ( __PBP__ > 2 )
"File: 4-10_TM5.c    Assembler  Version HGASM0202      Page 4

  41  0003              ;# 41 "C:\Users\YVTC\Desktop\單晶片微控制器(一)\0320\4-10_TM5.c" 1
  41  0003              	NOP
  41  0003              	ENDIF
  41  0003              ;# 41 "C:\Users\YVTC\Desktop\單晶片微控制器(一)\0320\4-10_TM5.c" 1
  41  0003              	IF (20000==9)  AND ( __PBP__ > 2 )
  41  0003              ;# 41 "C:\Users\YVTC\Desktop\單晶片微控制器(一)\0320\4-10_TM5.c" 1
  41  0003              	NOP
  41  0003              	ENDIF
  41  0003              ;# 41 "C:\Users\YVTC\Desktop\單晶片微控制器(一)\0320\4-10_TM5.c" 1
  41  0003              	IF (20000< ( 8 + __PBP__ * 2)) AND (20000>( 3 + __PBP__ * 2))
  41  0003              ;# 41 "C:\Users\YVTC\Desktop\單晶片微控制器(一)\0320\4-10_TM5.c" 1
  41  0003              	fcall __DELAY3 + ( 7 + __PBP__ * 2) -20000
  41  0003              	ENDIF
  41  0003              ;# 41 "C:\Users\YVTC\Desktop\單晶片微控制器(一)\0320\4-10_TM5.c" 1
  41  0003              	IF (20000< ( 0404h + __PBP__ * 2)) AND (20000>( 7 + __PBP__ * 2))
  41  0003              ;# 41 "C:\Users\YVTC\Desktop\單晶片微控制器(一)\0320\4-10_TM5.c" 1
  41  0003              	MOV A,(20000-( 4 + __PBP__ * 2))/4
  41  0003              ;# 41 "C:\Users\YVTC\Desktop\單晶片微控制器(一)\0320\4-10_TM5.c" 1
  41  0003              	fcall __DELAYX3 + 3 -((20000-( 4 + __PBP__ * 2)) MOD 4) 
  41  0003              	ENDIF
  41  0003              ;# 41 "C:\Users\YVTC\Desktop\單晶片微控制器(一)\0320\4-10_TM5.c" 1
  41  0003              	IF (20000< ( 040bh + __PBP__ * 2)) AND (20000> ( 0403h + __PBP__ * 2))
  41  0003              ;# 41 "C:\Users\YVTC\Desktop\單晶片微控制器(一)\0320\4-10_TM5.c" 1
  41  0003              	MOV A,0 
  41  0003              ;# 41 "C:\Users\YVTC\Desktop\單晶片微控制器(一)\0320\4-10_TM5.c" 1
  41  0003              	fcall __DELAYX6 + ( 040ah + __PBP__ * 2) -20000
  41  0003              	ENDIF
  41  0003              ;# 41 "C:\Users\YVTC\Desktop\單晶片微控制器(一)\0320\4-10_TM5.c" 1
  41  0003              	IF (20000 >= ( 040bh + __PBP__ * 2)) AND ((((20000-( 9 + __PBP__ * 2))%0402h)/4+1)>256)
  41  0003              ;# 41 "C:\Users\YVTC\Desktop\單晶片微控制器(一)\0320\4-10_TM5.c" 1
  41  0003              	MOV A,(20000-( 9 + __PBP__ * 2))/0402h
  41  0003              ;# 41 "C:\Users\YVTC\Desktop\單晶片微控制器(一)\0320\4-10_TM5.c" 1
  41  0003              	MOV _builtin_holtek_delay_2,A
  41  0003              ;# 41 "C:\Users\YVTC\Desktop\單晶片微控制器(一)\0320\4-10_TM5.c" 1
  41  0003              	MOV A,0
  41  0003              ;# 41 "C:\Users\YVTC\Desktop\單晶片微控制器(一)\0320\4-10_TM5.c" 1
  41  0003              	fcall __DELAYY5 +5- (((20000-( 9 + __PBP__ * 2))%0402h)%6) 
  41  0003              	ENDIF
  41  0003              ;# 41 "C:\Users\YVTC\Desktop\單晶片微控制器(一)\0320\4-10_TM5.c" 1
  41  0003              	IF (20000 >= ( 040bh + __PBP__ * 2)) AND ((((20000-( 9 + __PBP__ * 2))%0402h)/4+1)<=256)
  41  0003              ;# 41 "C:\Users\YVTC\Desktop\單晶片微控制器(一)\0320\4-10_TM5.c" 1
  41  0003  0F13        	MOV A,(20000-( 9 + __PBP__ * 2))/0402h
  41  0004              ;# 41 "C:\Users\YVTC\Desktop\單晶片微控制器(一)\0320\4-10_TM5.c" 1
  41  0004  0080     E  	MOV _builtin_holtek_delay_2,A
  41  0005              ;# 41 "C:\Users\YVTC\Desktop\單晶片微控制器(一)\0320\4-10_TM5.c" 1
  41  0005  0F7C        	MOV A,((20000-( 9 + __PBP__ * 2))%0402h)/4+1
  41  0006              ;# 41 "C:\Users\YVTC\Desktop\單晶片微控制器(一)\0320\4-10_TM5.c" 1
  41  0006              	fcall __DELAYY3 +3-(((20000-( 9 + __PBP__ * 2))%0402h)%4) 
  41  000D              	ENDIF
  41  000D  1480     E  	inc ra
  41  000E              _L3:
  41  000E  0700     E  	mov a,ra
  41  000F  0200     R  	sub a,_PAUSE_2[0]
  41  0010  390A        	snz z
  41  0011  2800     R  	jmp _L4
  41  0012  0003        	ret
  41  0013              _PAUSE endp
  41  0013              #line 41 "C:\Users\YVTC\Desktop\單晶片微控制器(一)\0320\4-10_TM5.c"
  41  0013              #pragma debug scope 1 1
  41  0013              ___pec equ [35]
"File: 4-10_TM5.c    Assembler  Version HGASM0202      Page 5

  41  0013              ___pepu equ [33]
  41  0013              ___pe equ [34]
  41  0013              public _ScanKey
  41  0013              #pragma debug scope 5 1
  45  0013              #line 45 "C:\Users\YVTC\Desktop\單晶片微控制器(一)\0320\4-10_TM5.c"
  45  0000              _ScanKey .section 'code'
  45  0000              _ScanKey proc
  46  0000              #line 46 "C:\Users\YVTC\Desktop\單晶片微控制器(一)\0320\4-10_TM5.c"
  46  0000  0FF0        	mov a,240
  46  0001  00A3        	mov [35],a
  46  0002  0FF0        	mov a,240
  46  0003  00A1        	mov [33],a
  47  0004              #line 47 "C:\Users\YVTC\Desktop\單晶片微控制器(一)\0320\4-10_TM5.c"
  47  0004  0FFE        	mov a,254
  47  0005  00A2        	mov [34],a
  45  0006              #line 45 "C:\Users\YVTC\Desktop\單晶片微控制器(一)\0320\4-10_TM5.c"
  45  0006  1F00     E  	clr ra
  45  0007              _L11:
  49  0007              #line 49 "C:\Users\YVTC\Desktop\單晶片微控制器(一)\0320\4-10_TM5.c"
  49  0007  3A22        	snz [34].4
  49  0008  2800     R  	jmp _L7
  51  0009              #line 51 "C:\Users\YVTC\Desktop\單晶片微控制器(一)\0320\4-10_TM5.c"
  51  0009  3EA2        	sz [34].5
  51  000A  2800     R  	jmp _L8
  50  000B              #line 50 "C:\Users\YVTC\Desktop\單晶片微控制器(一)\0320\4-10_TM5.c"
  50  000B  1480     E  	inc ra
  50  000C  2800     R  	jmp _L7
  50  000D              _L8:
  53  000D              #line 53 "C:\Users\YVTC\Desktop\單晶片微控制器(一)\0320\4-10_TM5.c"
  53  000D  3F22        	sz [34].6
  53  000E  2800     R  	jmp _L9
  52  000F              #line 52 "C:\Users\YVTC\Desktop\單晶片微控制器(一)\0320\4-10_TM5.c"
  52  000F  0F02        	mov a,2
  52  0010  0380     E  	addm a,ra
  52  0011  2800     R  	jmp _L7
  52  0012              _L9:
  55  0012              #line 55 "C:\Users\YVTC\Desktop\單晶片微控制器(一)\0320\4-10_TM5.c"
  55  0012  3FA2        	sz [34].7
  55  0013  2800     R  	jmp _L10
  54  0014              #line 54 "C:\Users\YVTC\Desktop\單晶片微控制器(一)\0320\4-10_TM5.c"
  54  0014  0F03        	mov a,3
  54  0015  0380     E  	addm a,ra
  54  0016  2800     R  	jmp _L7
  54  0017              _L10:
  56  0017              #line 56 "C:\Users\YVTC\Desktop\單晶片微控制器(一)\0320\4-10_TM5.c"
  56  0017  0F04        	mov a,4
  56  0018  0380     E  	addm a,ra
  57  0019              #line 57 "C:\Users\YVTC\Desktop\單晶片微控制器(一)\0320\4-10_TM5.c"
  57  0019  0722        	mov a,[34]
  57  001A  03A2        	addm a,[34]
  57  001B  3022        	set [34].0
  48  001C              #line 48 "C:\Users\YVTC\Desktop\單晶片微控制器(一)\0320\4-10_TM5.c"
  48  001C  0700     E  	mov a,ra
  48  001D  0A10        	sub a,16
  48  001E  390A        	snz z
  48  001F  2800     R  	jmp _L11
  48  0020              _L7:
  60  0020              #line 60 "C:\Users\YVTC\Desktop\單晶片微控制器(一)\0320\4-10_TM5.c"
  60  0020  0700     E  	mov a,ra
  60  0021  0003        	ret
"File: 4-10_TM5.c    Assembler  Version HGASM0202      Page 6

  60  0022              _ScanKey endp
  60  0022              #line 60 "C:\Users\YVTC\Desktop\單晶片微控制器(一)\0320\4-10_TM5.c"
  60  0022              #pragma debug scope 1 1
  60  0022              ___wdtc equ [62]
  60  0022              ___pcc equ [27]
  60  0022              ___intc3 equ [51]
  60  0022              ___tm5c0 equ [343]
  60  0022              ___tm5c1 equ [344]
  60  0022              ___intc0 equ [48]
  60  0022              ___tm5al equ [347]
  60  0022              ___tm5ah equ [348]
  60  0022              public _main
  60  0022              #pragma debug scope 6 1
  17  0022              #line 17 "C:\Users\YVTC\Desktop\單晶片微控制器(一)\0320\4-10_TM5.c"
  17  0022              IFDEF WITH_DEFAULT_STARTUP
  17  0022              extern _main_initial0:near
  17  0022              extern _main_startup:near
  17  0022              ENDIF
  17  0022              
  17  0022              ROMBANK 0 @start
  17  0000              @start .section com_l 'code'
  17  0000              _main_startup1:
  17  0000              @start .section com_e 'code'
  17  0000  0F00     R  	mov a,bank _main
  17  0001  008B        	mov bp,a
  17  0002  2800     R  	jmp _main
  17  0003              
  17  0000              _main .section 'code'
  17  0000              _main proc
  19  0000              #line 19 "C:\Users\YVTC\Desktop\單晶片微控制器(一)\0320\4-10_TM5.c"
  19  0000  0FAF        	mov a,175
  19  0001  00BE        	mov [62],a
  20  0002              #line 20 "C:\Users\YVTC\Desktop\單晶片微控制器(一)\0320\4-10_TM5.c"
  20  0002  361B        	clr [27].4
  21  0003              #line 21 "C:\Users\YVTC\Desktop\單晶片微控制器(一)\0320\4-10_TM5.c"
  21  0003  3133        	set [51].2
  21  0004  31B8        	set [56].3
  22  0005              #line 22 "C:\Users\YVTC\Desktop\單晶片微控制器(一)\0320\4-10_TM5.c"
  22  0005  9F57 0001   	lclr [343]
  22  0007  0FC1        	mov a,193
  22  0008  80D8 0001   	lmov [344],a
  23  000A              #line 23 "C:\Users\YVTC\Desktop\單晶片微控制器(一)\0320\4-10_TM5.c"
  23  000A  37B8        	clr [56].7
  23  000B  3733        	clr [51].6
  23  000C  3030        	set [48].0
  23  000D              _L20:
  27  000D              #line 27 "C:\Users\YVTC\Desktop\單晶片微控制器(一)\0320\4-10_TM5.c"
  27  000D              	fcall _ScanKey
  27  0014  0080     E  	mov rb,a
  27  0015  0700     E  	mov a,rb
  27  0016  0A10        	sub a,16
  27  0017  3D0A        	sz z
  27  0018  2800     R  	jmp _L20
  28  0019              #line 28 "C:\Users\YVTC\Desktop\單晶片微控制器(一)\0320\4-10_TM5.c"
  28  0019  1F00     E  	clr rc
  28  001A  340A        	clr c
  28  001B  1A80     E  	rlc rb
  28  001C  1A80     E  	rlc rc
  28  001D  0F00     R  	mov a,low offset _Pitch_TAB
  28  001E  0300     E  	add a,rb
"File: 4-10_TM5.c    Assembler  Version HGASM0202      Page 7

  28  001F  0083        	mov mp,a
  28  0020  0F00     R  	mov a,high offset _Pitch_TAB
  28  0021  1300     E  	adc a,rc
  28  0022  0084        	mov sbp,a
  28  0023              	fcall _Crom2Prom
  28  002A  0080     E  	mov rb,a
  28  002B              	fcall _Crom2PromNext
  28  0032  0080     E  	mov rc,a
  28  0033  0700     E  	mov a,rb
  28  0034  80DB 0001   	lmov [347],a
  29  0036              #line 29 "C:\Users\YVTC\Desktop\單晶片微控制器(一)\0320\4-10_TM5.c"
  29  0036  0700     E  	mov a,rc
  29  0037  80DC 0001   	lmov [348],a
  30  0039              #line 30 "C:\Users\YVTC\Desktop\單晶片微控制器(一)\0320\4-10_TM5.c"
  30  0039  B1D7 0001   	lset [343].3
  30  003B  0F28        	mov a,40
  30  003C              	fcall _PAUSE
  31  0043              #line 31 "C:\Users\YVTC\Desktop\單晶片微控制器(一)\0320\4-10_TM5.c"
  31  0043  B5D7 0001   	lclr [343].3
  31  0045  0F0A        	mov a,10
  31  0046              	fcall _PAUSE
  32  004D              #line 32 "C:\Users\YVTC\Desktop\單晶片微控制器(一)\0320\4-10_TM5.c"
  32  004D  2800     R  	jmp _L20
  32  004E  2800     R  	jmp $
  32  004F              _main endp
  32  004F              
  32  004F              @dummy endp
  32  004F              
  32  004F              #line 32 "C:\Users\YVTC\Desktop\單晶片微控制器(一)\0320\4-10_TM5.c"
  32  004F              #pragma debug scope 1 1
  32  004F              public _Pitch_TAB
  32  0000              @crom	.section 'crom'
   7  0000              #line 7 "C:\Users\YVTC\Desktop\單晶片微控制器(一)\0320\4-10_TM5.c"
   7  0000              @crom	.section	'crom'
   7  0000              _Pitch_TAB:
   7  0000              #pragma debug array 42 12 16 1
   7  0000              #pragma debug array 42 12 16 1
   7  0000              #pragma debug variable 42 1 _Pitch_TAB "Pitch_TAB"
   7  0000  0778        	dc 1912
   7  0001  06A7        	dc 1703
   7  0002  05ED        	dc 1517
   7  0003  0598        	dc 1432
   7  0004  04F9        	dc 1273
   7  0005  0470        	dc 1136
   7  0006  03EA        	dc 1002
   7  0007  03BC        	dc 956
   7  0008  0353        	dc 851
   7  0009  02F6        	dc 758
   7  000A  02CC        	dc 716
   7  000B  027C        	dc 636
   7  000C  0238        	dc 568
   7  000D  01F5        	dc 501
   7  000E  01DE        	dc 478
   7  000F  01A9        	dc 425
   7  0010              #pragma debug struct_end
   7  0010              #pragma debug struct_end
   7  0010              #pragma debug union_end
   7  0010              #pragma debug union_end
   7  0010              #pragma debug variable 44 1 ___pc "__pc" 1
   7  0010              #pragma debug struct_end
"File: 4-10_TM5.c    Assembler  Version HGASM0202      Page 8

   7  0010              #pragma debug struct_end
   7  0010              #pragma debug union_end
   7  0010              #pragma debug union_end
   7  0010              #pragma debug variable 46 1 ___pcc "__pcc" 1
   7  0010              #pragma debug struct_end
   7  0010              #pragma debug struct_end
   7  0010              #pragma debug union_end
   7  0010              #pragma debug union_end
   7  0010              #pragma debug variable 48 1 ___pepu "__pepu" 1
   7  0010              #pragma debug struct_end
   7  0010              #pragma debug struct_end
   7  0010              #pragma debug union_end
   7  0010              #pragma debug union_end
   7  0010              #pragma debug variable 50 1 ___pe "__pe" 1
   7  0010              #pragma debug struct_end
   7  0010              #pragma debug struct_end
   7  0010              #pragma debug union_end
   7  0010              #pragma debug union_end
   7  0010              #pragma debug variable 52 1 ___pec "__pec" 1
   7  0010              #pragma debug struct_end
   7  0010              #pragma debug struct_end
   7  0010              #pragma debug union_end
   7  0010              #pragma debug union_end
   7  0010              #pragma debug variable 54 1 ___intc0 "__intc0" 1
   7  0010              #pragma debug struct_end
   7  0010              #pragma debug struct_end
   7  0010              #pragma debug union_end
   7  0010              #pragma debug union_end
   7  0010              #pragma debug variable 56 1 ___intc3 "__intc3" 1
   7  0010              #pragma debug struct_end
   7  0010              #pragma debug struct_end
   7  0010              #pragma debug union_end
   7  0010              #pragma debug union_end
   7  0010              #pragma debug variable 58 1 ___mfi4 "__mfi4" 1
   7  0010              #pragma debug struct_end
   7  0010              #pragma debug struct_end
   7  0010              #pragma debug union_end
   7  0010              #pragma debug union_end
   7  0010              #pragma debug variable 60 1 ___wdtc "__wdtc" 1
   7  0010              #pragma debug struct_end
   7  0010              #pragma debug struct_end
   7  0010              #pragma debug union_end
   7  0010              #pragma debug union_end
   7  0010              #pragma debug variable 62 1 ___tm5c0 "__tm5c0" 1
   7  0010              #pragma debug struct_end
   7  0010              #pragma debug struct_end
   7  0010              #pragma debug union_end
   7  0010              #pragma debug union_end
   7  0010              #pragma debug variable 64 1 ___tm5c1 "__tm5c1" 1
   7  0010              #pragma debug variable 8 1 ___tm5al "__tm5al" 1
   7  0010              #pragma debug variable 8 1 ___tm5ah "__tm5ah" 1
   7  0010              extern r1:byte
   7  0010              extern r2:byte
   7  0010              extern r3:byte
  17  0010              #line 17 "C:\Users\YVTC\Desktop\單晶片微控制器(一)\0320\4-10_TM5.c"
  17  0000              @code .section at 0 'code'
  17  0000  1F0B        	clr bp
  17  0001  2800     R  	jmp _main_startup1
  17  0002              
  17  0002              
"File: 4-10_TM5.c    Assembler  Version HGASM0202      Page 9

  17  0002              ; 
  17  0002              ; Generated by holtek-gcc v3.18, Tue Mar 20 11:16:38 2018
  17  0002              ; Rebuild 126
  17  0002              ; end of file


        0 Errors, 0