"File: 5-11.c        Assembler  Version HGASM0202      Page 1


   1  0000              ; Generated by holtek-gcc v3.18, Tue May 15 11:10:37 2018
   2  0000              ; 
   3  0000              ; Configuration:
   4  0000              ;       with long instruction
   5  0000              ;       Multi-ROM, Multi-RAM
   6  0000              ;       bits_per_rom_unit:16
   7  0000              ;       with mp1
   8  0000              ;       with tbhp, address(0x9)
   9  0000              ;          Use tabrd-const
  10  0000              ;       
  11  0000              ; SFR address of long-instruction arch:
  12  0000              ;    mp0 = -1,1,0
  13  0000              ;    mp1 = 4,3,2
  14  0000              ;    mp2 = 14,13,12
  15  0000              ;    tbp = 9,7,8
  16  0000              ;    acc = 5
  17  0000              ;    pcl = 6
  18  0000              ;    status = 10
  19  0000              ;    bp = 11
  20  0000              ;    intc = 48
  21  0000              ;       
  22  0000              ;       
  23  0000              ; use 'tabrdc' instead of 'tabrd'
  24  0000              ;       
  25  0000              
  26  0000              #pragma translator "holtek-gcc 4.6.4" "3.18" "build 20130711"
  27  0000              ; Rebuild 126
  28  0000              
  29  0000              ir equ [2]
  30  0000              mp equ [3]
  31  0000              sbp equ [4]
  32  0000              acc equ [5]
  33  0000              bp equ [11]
  34  0000              tblp equ [7]
  35  0000              tbhp equ [9]
  36  0000              status equ [10]
  37  0000              c equ [10].0
  38  0000              ac equ [10].1
  39  0000              z equ [10].2
  40  0000              ov equ [10].3
  41  0000              cz equ [10].6
  42  0000              sc equ [10].7
  43  0000              intc equ [48]
  44  0000              
  45  0000              extern ra:byte
  46  0000              extern rb:byte
  47  0000              extern rc:byte
  48  0000              extern rd:byte
  49  0000              extern re:byte
  50  0000              extern rf:byte
  51  0000              extern rg:byte
  52  0000              extern rh:byte
  53  0000              extern _Crom2Prom:near
  54  0000              extern _Crom2PromNext:near
  55  0000              
  56  0000              RAMBANK 0 @BITDATASEC, @BITDATASEC1
  57  0000              @HCCINIT	.section 'data'
  58  0000              @HCCINIT0	.section 'data'
  59  0000              @BITDATASEC	 .section 'data'
"File: 5-11.ASM      Assembler  Version HGASM0202      Page 2

  60  0000              @BITDATASEC1	 .section 'data'
  61  0000              
  62  0000              #pragma debug scope 1 1
  63  0000              	extern __DELAY3:near
  64  0000              	extern __DELAYX3:near
  65  0000              	extern __DELAYX6:near
  66  0000              	extern __DELAYY5:near
  67  0000              	extern __DELAYY3:near
  68  0000              	extern _builtin_holtek_delay_2:byte
  69  0000              public _Hex2ASCII
  70  0000              #pragma debug scope 2 1

  66  0000              #line 66 "C:\Users\YVTC\Desktop\單晶片微控制器(一)\0515\5-11.c"
  66  0000              _Hex2ASCII .section 'code'
  66  0000              _Hex2ASCII proc
  66  0000  00              local _Hex2ASCII_2 db 1 dup(?)	; 0,1
  66  0000  0080     E  	mov ra,a
  66  0001              #pragma debug variable 8 2 _Hex2ASCII_2+0 "i"
  66  0001  1F00     E  	clr _builtin_holtek_udivmodqi4_2[3]
  66  0002  0700     E  	mov a,ra
  66  0003  0080     E  	mov _builtin_holtek_udivmodqi4_2[0],a
  66  0004  0F64        	mov a,100
  66  0005  0080     E  	mov _builtin_holtek_udivmodqi4_2[1],a
  66  0006              	fcall _builtin_holtek_udivmodqi4
  66  000D  0700     E  	mov a,_builtin_holtek_udivmodqi4_2[0]
  66  000E  0080     E  	mov rb,a
  66  000F  0700     E  	mov a,rb
  66  0010  0B30        	add a,48
  66  0011  0080     R  	mov _Digit[2],a
  66  0012  1F00     E  	clr _builtin_holtek_udivmodqi4_2[3]
  66  0013  0700     E  	mov a,ra
  66  0014  0080     E  	mov _builtin_holtek_udivmodqi4_2[0],a
  66  0015  0F64        	mov a,100
  66  0016  0080     E  	mov _builtin_holtek_udivmodqi4_2[1],a
  66  0017              	fcall _builtin_holtek_udivmodqi4
  66  001E  0700     E  	mov a,_builtin_holtek_udivmodqi4_2[2]
  66  001F  0080     E  	mov ra,a
  67  0020              #line 67 "C:\Users\YVTC\Desktop\單晶片微控制器(一)\0515\5-11.c"
  67  0020  1F00     E  	clr _builtin_holtek_udivmodqi4_2[3]
  67  0021  0700     E  	mov a,ra
  67  0022  0080     E  	mov _builtin_holtek_udivmodqi4_2[0],a
  67  0023  0F0A        	mov a,10
  67  0024  0080     E  	mov _builtin_holtek_udivmodqi4_2[1],a
  67  0025              	fcall _builtin_holtek_udivmodqi4
  67  002C  0700     E  	mov a,_builtin_holtek_udivmodqi4_2[0]
  67  002D  0080     E  	mov rb,a
  67  002E  0700     E  	mov a,rb
  67  002F  0B30        	add a,48
  67  0030  0080     R  	mov _Digit[1],a
  68  0031              #line 68 "C:\Users\YVTC\Desktop\單晶片微控制器(一)\0515\5-11.c"
  68  0031  1F00     E  	clr _builtin_holtek_udivmodqi4_2[3]
  68  0032  0700     E  	mov a,ra
  68  0033  0080     E  	mov _builtin_holtek_udivmodqi4_2[0],a
  68  0034  0F0A        	mov a,10
  68  0035  0080     E  	mov _builtin_holtek_udivmodqi4_2[1],a
  68  0036              	fcall _builtin_holtek_udivmodqi4
  68  003D  0700     E  	mov a,_builtin_holtek_udivmodqi4_2[2]
  68  003E  0080     E  	mov ra,a
  68  003F  0700     E  	mov a,ra
  68  0040  0B30        	add a,48
"File: 5-11.c        Assembler  Version HGASM0202      Page 3

  68  0041  0080     R  	mov _Digit[0],a
  68  0042  0003        	ret
  68  0043              _Hex2ASCII endp
  68  0043              #line 68 "C:\Users\YVTC\Desktop\單晶片微控制器(一)\0515\5-11.c"
  68  0043              #pragma debug scope 1 1
  68  0043              ___pgc equ [43]
  68  0043              ___ph equ [46]
  68  0043              ___pg equ [42]
  68  0043              public _LCMWrite4
  68  0043              #pragma debug scope 3 1
  83  0043              #line 83 "C:\Users\YVTC\Desktop\單晶片微控制器(一)\0515\5-11.c"
  83  0000              _LCMWrite4 .section 'code'
  83  0000              _LCMWrite4 proc
  83  0000              public _LCMWrite4_2
  83  0000  0002[           local _LCMWrite4_2 db 2 dup(?)	; 1,1
            00
            ]
  83  0000  0080     R  	mov _LCMWrite4_2[1],a
  83  0001              #pragma debug variable 8 3 _LCMWrite4_2+1 "DCFlag"
  83  0001              #pragma debug variable 8 3 _LCMWrite4_2+0 "CD"
  84  0001              #line 84 "C:\Users\YVTC\Desktop\單晶片微控制器(一)\0515\5-11.c"
  84  0001  0FF0        	mov a,240
  84  0002  05AB        	orm a,[43]
  85  0003              #line 85 "C:\Users\YVTC\Desktop\單晶片微控制器(一)\0515\5-11.c"
  85  0003  342E        	clr [46].0
  85  0004  30AE        	set [46].1
  86  0005              #line 86 "C:\Users\YVTC\Desktop\單晶片微控制器(一)\0515\5-11.c"
  86  0005              ;# 86 "C:\Users\YVTC\Desktop\單晶片微控制器(一)\0515\5-11.c" 1
  86  0005  0000        	nop
  86  0006              _L4:
  88  0006              #line 88 "C:\Users\YVTC\Desktop\單晶片微控制器(一)\0515\5-11.c"
  88  0006  312E        	set [46].2
  88  0007              ;# 88 "C:\Users\YVTC\Desktop\單晶片微控制器(一)\0515\5-11.c" 1
  88  0007  0000        	nop
  89  0008              #line 89 "C:\Users\YVTC\Desktop\單晶片微控制器(一)\0515\5-11.c"
  89  0008  072A        	mov a,[42]
  89  0009  0080     E  	mov ra,a
  90  000A              #line 90 "C:\Users\YVTC\Desktop\單晶片微控制器(一)\0515\5-11.c"
  90  000A  352E        	clr [46].2
  91  000B              #line 91 "C:\Users\YVTC\Desktop\單晶片微控制器(一)\0515\5-11.c"
  91  000B  0FF0        	mov a,240
  91  000C  0680     E  	andm a,ra
  92  000D              #line 92 "C:\Users\YVTC\Desktop\單晶片微控制器(一)\0515\5-11.c"
  92  000D  312E        	set [46].2
  92  000E              ;# 92 "C:\Users\YVTC\Desktop\單晶片微控制器(一)\0515\5-11.c" 1
  92  000E  0000        	nop
  93  000F              #line 93 "C:\Users\YVTC\Desktop\單晶片微控制器(一)\0515\5-11.c"
  93  000F  112A        	swapa [42]
  93  0010  0E0F        	and a,0fh
  93  0011  0080     E  	mov rb,a
  93  0012  0700     E  	mov a,rb
  93  0013  0580     E  	orm a,ra
  94  0014              #line 94 "C:\Users\YVTC\Desktop\單晶片微控制器(一)\0515\5-11.c"
  94  0014  352E        	clr [46].2
  95  0015              #line 95 "C:\Users\YVTC\Desktop\單晶片微控制器(一)\0515\5-11.c"
  95  0015  3C00     E  	sz ra.7
  95  0016  2800     R  	jmp _L4
  96  0017              #line 96 "C:\Users\YVTC\Desktop\單晶片微控制器(一)\0515\5-11.c"
  96  0017  0F0F        	mov a,15
  96  0018  06AB        	andm a,[43]
"File: 5-11.c        Assembler  Version HGASM0202      Page 4

  97  0019              #line 97 "C:\Users\YVTC\Desktop\單晶片微控制器(一)\0515\5-11.c"
  97  0019  34AE        	clr [46].1
  98  001A              #line 98 "C:\Users\YVTC\Desktop\單晶片微控制器(一)\0515\5-11.c"
  98  001A  0700     R  	mov a,_LCMWrite4_2[1]
  98  001B  0E01        	and a,1
  98  001C  0080     E  	mov rb,a
  98  001D  342E        	clr [46].0
  98  001E  0700     E  	mov a,rb
  98  001F  05AE        	orm a,[46]
  99  0020              #line 99 "C:\Users\YVTC\Desktop\單晶片微控制器(一)\0515\5-11.c"
  99  0020  0F0F        	mov a,15
  99  0021  06AA        	andm a,[42]
 100  0022              #line 100 "C:\Users\YVTC\Desktop\單晶片微控制器(一)\0515\5-11.c"
 100  0022  0700     R  	mov a,_LCMWrite4_2[0]
 100  0023  0EF0        	and a,240
 100  0024  0080     E  	mov rb,a
 100  0025  0700     E  	mov a,rb
 100  0026  05AA        	orm a,[42]
 101  0027              #line 101 "C:\Users\YVTC\Desktop\單晶片微控制器(一)\0515\5-11.c"
 101  0027  312E        	set [46].2
 101  0028              ;# 101 "C:\Users\YVTC\Desktop\單晶片微控制器(一)\0515\5-11.c" 1
 101  0028  0000        	nop
 101  0029  352E        	clr [46].2
 102  002A              #line 102 "C:\Users\YVTC\Desktop\單晶片微控制器(一)\0515\5-11.c"
 102  002A  0F0F        	mov a,15
 102  002B  06AA        	andm a,[42]
 103  002C              #line 103 "C:\Users\YVTC\Desktop\單晶片微控制器(一)\0515\5-11.c"
 103  002C  0700     R  	mov a,_LCMWrite4_2[0]
 103  002D  0080     E  	mov rb,a
 103  002E  1F00     E  	clr rc
 103  002F  0F04        	mov a,4
 103  0030              _LI1:
 103  0030  340A        	clr c
 103  0031  1A80     E  	rlc rb
 103  0032  1A80     E  	rlc rc
 103  0033  1785        	sdz acc
 103  0034  2800     R  	jmp _LI1
 103  0035  0700     E  	mov a,rb
 103  0036  05AA        	orm a,[42]
 104  0037              #line 104 "C:\Users\YVTC\Desktop\單晶片微控制器(一)\0515\5-11.c"
 104  0037  312E        	set [46].2
 104  0038              ;# 104 "C:\Users\YVTC\Desktop\單晶片微控制器(一)\0515\5-11.c" 1
 104  0038  0000        	nop
 104  0039  352E        	clr [46].2
 106  003A              #line 106 "C:\Users\YVTC\Desktop\單晶片微控制器(一)\0515\5-11.c"
 106  003A  0700     E  	mov a,ra
 106  003B  0003        	ret
 106  003C              _LCMWrite4 endp
 106  003C              #line 106 "C:\Users\YVTC\Desktop\單晶片微控制器(一)\0515\5-11.c"
 106  003C              #pragma debug scope 1 1
 106  003C              public _LCMPrint
 106  003C              #pragma debug scope 4 1
  71  003C              #line 71 "C:\Users\YVTC\Desktop\單晶片微控制器(一)\0515\5-11.c"
  71  0000              _LCMPrint .section 'code'
  71  0000              _LCMPrint proc
  71  0000              public _LCMPrint_2
  71  0000  0002[           local _LCMPrint_2 db 2 dup(?)	; 2,0
            00
            ]
  71  0002              #pragma debug pointer 42 8 4
"File: 5-11.c        Assembler  Version HGASM0202      Page 5

  71  0002              #pragma debug pointer 42 8 4
  71  0002              #pragma debug variable 42 4 _LCMPrint_2+0 "ptr"
  71  0000  2800     R  	jmp _L7
  71  0001              _L8:
  71  0001              #line 71 "C:\Users\YVTC\Desktop\單晶片微控制器(一)\0515\5-11.c"
  71  0001  1480     R  	inc _LCMPrint_2[0]
  71  0002  3D0A        	sz z
  71  0003  1480     R  	inc _LCMPrint_2[1]
  71  0004  0700     E  	mov a,ra
  71  0005  0080     R  	mov _LCMWrite4_2[0],a
  71  0006  0F01        	mov a,1
  71  0007              	fcall _LCMWrite4
  71  000E              _L7:
  71  000E  0700     R  	mov a,_LCMPrint_2[0]
  71  000F  0083        	mov mp,a
  71  0010  0700     R  	mov a,_LCMPrint_2[1]
  71  0011  0084        	mov sbp,a
  71  0012              	fcall _Crom2Prom
  71  0019  0080     E  	mov ra,a
  71  001A  1080     E  	sz ra
  71  001B  2800     R  	jmp _L8
  71  001C  0003        	ret
  71  001D              _LCMPrint endp
  71  001D              #line 71 "C:\Users\YVTC\Desktop\單晶片微控制器(一)\0515\5-11.c"
  71  001D              #pragma debug scope 1 1
  71  001D              ___phc equ [47]
  71  001D              public _LCMInit
  71  001D              #pragma debug scope 5 1
  74  001D              #line 74 "C:\Users\YVTC\Desktop\單晶片微控制器(一)\0515\5-11.c"
  74  0000              _LCMInit .section 'code'
  74  0000              _LCMInit proc
  74  0000  352E        	clr [46].2
  74  0001  34AE        	clr [46].1
  74  0002  342E        	clr [46].0
  75  0003              #line 75 "C:\Users\YVTC\Desktop\單晶片微控制器(一)\0515\5-11.c"
  75  0003  352F        	clr [47].2
  75  0004  34AF        	clr [47].1
  75  0005  342F        	clr [47].0
  76  0006              #line 76 "C:\Users\YVTC\Desktop\單晶片微控制器(一)\0515\5-11.c"
  76  0006              ;# 76 "C:\Users\YVTC\Desktop\單晶片微控制器(一)\0515\5-11.c" 1
  76  0006              	IF 80000>263690
  76  0006              ;# 76 "C:\Users\YVTC\Desktop\單晶片微控制器(一)\0515\5-11.c" 1
  76  0006              	ERRMESSAGE 'the value 80000of the argument exceeds the maxinum 263690'
  76  0006              	ENDIF
  76  0006              ;# 76 "C:\Users\YVTC\Desktop\單晶片微控制器(一)\0515\5-11.c" 1
  76  0006              	IF 80000<0
  76  0006              ;# 76 "C:\Users\YVTC\Desktop\單晶片微控制器(一)\0515\5-11.c" 1
  76  0006              	ERRMESSAGE 'the value 80000 of the argument exceeds the mininum 0'
  76  0006              	ENDIF
  76  0006              ;# 76 "C:\Users\YVTC\Desktop\單晶片微控制器(一)\0515\5-11.c" 1
  76  0006              	IF 80000==0
  76  0006              ;# 76 "C:\Users\YVTC\Desktop\單晶片微控制器(一)\0515\5-11.c" 1
  76  0006              	JMP $
  76  0006              	ENDIF
  76  0006              ;# 76 "C:\Users\YVTC\Desktop\單晶片微控制器(一)\0515\5-11.c" 1
  76  0006              	IF (80000>=1) AND (80000<( 4 + __PBP__ * 2))
  76  0006              ;# 76 "C:\Users\YVTC\Desktop\單晶片微控制器(一)\0515\5-11.c" 1
  76  0006              	NOP
  76  0006              	ENDIF
  76  0006              ;# 76 "C:\Users\YVTC\Desktop\單晶片微控制器(一)\0515\5-11.c" 1
"File: 5-11.c        Assembler  Version HGASM0202      Page 6

  76  0006              	IF (80000>=2) AND (80000<( 4 + __PBP__ * 2))
  76  0006              ;# 76 "C:\Users\YVTC\Desktop\單晶片微控制器(一)\0515\5-11.c" 1
  76  0006              	NOP
  76  0006              	ENDIF
  76  0006              ;# 76 "C:\Users\YVTC\Desktop\單晶片微控制器(一)\0515\5-11.c" 1
  76  0006              	IF (80000>=3) AND (80000<( 4 + __PBP__ * 2))
  76  0006              ;# 76 "C:\Users\YVTC\Desktop\單晶片微控制器(一)\0515\5-11.c" 1
  76  0006              	NOP
  76  0006              	ENDIF
  76  0006              ;# 76 "C:\Users\YVTC\Desktop\單晶片微控制器(一)\0515\5-11.c" 1
  76  0006              	IF (80000>=4) AND (80000<( 4 + __PBP__ * 2)) AND ( __PBP__ > 0 )
  76  0006              ;# 76 "C:\Users\YVTC\Desktop\單晶片微控制器(一)\0515\5-11.c" 1
  76  0006              	NOP
  76  0006              	ENDIF
  76  0006              ;# 76 "C:\Users\YVTC\Desktop\單晶片微控制器(一)\0515\5-11.c" 1
  76  0006              	IF (80000>=5) AND (80000<( 4 + __PBP__ * 2)) AND ( __PBP__ > 0 )
  76  0006              ;# 76 "C:\Users\YVTC\Desktop\單晶片微控制器(一)\0515\5-11.c" 1
  76  0006              	NOP
  76  0006              	ENDIF
  76  0006              ;# 76 "C:\Users\YVTC\Desktop\單晶片微控制器(一)\0515\5-11.c" 1
  76  0006              	IF (80000>=6) AND (80000<( 4 + __PBP__ * 2))  AND ( __PBP__ > 1 )
  76  0006              ;# 76 "C:\Users\YVTC\Desktop\單晶片微控制器(一)\0515\5-11.c" 1
  76  0006              	NOP
  76  0006              	ENDIF
  76  0006              ;# 76 "C:\Users\YVTC\Desktop\單晶片微控制器(一)\0515\5-11.c" 1
  76  0006              	IF (80000>=7) AND (80000<( 4 + __PBP__ * 2))  AND ( __PBP__ > 1 )
  76  0006              ;# 76 "C:\Users\YVTC\Desktop\單晶片微控制器(一)\0515\5-11.c" 1
  76  0006              	NOP
  76  0006              	ENDIF
  76  0006              ;# 76 "C:\Users\YVTC\Desktop\單晶片微控制器(一)\0515\5-11.c" 1
  76  0006              	IF (80000>=8) AND (80000<( 4 + __PBP__ * 2))  AND ( __PBP__ > 2 )
  76  0006              ;# 76 "C:\Users\YVTC\Desktop\單晶片微控制器(一)\0515\5-11.c" 1
  76  0006              	NOP
  76  0006              	ENDIF
  76  0006              ;# 76 "C:\Users\YVTC\Desktop\單晶片微控制器(一)\0515\5-11.c" 1
  76  0006              	IF (80000==9)  AND ( __PBP__ > 2 )
  76  0006              ;# 76 "C:\Users\YVTC\Desktop\單晶片微控制器(一)\0515\5-11.c" 1
  76  0006              	NOP
  76  0006              	ENDIF
  76  0006              ;# 76 "C:\Users\YVTC\Desktop\單晶片微控制器(一)\0515\5-11.c" 1
  76  0006              	IF (80000< ( 8 + __PBP__ * 2)) AND (80000>( 3 + __PBP__ * 2))
  76  0006              ;# 76 "C:\Users\YVTC\Desktop\單晶片微控制器(一)\0515\5-11.c" 1
  76  0006              	fcall __DELAY3 + ( 7 + __PBP__ * 2) -80000
  76  0006              	ENDIF
  76  0006              ;# 76 "C:\Users\YVTC\Desktop\單晶片微控制器(一)\0515\5-11.c" 1
  76  0006              	IF (80000< ( 0404h + __PBP__ * 2)) AND (80000>( 7 + __PBP__ * 2))
  76  0006              ;# 76 "C:\Users\YVTC\Desktop\單晶片微控制器(一)\0515\5-11.c" 1
  76  0006              	MOV A,(80000-( 4 + __PBP__ * 2))/4
  76  0006              ;# 76 "C:\Users\YVTC\Desktop\單晶片微控制器(一)\0515\5-11.c" 1
  76  0006              	fcall __DELAYX3 + 3 -((80000-( 4 + __PBP__ * 2)) MOD 4) 
  76  0006              	ENDIF
  76  0006              ;# 76 "C:\Users\YVTC\Desktop\單晶片微控制器(一)\0515\5-11.c" 1
  76  0006              	IF (80000< ( 040bh + __PBP__ * 2)) AND (80000> ( 0403h + __PBP__ * 2))
  76  0006              ;# 76 "C:\Users\YVTC\Desktop\單晶片微控制器(一)\0515\5-11.c" 1
  76  0006              	MOV A,0 
  76  0006              ;# 76 "C:\Users\YVTC\Desktop\單晶片微控制器(一)\0515\5-11.c" 1
  76  0006              	fcall __DELAYX6 + ( 040ah + __PBP__ * 2) -80000
  76  0006              	ENDIF
  76  0006              ;# 76 "C:\Users\YVTC\Desktop\單晶片微控制器(一)\0515\5-11.c" 1
  76  0006              	IF (80000 >= ( 040bh + __PBP__ * 2)) AND ((((80000-( 9 + __PBP__ * 2))%0402h)/4+1)>256)
"File: 5-11.c        Assembler  Version HGASM0202      Page 7

  76  0006              ;# 76 "C:\Users\YVTC\Desktop\單晶片微控制器(一)\0515\5-11.c" 1
  76  0006              	MOV A,(80000-( 9 + __PBP__ * 2))/0402h
  76  0006              ;# 76 "C:\Users\YVTC\Desktop\單晶片微控制器(一)\0515\5-11.c" 1
  76  0006              	MOV _builtin_holtek_delay_2,A
  76  0006              ;# 76 "C:\Users\YVTC\Desktop\單晶片微控制器(一)\0515\5-11.c" 1
  76  0006              	MOV A,0
  76  0006              ;# 76 "C:\Users\YVTC\Desktop\單晶片微控制器(一)\0515\5-11.c" 1
  76  0006              	fcall __DELAYY5 +5- (((80000-( 9 + __PBP__ * 2))%0402h)%6) 
  76  0006              	ENDIF
  76  0006              ;# 76 "C:\Users\YVTC\Desktop\單晶片微控制器(一)\0515\5-11.c" 1
  76  0006              	IF (80000 >= ( 040bh + __PBP__ * 2)) AND ((((80000-( 9 + __PBP__ * 2))%0402h)/4+1)<=256)
  76  0006              ;# 76 "C:\Users\YVTC\Desktop\單晶片微控制器(一)\0515\5-11.c" 1
  76  0006  0F4D        	MOV A,(80000-( 9 + __PBP__ * 2))/0402h
  76  0007              ;# 76 "C:\Users\YVTC\Desktop\單晶片微控制器(一)\0515\5-11.c" 1
  76  0007  0080     E  	MOV _builtin_holtek_delay_2,A
  76  0008              ;# 76 "C:\Users\YVTC\Desktop\單晶片微控制器(一)\0515\5-11.c" 1
  76  0008  0FF7        	MOV A,((80000-( 9 + __PBP__ * 2))%0402h)/4+1
  76  0009              ;# 76 "C:\Users\YVTC\Desktop\單晶片微控制器(一)\0515\5-11.c" 1
  76  0009              	fcall __DELAYY3 +3-(((80000-( 9 + __PBP__ * 2))%0402h)%4) 
  76  0010              	ENDIF
  77  0010              #line 77 "C:\Users\YVTC\Desktop\單晶片微控制器(一)\0515\5-11.c"
  77  0010  0F28        	mov a,40
  77  0011  0080     R  	mov _LCMWrite4_2[0],a
  77  0012  0F00        	mov a,0
  77  0013              	fcall _LCMWrite4
  78  001A              #line 78 "C:\Users\YVTC\Desktop\單晶片微控制器(一)\0515\5-11.c"
  78  001A  0F0F        	mov a,15
  78  001B  0080     R  	mov _LCMWrite4_2[0],a
  78  001C  0F00        	mov a,0
  78  001D              	fcall _LCMWrite4
  79  0024              #line 79 "C:\Users\YVTC\Desktop\單晶片微控制器(一)\0515\5-11.c"
  79  0024  0F06        	mov a,6
  79  0025  0080     R  	mov _LCMWrite4_2[0],a
  79  0026  0F00        	mov a,0
  79  0027              	fcall _LCMWrite4
  80  002E              #line 80 "C:\Users\YVTC\Desktop\單晶片微控制器(一)\0515\5-11.c"
  80  002E  0F01        	mov a,1
  80  002F  0080     R  	mov _LCMWrite4_2[0],a
  80  0030  0F00        	mov a,0
  80  0031              	fcall _LCMWrite4
  80  0038  0003        	ret
  80  0039              _LCMInit endp
  80  0039              #line 80 "C:\Users\YVTC\Desktop\單晶片微控制器(一)\0515\5-11.c"
  80  0039              #pragma debug scope 1 1
  80  0039              public _PAUSE
  80  0039              #pragma debug scope 6 1
 108  0039              #line 108 "C:\Users\YVTC\Desktop\單晶片微控制器(一)\0515\5-11.c"
 108  0000              _PAUSE .section 'code'
 108  0000              _PAUSE proc
 108  0000  00              local _PAUSE_2 db 1 dup(?)	; 0,1
 108  0000  0080     R  	mov _PAUSE_2[0],a
 108  0001              #pragma debug variable 8 6 _PAUSE_2+0 "i"
 109  0001              #line 109 "C:\Users\YVTC\Desktop\單晶片微控制器(一)\0515\5-11.c"
 109  0001  1F00     E  	clr ra
 109  0002  2800     R  	jmp _L11
 109  0003              _L12:
 109  0003              #line 109 "C:\Users\YVTC\Desktop\單晶片微控制器(一)\0515\5-11.c"
 109  0003              ;# 109 "C:\Users\YVTC\Desktop\單晶片微控制器(一)\0515\5-11.c" 1
 109  0003              	IF 20000>263690
 109  0003              ;# 109 "C:\Users\YVTC\Desktop\單晶片微控制器(一)\0515\5-11.c" 1
"File: 5-11.c        Assembler  Version HGASM0202      Page 8

 109  0003              	ERRMESSAGE 'the value 20000of the argument exceeds the maxinum 263690'
 109  0003              	ENDIF
 109  0003              ;# 109 "C:\Users\YVTC\Desktop\單晶片微控制器(一)\0515\5-11.c" 1
 109  0003              	IF 20000<0
 109  0003              ;# 109 "C:\Users\YVTC\Desktop\單晶片微控制器(一)\0515\5-11.c" 1
 109  0003              	ERRMESSAGE 'the value 20000 of the argument exceeds the mininum 0'
 109  0003              	ENDIF
 109  0003              ;# 109 "C:\Users\YVTC\Desktop\單晶片微控制器(一)\0515\5-11.c" 1
 109  0003              	IF 20000==0
 109  0003              ;# 109 "C:\Users\YVTC\Desktop\單晶片微控制器(一)\0515\5-11.c" 1
 109  0003              	JMP $
 109  0003              	ENDIF
 109  0003              ;# 109 "C:\Users\YVTC\Desktop\單晶片微控制器(一)\0515\5-11.c" 1
 109  0003              	IF (20000>=1) AND (20000<( 4 + __PBP__ * 2))
 109  0003              ;# 109 "C:\Users\YVTC\Desktop\單晶片微控制器(一)\0515\5-11.c" 1
 109  0003              	NOP
 109  0003              	ENDIF
 109  0003              ;# 109 "C:\Users\YVTC\Desktop\單晶片微控制器(一)\0515\5-11.c" 1
 109  0003              	IF (20000>=2) AND (20000<( 4 + __PBP__ * 2))
 109  0003              ;# 109 "C:\Users\YVTC\Desktop\單晶片微控制器(一)\0515\5-11.c" 1
 109  0003              	NOP
 109  0003              	ENDIF
 109  0003              ;# 109 "C:\Users\YVTC\Desktop\單晶片微控制器(一)\0515\5-11.c" 1
 109  0003              	IF (20000>=3) AND (20000<( 4 + __PBP__ * 2))
 109  0003              ;# 109 "C:\Users\YVTC\Desktop\單晶片微控制器(一)\0515\5-11.c" 1
 109  0003              	NOP
 109  0003              	ENDIF
 109  0003              ;# 109 "C:\Users\YVTC\Desktop\單晶片微控制器(一)\0515\5-11.c" 1
 109  0003              	IF (20000>=4) AND (20000<( 4 + __PBP__ * 2)) AND ( __PBP__ > 0 )
 109  0003              ;# 109 "C:\Users\YVTC\Desktop\單晶片微控制器(一)\0515\5-11.c" 1
 109  0003              	NOP
 109  0003              	ENDIF
 109  0003              ;# 109 "C:\Users\YVTC\Desktop\單晶片微控制器(一)\0515\5-11.c" 1
 109  0003              	IF (20000>=5) AND (20000<( 4 + __PBP__ * 2)) AND ( __PBP__ > 0 )
 109  0003              ;# 109 "C:\Users\YVTC\Desktop\單晶片微控制器(一)\0515\5-11.c" 1
 109  0003              	NOP
 109  0003              	ENDIF
 109  0003              ;# 109 "C:\Users\YVTC\Desktop\單晶片微控制器(一)\0515\5-11.c" 1
 109  0003              	IF (20000>=6) AND (20000<( 4 + __PBP__ * 2))  AND ( __PBP__ > 1 )
 109  0003              ;# 109 "C:\Users\YVTC\Desktop\單晶片微控制器(一)\0515\5-11.c" 1
 109  0003              	NOP
 109  0003              	ENDIF
 109  0003              ;# 109 "C:\Users\YVTC\Desktop\單晶片微控制器(一)\0515\5-11.c" 1
 109  0003              	IF (20000>=7) AND (20000<( 4 + __PBP__ * 2))  AND ( __PBP__ > 1 )
 109  0003              ;# 109 "C:\Users\YVTC\Desktop\單晶片微控制器(一)\0515\5-11.c" 1
 109  0003              	NOP
 109  0003              	ENDIF
 109  0003              ;# 109 "C:\Users\YVTC\Desktop\單晶片微控制器(一)\0515\5-11.c" 1
 109  0003              	IF (20000>=8) AND (20000<( 4 + __PBP__ * 2))  AND ( __PBP__ > 2 )
 109  0003              ;# 109 "C:\Users\YVTC\Desktop\單晶片微控制器(一)\0515\5-11.c" 1
 109  0003              	NOP
 109  0003              	ENDIF
 109  0003              ;# 109 "C:\Users\YVTC\Desktop\單晶片微控制器(一)\0515\5-11.c" 1
 109  0003              	IF (20000==9)  AND ( __PBP__ > 2 )
 109  0003              ;# 109 "C:\Users\YVTC\Desktop\單晶片微控制器(一)\0515\5-11.c" 1
 109  0003              	NOP
 109  0003              	ENDIF
 109  0003              ;# 109 "C:\Users\YVTC\Desktop\單晶片微控制器(一)\0515\5-11.c" 1
 109  0003              	IF (20000< ( 8 + __PBP__ * 2)) AND (20000>( 3 + __PBP__ * 2))
 109  0003              ;# 109 "C:\Users\YVTC\Desktop\單晶片微控制器(一)\0515\5-11.c" 1
"File: 5-11.c        Assembler  Version HGASM0202      Page 9

 109  0003              	fcall __DELAY3 + ( 7 + __PBP__ * 2) -20000
 109  0003              	ENDIF
 109  0003              ;# 109 "C:\Users\YVTC\Desktop\單晶片微控制器(一)\0515\5-11.c" 1
 109  0003              	IF (20000< ( 0404h + __PBP__ * 2)) AND (20000>( 7 + __PBP__ * 2))
 109  0003              ;# 109 "C:\Users\YVTC\Desktop\單晶片微控制器(一)\0515\5-11.c" 1
 109  0003              	MOV A,(20000-( 4 + __PBP__ * 2))/4
 109  0003              ;# 109 "C:\Users\YVTC\Desktop\單晶片微控制器(一)\0515\5-11.c" 1
 109  0003              	fcall __DELAYX3 + 3 -((20000-( 4 + __PBP__ * 2)) MOD 4) 
 109  0003              	ENDIF
 109  0003              ;# 109 "C:\Users\YVTC\Desktop\單晶片微控制器(一)\0515\5-11.c" 1
 109  0003              	IF (20000< ( 040bh + __PBP__ * 2)) AND (20000> ( 0403h + __PBP__ * 2))
 109  0003              ;# 109 "C:\Users\YVTC\Desktop\單晶片微控制器(一)\0515\5-11.c" 1
 109  0003              	MOV A,0 
 109  0003              ;# 109 "C:\Users\YVTC\Desktop\單晶片微控制器(一)\0515\5-11.c" 1
 109  0003              	fcall __DELAYX6 + ( 040ah + __PBP__ * 2) -20000
 109  0003              	ENDIF
 109  0003              ;# 109 "C:\Users\YVTC\Desktop\單晶片微控制器(一)\0515\5-11.c" 1
 109  0003              	IF (20000 >= ( 040bh + __PBP__ * 2)) AND ((((20000-( 9 + __PBP__ * 2))%0402h)/4+1)>256)
 109  0003              ;# 109 "C:\Users\YVTC\Desktop\單晶片微控制器(一)\0515\5-11.c" 1
 109  0003              	MOV A,(20000-( 9 + __PBP__ * 2))/0402h
 109  0003              ;# 109 "C:\Users\YVTC\Desktop\單晶片微控制器(一)\0515\5-11.c" 1
 109  0003              	MOV _builtin_holtek_delay_2,A
 109  0003              ;# 109 "C:\Users\YVTC\Desktop\單晶片微控制器(一)\0515\5-11.c" 1
 109  0003              	MOV A,0
 109  0003              ;# 109 "C:\Users\YVTC\Desktop\單晶片微控制器(一)\0515\5-11.c" 1
 109  0003              	fcall __DELAYY5 +5- (((20000-( 9 + __PBP__ * 2))%0402h)%6) 
 109  0003              	ENDIF
 109  0003              ;# 109 "C:\Users\YVTC\Desktop\單晶片微控制器(一)\0515\5-11.c" 1
 109  0003              	IF (20000 >= ( 040bh + __PBP__ * 2)) AND ((((20000-( 9 + __PBP__ * 2))%0402h)/4+1)<=256)
 109  0003              ;# 109 "C:\Users\YVTC\Desktop\單晶片微控制器(一)\0515\5-11.c" 1
 109  0003  0F13        	MOV A,(20000-( 9 + __PBP__ * 2))/0402h
 109  0004              ;# 109 "C:\Users\YVTC\Desktop\單晶片微控制器(一)\0515\5-11.c" 1
 109  0004  0080     E  	MOV _builtin_holtek_delay_2,A
 109  0005              ;# 109 "C:\Users\YVTC\Desktop\單晶片微控制器(一)\0515\5-11.c" 1
 109  0005  0F7C        	MOV A,((20000-( 9 + __PBP__ * 2))%0402h)/4+1
 109  0006              ;# 109 "C:\Users\YVTC\Desktop\單晶片微控制器(一)\0515\5-11.c" 1
 109  0006              	fcall __DELAYY3 +3-(((20000-( 9 + __PBP__ * 2))%0402h)%4) 
 109  000D              	ENDIF
 109  000D  1480     E  	inc ra
 109  000E              _L11:
 109  000E  0700     E  	mov a,ra
 109  000F  0200     R  	sub a,_PAUSE_2[0]
 109  0010  390A        	snz z
 109  0011  2800     R  	jmp _L12
 109  0012  0003        	ret
 109  0013              _PAUSE endp
 109  0013              #line 109 "C:\Users\YVTC\Desktop\單晶片微控制器(一)\0515\5-11.c"
 109  0013              #pragma debug scope 1 1
 109  0013              ___wdtc equ [62]
 109  0013              ___pec equ [35]
 109  0013              ___pepu equ [33]
 109  0013              ___tm2rp equ [87]
 109  0013              ___tm2c1 equ [82]
 109  0013              ___tm2c0 equ [81]
 109  0013              ___tm2dh equ [84]
 109  0013              ___tm2dl equ [83]
 109  0013              ___pe equ [34]
 109  0013              public _main
 109  0013              #pragma debug scope 7 1
  19  0013              #line 19 "C:\Users\YVTC\Desktop\單晶片微控制器(一)\0515\5-11.c"
"File: 5-11.c        Assembler  Version HGASM0202      Page 10

  19  0013              IFDEF WITH_DEFAULT_STARTUP
  19  0013              extern _main_initial0:near
  19  0013              extern _main_startup:near
  19  0013              ENDIF
  19  0013              
  19  0013              ROMBANK 0 @start
  19  0000              @start .section com_l 'code'
  19  0000              _main_startup1:
  19  0000              @start .section com_e 'code'
  19  0000  0F00     R  	mov a,bank _main
  19  0001  008B        	mov bp,a
  19  0002  2800     R  	jmp _main
  19  0003              
  19  0000              _main .section 'code'
  19  0000              _main proc
  19  0000  0005[           local _main_2 db 5 dup(?)
            00
            ]
  19  0005              #pragma debug variable 8 7 _main_2+0 "Click"
  19  0005              #pragma debug variable 8 7 _main_2+2 "Random"
  19  0005              #pragma debug variable 8 7 _main_2+3 "temp"
  21  0005              #line 21 "C:\Users\YVTC\Desktop\單晶片微控制器(一)\0515\5-11.c"
  21  0000  0FAF        	mov a,175
  21  0001  00BE        	mov [62],a
  22  0002              #line 22 "C:\Users\YVTC\Desktop\單晶片微控制器(一)\0515\5-11.c"
  22  0002  32A3        	set [35].5
  22  0003  3323        	set [35].6
  22  0004  33A3        	set [35].7
  23  0005              #line 23 "C:\Users\YVTC\Desktop\單晶片微控制器(一)\0515\5-11.c"
  23  0005  32A1        	set [33].5
  23  0006  3321        	set [33].6
  23  0007  33A1        	set [33].7
  24  0008              #line 24 "C:\Users\YVTC\Desktop\單晶片微控制器(一)\0515\5-11.c"
  24  0008  1F57        	clr [87]
  25  0009              #line 25 "C:\Users\YVTC\Desktop\單晶片微控制器(一)\0515\5-11.c"
  25  0009  0FC0        	mov a,192
  25  000A  00D2        	mov [82],a
  26  000B              #line 26 "C:\Users\YVTC\Desktop\單晶片微控制器(一)\0515\5-11.c"
  26  000B  0F18        	mov a,24
  26  000C  00D1        	mov [81],a
  27  000D              #line 27 "C:\Users\YVTC\Desktop\單晶片微控制器(一)\0515\5-11.c"
  27  000D              	fcall _LCMInit
  28  0014              #line 28 "C:\Users\YVTC\Desktop\單晶片微控制器(一)\0515\5-11.c"
  28  0014  0F40        	mov a,64
  28  0015  0080     R  	mov _LCMWrite4_2[0],a
  28  0016  0F00        	mov a,0
  28  0017              	fcall _LCMWrite4
  28  001E  0F10        	mov a,16
  28  001F  0080     R  	mov _main_2[0],a
  29  0020              #line 29 "C:\Users\YVTC\Desktop\單晶片微控制器(一)\0515\5-11.c"
  29  0020  1F00     R  	clr _main_2[1]
  29  0021              _L15:
  29  0021              #line 29 "C:\Users\YVTC\Desktop\單晶片微控制器(一)\0515\5-11.c"
  29  0021  0700     R  	mov a,_main_2[1]
  29  0022  0080     E  	mov rb,a
  29  0023  1F00     E  	clr rc
  29  0024  3F85        	sz acc.7
  29  0025  1F80     E  	set rc
  29  0026  0F00     R  	mov a,low offset _TAB_CGRAM
  29  0027  0300     E  	add a,rb
"File: 5-11.c        Assembler  Version HGASM0202      Page 11

  29  0028  0083        	mov mp,a
  29  0029  0F00     R  	mov a,high offset _TAB_CGRAM
  29  002A  1300     E  	adc a,rc
  29  002B  0084        	mov sbp,a
  29  002C              	fcall _Crom2Prom
  29  0033  0080     R  	mov _LCMWrite4_2[0],a
  29  0034  0F01        	mov a,1
  29  0035              	fcall _LCMWrite4
  29  003C  1480     R  	inc _main_2[1]
  29  003D  1780     R  	sdz _main_2[0]
  29  003E  2800     R  	jmp _L15
  29  003F              _L30:
  31  003F              #line 31 "C:\Users\YVTC\Desktop\單晶片微控制器(一)\0515\5-11.c"
  31  003F  0F01        	mov a,1
  31  0040  0080     R  	mov _LCMWrite4_2[0],a
  31  0041  0F00        	mov a,0
  31  0042              	fcall _LCMWrite4
  32  0049              #line 32 "C:\Users\YVTC\Desktop\單晶片微控制器(一)\0515\5-11.c"
  32  0049  0753        	mov a,[83]
  32  004A  0454        	xor a,[84]
  32  004B  0080     R  	mov _main_2[2],a
  33  004C              #line 33 "C:\Users\YVTC\Desktop\單晶片微控制器(一)\0515\5-11.c"
  33  004C  0700     R  	mov a,_main_2[2]
  33  004D              	fcall _Hex2ASCII
  34  0054              #line 34 "C:\Users\YVTC\Desktop\單晶片微控制器(一)\0515\5-11.c"
  34  0054  0F82        	mov a,130
  34  0055  0080     R  	mov _LCMWrite4_2[0],a
  34  0056  0F00        	mov a,0
  34  0057              	fcall _LCMWrite4
  34  005E  0F03        	mov a,3
  34  005F  0080     R  	mov _main_2[0],a
  35  0060              #line 35 "C:\Users\YVTC\Desktop\單晶片微控制器(一)\0515\5-11.c"
  35  0060  0F02        	mov a,2
  35  0061  0080     R  	mov _main_2[1],a
  35  0062              _L17:
  35  0062  0700     R  	mov a,_main_2[1]
  35  0063  0080     E  	mov rb,a
  35  0064  1F00     E  	clr rc
  35  0065  3F85        	sz acc.7
  35  0066  1F80     E  	set rc
  35  0067  0F00     R  	mov a,low offset _Digit
  35  0068  0300     E  	add a,rb
  35  0069  0083        	mov mp,a
  35  006A  0F00     R  	mov a,high offset _Digit
  35  006B  1300     E  	adc a,rc
  35  006C  0084        	mov sbp,a
  35  006D              	fcall _Crom2Prom
  35  0074  0080     R  	mov _LCMWrite4_2[0],a
  35  0075  0F01        	mov a,1
  35  0076              	fcall _LCMWrite4
  35  007D  1580     R  	dec _main_2[1]
  35  007E  1780     R  	sdz _main_2[0]
  35  007F  2800     R  	jmp _L17
  36  0080              #line 36 "C:\Users\YVTC\Desktop\單晶片微控制器(一)\0515\5-11.c"
  36  0080  0F86        	mov a,134
  36  0081  0080     R  	mov _LCMWrite4_2[0],a
  36  0082  0F00        	mov a,0
  36  0083              	fcall _LCMWrite4
  36  008A  1F00     R  	clr _LCMWrite4_2[0]
  36  008B  0F01        	mov a,1
"File: 5-11.c        Assembler  Version HGASM0202      Page 12

  36  008C              	fcall _LCMWrite4
  37  0093              #line 37 "C:\Users\YVTC\Desktop\單晶片微控制器(一)\0515\5-11.c"
  37  0093  0FC6        	mov a,198
  37  0094  0080     R  	mov _LCMWrite4_2[0],a
  37  0095  0F00        	mov a,0
  37  0096              	fcall _LCMWrite4
  37  009D  0F01        	mov a,1
  37  009E  0080     R  	mov _LCMWrite4_2[0],a
  37  009F  0F01        	mov a,1
  37  00A0              	fcall _LCMWrite4
  38  00A7              #line 38 "C:\Users\YVTC\Desktop\單晶片微控制器(一)\0515\5-11.c"
  38  00A7  0F87        	mov a,135
  38  00A8  0080     R  	mov _main_2[0],a
  38  00A9              _L18:
  39  00A9              #line 39 "C:\Users\YVTC\Desktop\單晶片微控制器(一)\0515\5-11.c"
  39  00A9  3BA2        	snz [34].7
  39  00AA  2800     R  	jmp _L35
  40  00AB              #line 40 "C:\Users\YVTC\Desktop\單晶片微控制器(一)\0515\5-11.c"
  40  00AB  3F22        	sz [34].6
  40  00AC  2800     R  	jmp _L19
  40  00AD  0F87        	mov a,135
  40  00AE  0080     R  	mov _main_2[0],a
  40  00AF              _L19:
  41  00AF              #line 41 "C:\Users\YVTC\Desktop\單晶片微控制器(一)\0515\5-11.c"
  41  00AF  3EA2        	sz [34].5
  41  00B0  2800     R  	jmp _L20
  41  00B1  0FC7        	mov a,199
  41  00B2  0080     R  	mov _main_2[0],a
  41  00B3              _L20:
  42  00B3              #line 42 "C:\Users\YVTC\Desktop\單晶片微控制器(一)\0515\5-11.c"
  42  00B3  0700     R  	mov a,_main_2[0]
  42  00B4  0080     R  	mov _LCMWrite4_2[0],a
  42  00B5  0F00        	mov a,0
  42  00B6              	fcall _LCMWrite4
  42  00BD  0F05        	mov a,5
  42  00BE              	fcall _PAUSE
  42  00C5  2800     R  	jmp _L18
  42  00C6              _L35:
  44  00C6              #line 44 "C:\Users\YVTC\Desktop\單晶片微控制器(一)\0515\5-11.c"
  44  00C6  0F05        	mov a,5
  44  00C7              	fcall _PAUSE
  44  00CE              _L23:
  44  00CE  3BA2        	snz [34].7
  44  00CF  2800     R  	jmp _L23
  45  00D0              #line 45 "C:\Users\YVTC\Desktop\單晶片微控制器(一)\0515\5-11.c"
  45  00D0  0753        	mov a,[83]
  45  00D1  0454        	xor a,[84]
  45  00D2  0080     R  	mov _main_2[3],a
  46  00D3              #line 46 "C:\Users\YVTC\Desktop\單晶片微控制器(一)\0515\5-11.c"
  46  00D3  0700     R  	mov a,_main_2[3]
  46  00D4              	fcall _Hex2ASCII
  47  00DB              #line 47 "C:\Users\YVTC\Desktop\單晶片微控制器(一)\0515\5-11.c"
  47  00DB  0FC2        	mov a,194
  47  00DC  0080     R  	mov _LCMWrite4_2[0],a
  47  00DD  0F00        	mov a,0
  47  00DE              	fcall _LCMWrite4
  47  00E5  0F03        	mov a,3
  47  00E6  0080     R  	mov _main_2[1],a
  48  00E7              #line 48 "C:\Users\YVTC\Desktop\單晶片微控制器(一)\0515\5-11.c"
  48  00E7  0F02        	mov a,2
"File: 5-11.c        Assembler  Version HGASM0202      Page 13

  48  00E8  0080     R  	mov _main_2[4],a
  48  00E9              _L25:
  48  00E9  0700     R  	mov a,_main_2[4]
  48  00EA  0080     E  	mov rb,a
  48  00EB  1F00     E  	clr rc
  48  00EC  3F85        	sz acc.7
  48  00ED  1F80     E  	set rc
  48  00EE  0F00     R  	mov a,low offset _Digit
  48  00EF  0300     E  	add a,rb
  48  00F0  0083        	mov mp,a
  48  00F1  0F00     R  	mov a,high offset _Digit
  48  00F2  1300     E  	adc a,rc
  48  00F3  0084        	mov sbp,a
  48  00F4              	fcall _Crom2Prom
  48  00FB  0080     R  	mov _LCMWrite4_2[0],a
  48  00FC  0F01        	mov a,1
  48  00FD              	fcall _LCMWrite4
  48  0104  1580     R  	dec _main_2[4]
  48  0105  1780     R  	sdz _main_2[1]
  48  0106  2800     R  	jmp _L25
  50  0107              #line 50 "C:\Users\YVTC\Desktop\單晶片微控制器(一)\0515\5-11.c"
  50  0107  0700     R  	mov a,_main_2[3]
  50  0108  0200     R  	sub a,_main_2[2]
  50  0109  3C0A        	sz c
  50  010A  2800     R  	jmp _L26
  50  010B  3C00     R  	sz _main_2[0].6
  50  010C  2800     R  	jmp _L26
  50  010D              _L29:
  51  010D              #line 51 "C:\Users\YVTC\Desktop\單晶片微控制器(一)\0515\5-11.c"
  51  010D  0FC9        	mov a,201
  51  010E  0080     R  	mov _LCMWrite4_2[0],a
  51  010F  0F00        	mov a,0
  51  0110              	fcall _LCMWrite4
  52  0117              #line 52 "C:\Users\YVTC\Desktop\單晶片微控制器(一)\0515\5-11.c"
  52  0117  0F00     R  	mov a,low offset _String2
  52  0118  0080     R  	mov _LCMPrint_2[0],a
  52  0119  0F00     R  	mov a,high offset _String2
  52  011A  0080     R  	mov _LCMPrint_2[1],a
  52  011B  2800     R  	jmp _L34
  52  011C              _L26:
  54  011C              #line 54 "C:\Users\YVTC\Desktop\單晶片微控制器(一)\0515\5-11.c"
  54  011C  0700     R  	mov a,_main_2[2]
  54  011D  0200     R  	sub a,_main_2[3]
  54  011E  3C0A        	sz c
  54  011F  2800     R  	jmp _L28
  54  0120  3C00     R  	sz _main_2[0].6
  54  0121  2800     R  	jmp _L29
  54  0122              _L28:
  59  0122              #line 59 "C:\Users\YVTC\Desktop\單晶片微控制器(一)\0515\5-11.c"
  59  0122  0F89        	mov a,137
  59  0123  0080     R  	mov _LCMWrite4_2[0],a
  59  0124  0F00        	mov a,0
  59  0125              	fcall _LCMWrite4
  60  012C              #line 60 "C:\Users\YVTC\Desktop\單晶片微控制器(一)\0515\5-11.c"
  60  012C  0F00     R  	mov a,low offset _String1
  60  012D  0080     R  	mov _LCMPrint_2[0],a
  60  012E  0F00     R  	mov a,high offset _String1
  60  012F  0080     R  	mov _LCMPrint_2[1],a
  60  0130              _L34:
  60  0130              	fcall _LCMPrint
"File: 5-11.c        Assembler  Version HGASM0202      Page 14

  62  0137              #line 62 "C:\Users\YVTC\Desktop\單晶片微控制器(一)\0515\5-11.c"
  62  0137  0FFA        	mov a,250
  62  0138              	fcall _PAUSE
  63  013F              #line 63 "C:\Users\YVTC\Desktop\單晶片微控制器(一)\0515\5-11.c"
  63  013F  2800     R  	jmp _L30
  63  0140  2800     R  	jmp $
  63  0141              _main endp
  63  0141              
  63  0141              @dummy endp
  63  0141              
  63  0141              #line 63 "C:\Users\YVTC\Desktop\單晶片微控制器(一)\0515\5-11.c"
  63  0141              #pragma debug scope 1 1
  12  0141              #line 12 "C:\Users\YVTC\Desktop\單晶片微控制器(一)\0515\5-11.c"
  12  0141              public _Digit
  12  0000              @HCCINIT0_Digit .section 'data'
  12  0000  0003[       _Digit	db 3 dup(0)
            00
            ]
  12  0003              #pragma debug array 43 8 3 1
  12  0003              #pragma debug array 43 8 3 1
  12  0003              #pragma debug variable 43 1 _Digit "Digit"
  12  0003              
  12  0000              @HCCINIT .section 'data'
  12  0000              public _String2
  12  0000              @crom	.section 'crom'
  11  0000              #line 11 "C:\Users\YVTC\Desktop\單晶片微控制器(一)\0515\5-11.c"
  11  0000              @crom	.section	'crom'
  11  0000              _String2:
  11  0000              #pragma debug array 44 8 7 1
  11  0000              #pragma debug array 44 8 7 1
  11  0000              #pragma debug variable 44 1 _String2 "String2"
  11  0000              	db 042h,049h,04eh,047h,04fh,021h,00h
  11  0004              public _String1
  10  0004              #line 10 "C:\Users\YVTC\Desktop\單晶片微控制器(一)\0515\5-11.c"
  10  0004              @crom	.section	'crom'
  10  0004              _String1:
  10  0004              #pragma debug array 45 8 6 1
  10  0004              #pragma debug array 45 8 6 1
  10  0004              #pragma debug variable 45 1 _String1 "String1"
  10  0004              	db 04dh,049h,053h,053h,021h,00h
  10  0007              public _TAB_CGRAM
   7  0007              #line 7 "C:\Users\YVTC\Desktop\單晶片微控制器(一)\0515\5-11.c"
   7  0007              @crom	.section	'crom'
   7  0007              _TAB_CGRAM:
   7  0007              #pragma debug array 46 8 16 1
   7  0007              #pragma debug array 46 8 16 1
   7  0007              #pragma debug variable 46 1 _TAB_CGRAM "TAB_CGRAM"
   7  0007              	db 0
   7  0007              	db 4
   7  0008              	db 4
   7  0008              	db 21
   7  0009              	db 21
   7  0009              	db 4
   7  000A              	db 12
   7  000A              	db 0
   7  000B              	db 0
   7  000B              	db 4
   7  000C              	db 4
   7  000C              	db 31
   7  000D              	db 4
"File: 5-11.c        Assembler  Version HGASM0202      Page 15

   7  000D              	db 10
   7  000E              	db 17
   7  000E              	db 0
   7  000F              #pragma debug struct_end
   7  000F              #pragma debug struct_end
   7  000F              #pragma debug union_end
   7  000F              #pragma debug union_end
   7  000F              #pragma debug variable 48 1 ___pepu "__pepu" 1
   7  000F              #pragma debug struct_end
   7  000F              #pragma debug struct_end
   7  000F              #pragma debug union_end
   7  000F              #pragma debug union_end
   7  000F              #pragma debug variable 50 1 ___pe "__pe" 1
   7  000F              #pragma debug struct_end
   7  000F              #pragma debug struct_end
   7  000F              #pragma debug union_end
   7  000F              #pragma debug union_end
   7  000F              #pragma debug variable 52 1 ___pec "__pec" 1
   7  000F              #pragma debug struct_end
   7  000F              #pragma debug struct_end
   7  000F              #pragma debug union_end
   7  000F              #pragma debug union_end
   7  000F              #pragma debug variable 54 1 ___pg "__pg" 1
   7  000F              #pragma debug struct_end
   7  000F              #pragma debug struct_end
   7  000F              #pragma debug union_end
   7  000F              #pragma debug union_end
   7  000F              #pragma debug variable 56 1 ___pgc "__pgc" 1
   7  000F              #pragma debug struct_end
   7  000F              #pragma debug struct_end
   7  000F              #pragma debug union_end
   7  000F              #pragma debug union_end
   7  000F              #pragma debug variable 58 1 ___ph "__ph" 1
   7  000F              #pragma debug struct_end
   7  000F              #pragma debug struct_end
   7  000F              #pragma debug union_end
   7  000F              #pragma debug union_end
   7  000F              #pragma debug variable 60 1 ___phc "__phc" 1
   7  000F              #pragma debug struct_end
   7  000F              #pragma debug struct_end
   7  000F              #pragma debug union_end
   7  000F              #pragma debug union_end
   7  000F              #pragma debug variable 62 1 ___wdtc "__wdtc" 1
   7  000F              #pragma debug struct_end
   7  000F              #pragma debug struct_end
   7  000F              #pragma debug union_end
   7  000F              #pragma debug union_end
   7  000F              #pragma debug variable 64 1 ___tm2c0 "__tm2c0" 1
   7  000F              #pragma debug struct_end
   7  000F              #pragma debug struct_end
   7  000F              #pragma debug union_end
   7  000F              #pragma debug union_end
   7  000F              #pragma debug variable 66 1 ___tm2c1 "__tm2c1" 1
   7  000F              #pragma debug variable 8 1 ___tm2dl "__tm2dl" 1
   7  000F              #pragma debug variable 8 1 ___tm2dh "__tm2dh" 1
   7  000F              #pragma debug variable 8 1 ___tm2rp "__tm2rp" 1
  19  000F              #line 19 "C:\Users\YVTC\Desktop\單晶片微控制器(一)\0515\5-11.c"
  19  0000              @code .section at 0 'code'
  19  0000  1F0B        	clr bp
  19  0001  2800     R  	jmp _main_startup1
"File: 5-11.c        Assembler  Version HGASM0202      Page 16

  19  0002              
  19  0002              extern _builtin_holtek_udivmodqi4_2:byte
  19  0002              extern _builtin_holtek_udivmodqi4:near
  19  0002              
  19  0002              ; 
  19  0002              ; Generated by holtek-gcc v3.18, Tue May 15 11:10:37 2018
  19  0002              ; Rebuild 126
  19  0002              ; end of file


        0 Errors, 0