"File: 5-13.c        Assembler  Version HGASM0202      Page 1


   1  0000              ; Generated by holtek-gcc v3.18, Tue May 15 14:39:33 2018
   2  0000              ; 
   3  0000              ; Configuration:
   4  0000              ;       with long instruction
   5  0000              ;       Multi-ROM, Multi-RAM
   6  0000              ;       bits_per_rom_unit:16
   7  0000              ;       with mp1
   8  0000              ;       with tbhp, address(0x9)
   9  0000              ;          Use tabrd-const
  10  0000              ;       
  11  0000              ; SFR address of long-instruction arch:
  12  0000              ;    mp0 = -1,1,0
  13  0000              ;    mp1 = 4,3,2
  14  0000              ;    mp2 = 14,13,12
  15  0000              ;    tbp = 9,7,8
  16  0000              ;    acc = 5
  17  0000              ;    pcl = 6
  18  0000              ;    status = 10
  19  0000              ;    bp = 11
  20  0000              ;    intc = 48
  21  0000              ;       
  22  0000              ;       
  23  0000              ; use 'tabrdc' instead of 'tabrd'
  24  0000              ;       
  25  0000              
  26  0000              #pragma translator "holtek-gcc 4.6.4" "3.18" "build 20130711"
  27  0000              ; Rebuild 126
  28  0000              
  29  0000              ir equ [2]
  30  0000              mp equ [3]
  31  0000              sbp equ [4]
  32  0000              acc equ [5]
  33  0000              bp equ [11]
  34  0000              tblp equ [7]
  35  0000              tbhp equ [9]
  36  0000              status equ [10]
  37  0000              c equ [10].0
  38  0000              ac equ [10].1
  39  0000              z equ [10].2
  40  0000              ov equ [10].3
  41  0000              cz equ [10].6
  42  0000              sc equ [10].7
  43  0000              intc equ [48]
  44  0000              
  45  0000              extern ra:byte
  46  0000              extern rb:byte
  47  0000              extern rc:byte
  48  0000              extern rd:byte
  49  0000              extern re:byte
  50  0000              extern rf:byte
  51  0000              extern rg:byte
  52  0000              extern rh:byte
  53  0000              extern _Crom2Prom:near
  54  0000              extern _Crom2PromNext:near
  55  0000              
  56  0000              RAMBANK 0 @BITDATASEC, @BITDATASEC1
  57  0000              @HCCINIT	.section 'data'
  58  0000              @HCCINIT0	.section 'data'
  59  0000              @BITDATASEC	 .section 'data'
"File: 5-13.ASM      Assembler  Version HGASM0202      Page 2

  60  0000              @BITDATASEC1	 .section 'data'
  61  0000              
  62  0000              #pragma debug scope 1 1
  63  0000              	extern __DELAY3:near
  64  0000              	extern __DELAYX3:near
  65  0000              	extern __DELAYX6:near
  66  0000              	extern __DELAYY5:near
  67  0000              	extern __DELAYY3:near
  68  0000              	extern _builtin_holtek_delay_2:byte
  69  0000              ___mfi0 equ [52]
  70  0000              ___tm2c0 equ [81]
  71  0000              ___tm1c0 equ [72]
  72  0000              ___tm2ah equ [86]
  73  0000              ___tm2al equ [85]
  74  0000              public _Measure
  75  0000              #pragma debug scope 2 1

  70  0000              #line 70 "C:\Users\YVTC\Desktop\單晶片微控制器(一)\0515\5-13.c"
  70  0000              _Measure .section 'code'
  70  0000              _Measure proc
  70  0000              _L5:
  72  0000              #line 72 "C:\Users\YVTC\Desktop\單晶片微控制器(一)\0515\5-13.c"
  72  0000  3734        	clr [52].6
  72  0001  37B4        	clr [52].7
  72  0002  31D1        	set [81].3
  72  0003  31C8        	set [72].3
  72  0004              _L3:
  73  0004              #line 73 "C:\Users\YVTC\Desktop\單晶片微控制器(一)\0515\5-13.c"
  73  0004  3BB4        	snz [52].7
  73  0005  2800     R  	jmp _L3
  74  0006              #line 74 "C:\Users\YVTC\Desktop\單晶片微控制器(一)\0515\5-13.c"
  74  0006  3F34        	sz [52].6
  74  0007  2800     R  	jmp _L5
  75  0008              #line 75 "C:\Users\YVTC\Desktop\單晶片微控制器(一)\0515\5-13.c"
  75  0008  0756        	mov a,[86]
  75  0009  0080     E  	mov ra,a
  75  000A  0755        	mov a,[85]
  75  000B  0080     E  	mov rf,a
  75  000C  1F00     E  	clr rg
  76  000D              #line 76 "C:\Users\YVTC\Desktop\單晶片微控制器(一)\0515\5-13.c"
  76  000D  37B4        	clr [52].7
  76  000E              _L7:
  77  000E              #line 77 "C:\Users\YVTC\Desktop\單晶片微控制器(一)\0515\5-13.c"
  77  000E  3BB4        	snz [52].7
  77  000F  2800     R  	jmp _L7
  78  0010              #line 78 "C:\Users\YVTC\Desktop\單晶片微控制器(一)\0515\5-13.c"
  78  0010  0756        	mov a,[86]
  78  0011  0080     E  	mov rc,a
  78  0012  1F00     E  	clr rb
  79  0013              #line 79 "C:\Users\YVTC\Desktop\單晶片微控制器(一)\0515\5-13.c"
  79  0013  0755        	mov a,[85]
  79  0014  0580     E  	orm a,rb
  80  0015              #line 80 "C:\Users\YVTC\Desktop\單晶片微控制器(一)\0515\5-13.c"
  80  0015  0700     E  	mov a,ra
  80  0016  0080     E  	mov re,a
  80  0017  1F00     E  	clr rd
  82  0018              #line 82 "C:\Users\YVTC\Desktop\單晶片微控制器(一)\0515\5-13.c"
  82  0018  35D1        	clr [81].3
  82  0019  35C8        	clr [72].3
  80  001A              #line 80 "C:\Users\YVTC\Desktop\單晶片微控制器(一)\0515\5-13.c"
"File: 5-13.c        Assembler  Version HGASM0202      Page 3

  80  001A  0700     E  	mov a,rg
  80  001B  0580     E  	orm a,re
  80  001C  0700     E  	mov a,rf
  80  001D  0580     E  	orm a,rd
  81  001E              #line 81 "C:\Users\YVTC\Desktop\單晶片微控制器(一)\0515\5-13.c"
  81  001E  0700     E  	mov a,rb
  81  001F  0200     E  	sub a,rd
  81  0020  0080     E  	mov rb,a
  81  0021  0700     E  	mov a,rc
  81  0022  1200     E  	sbc a,re
  81  0023  0080     E  	mov rc,a
  84  0024              #line 84 "C:\Users\YVTC\Desktop\單晶片微控制器(一)\0515\5-13.c"
  84  0024  0700     E  	mov a,rb
  84  0025  0080     E  	mov ra,a
  84  0026  0700     E  	mov a,rc
  84  0027  0080     E  	mov rb,a
  84  0028  340A        	clr c
  84  0029  1B80     E  	rrc rb
  84  002A  1B80     E  	rrc ra
  84  002B  0003        	ret
  84  002C              _Measure endp
  84  002C              #line 84 "C:\Users\YVTC\Desktop\單晶片微控制器(一)\0515\5-13.c"
  84  002C              #pragma debug scope 1 1
  84  002C              public _WordHex2ASCII
  84  002C              #pragma debug scope 3 1
  86  002C              #line 86 "C:\Users\YVTC\Desktop\單晶片微控制器(一)\0515\5-13.c"
  86  0000              _WordHex2ASCII .section 'code'
  86  0000              _WordHex2ASCII proc
  86  0000              public _WordHex2ASCII_2
  86  0000  0006[           local _WordHex2ASCII_2 db 6 dup(?)	; 4,2
            00
            ]
  86  0006              #pragma debug variable 10 3 _WordHex2ASCII_2+0 "WordHex"
  86  0006              #pragma debug pointer 42 8 3
  86  0006              #pragma debug pointer 42 8 3
  86  0006              #pragma debug variable 42 3 _WordHex2ASCII_2+2 "ptr"
  86  0000  0FFC        	mov a,252
  86  0001  0300     R  	add a,_WordHex2ASCII_2[2]
  86  0002  0080     E  	mov rf,a
  86  0003  0FFF        	mov a,255
  86  0004  1300     R  	adc a,_WordHex2ASCII_2[3]
  86  0005  0080     E  	mov rg,a
  86  0006  0700     R  	mov a,_WordHex2ASCII_2[2]
  86  0007  0080     E  	mov rb,a
  86  0008  0700     R  	mov a,_WordHex2ASCII_2[3]
  86  0009  0080     E  	mov rc,a
  86  000A  0F10        	mov a,16
  86  000B  0080     E  	mov rd,a
  86  000C  0F27        	mov a,39
  86  000D  0080     E  	mov re,a
  86  000E              _L11:
  88  000E              #line 88 "C:\Users\YVTC\Desktop\單晶片微控制器(一)\0515\5-13.c"
  88  000E  1F00     E  	clr _builtin_holtek_udivmodhi4_2[6]
  88  000F  0700     R  	mov a,_WordHex2ASCII_2[0]  
  88  0010  0080     E  	mov _builtin_holtek_udivmodhi4_2[0],a  
  88  0011  0700     R  	mov a,_WordHex2ASCII_2[1]  
  88  0012  0080     E  	mov _builtin_holtek_udivmodhi4_2[1],a
  88  0013  0700     E  	mov a,rd  
  88  0014  0080     E  	mov _builtin_holtek_udivmodhi4_2[2],a  
  88  0015  0700     E  	mov a,re  
"File: 5-13.c        Assembler  Version HGASM0202      Page 4

  88  0016  0080     E  	mov _builtin_holtek_udivmodhi4_2[3],a
  88  0017              	fcall _builtin_holtek_udivmodhi4
  88  001E  0700     E  	mov a,_builtin_holtek_udivmodhi4_2[0]  
  88  001F  0080     R  	mov _WordHex2ASCII_2[4],a  
  88  0020  0700     E  	mov a,_builtin_holtek_udivmodhi4_2[1]  
  88  0021  0080     R  	mov _WordHex2ASCII_2[5],a
  88  0022  0700     R  	mov a,_WordHex2ASCII_2[4]
  88  0023  0B30        	add a,48
  88  0024  0080     E  	mov ra,a
  88  0025  0700     E  	mov a,rb
  88  0026  0083        	mov mp,a
  88  0027  0700     E  	mov a,rc
  88  0028  0084        	mov sbp,a
  88  0029  0700     E  	mov a,ra
  88  002A  0082        	mov ir,a
  89  002B              #line 89 "C:\Users\YVTC\Desktop\單晶片微控制器(一)\0515\5-13.c"
  89  002B  1F00     E  	clr _builtin_holtek_udivmodhi4_2[6]
  89  002C  0700     R  	mov a,_WordHex2ASCII_2[0]  
  89  002D  0080     E  	mov _builtin_holtek_udivmodhi4_2[0],a  
  89  002E  0700     R  	mov a,_WordHex2ASCII_2[1]  
  89  002F  0080     E  	mov _builtin_holtek_udivmodhi4_2[1],a
  89  0030  0700     E  	mov a,rd  
  89  0031  0080     E  	mov _builtin_holtek_udivmodhi4_2[2],a  
  89  0032  0700     E  	mov a,re  
  89  0033  0080     E  	mov _builtin_holtek_udivmodhi4_2[3],a
  89  0034              	fcall _builtin_holtek_udivmodhi4
  89  003B  0700     E  	mov a,_builtin_holtek_udivmodhi4_2[4]  
  89  003C  0080     R  	mov _WordHex2ASCII_2[0],a  
  89  003D  0700     E  	mov a,_builtin_holtek_udivmodhi4_2[5]  
  89  003E  0080     R  	mov _WordHex2ASCII_2[1],a
  90  003F              #line 90 "C:\Users\YVTC\Desktop\單晶片微控制器(一)\0515\5-13.c"
  90  003F  1F00     E  	clr _builtin_holtek_udivmodhi4_2[6]
  90  0040  0700     E  	mov a,rd  
  90  0041  0080     E  	mov _builtin_holtek_udivmodhi4_2[0],a  
  90  0042  0700     E  	mov a,re  
  90  0043  0080     E  	mov _builtin_holtek_udivmodhi4_2[1],a
  90  0044  0F0A        	mov a,10  
  90  0045  0080     E  	mov _builtin_holtek_udivmodhi4_2[2],a  
  90  0046  1F00     E  	clr _builtin_holtek_udivmodhi4_2[3]
  90  0047              	fcall _builtin_holtek_udivmodhi4
  90  004E  0700     E  	mov a,_builtin_holtek_udivmodhi4_2[0]  
  90  004F  0080     E  	mov rd,a  
  90  0050  0700     E  	mov a,_builtin_holtek_udivmodhi4_2[1]  
  90  0051  0080     E  	mov re,a
  90  0052  0FFF        	mov a,255
  90  0053  0380     E  	addm a,rb
  90  0054  0FFF        	mov a,255
  90  0055  1380     E  	adcm a,rc
  87  0056              #line 87 "C:\Users\YVTC\Desktop\單晶片微控制器(一)\0515\5-13.c"
  87  0056  0700     E  	mov a,rb
  87  0057  0200     E  	sub a,rf
  87  0058  0700     E  	mov a,rc
  87  0059  1200     E  	sbc a,rg
  87  005A  3B0A        	snz cz
  87  005B  2800     R  	jmp _L11
  92  005C              #line 92 "C:\Users\YVTC\Desktop\單晶片微控制器(一)\0515\5-13.c"
  92  005C  0700     R  	mov a,_WordHex2ASCII_2[0]
  92  005D  0B30        	add a,48
  92  005E  0080     E  	mov ra,a
  92  005F  0FFC        	mov a,252
"File: 5-13.c        Assembler  Version HGASM0202      Page 5

  92  0060  0300     R  	add a,_WordHex2ASCII_2[2]
  92  0061  0083        	mov mp,a
  92  0062  0FFF        	mov a,255
  92  0063  1300     R  	adc a,_WordHex2ASCII_2[3]
  92  0064  0084        	mov sbp,a
  92  0065  0700     E  	mov a,ra
  92  0066  0082        	mov ir,a
  92  0067  0003        	ret
  92  0068              _WordHex2ASCII endp
  92  0068              #line 92 "C:\Users\YVTC\Desktop\單晶片微控制器(一)\0515\5-13.c"
  92  0068              #pragma debug scope 1 1
  92  0068              ___pgc equ [43]
  92  0068              ___ph equ [46]
  92  0068              ___pg equ [42]
  92  0068              public _LCMWrite
  92  0068              #pragma debug scope 4 1
 112  0068              #line 112 "C:\Users\YVTC\Desktop\單晶片微控制器(一)\0515\5-13.c"
 112  0000              _LCMWrite .section 'code'
 112  0000              _LCMWrite proc
 112  0000              public _LCMWrite_2
 112  0000  0002[           local _LCMWrite_2 db 2 dup(?)	; 1,1
            00
            ]
 112  0000  0080     R  	mov _LCMWrite_2[1],a
 112  0001              #pragma debug variable 8 4 _LCMWrite_2+1 "DCFlag"
 112  0001              #pragma debug variable 8 4 _LCMWrite_2+0 "CD"
 113  0001              #line 113 "C:\Users\YVTC\Desktop\單晶片微控制器(一)\0515\5-13.c"
 113  0001  1FAB        	set [43]
 114  0002              #line 114 "C:\Users\YVTC\Desktop\單晶片微控制器(一)\0515\5-13.c"
 114  0002  342E        	clr [46].0
 114  0003  30AE        	set [46].1
 115  0004              #line 115 "C:\Users\YVTC\Desktop\單晶片微控制器(一)\0515\5-13.c"
 115  0004              ;# 115 "C:\Users\YVTC\Desktop\單晶片微控制器(一)\0515\5-13.c" 1
 115  0004  0000        	nop
 115  0005              _L14:
 117  0005              #line 117 "C:\Users\YVTC\Desktop\單晶片微控制器(一)\0515\5-13.c"
 117  0005  312E        	set [46].2
 117  0006              ;# 117 "C:\Users\YVTC\Desktop\單晶片微控制器(一)\0515\5-13.c" 1
 117  0006  0000        	nop
 118  0007              #line 118 "C:\Users\YVTC\Desktop\單晶片微控制器(一)\0515\5-13.c"
 118  0007  072A        	mov a,[42]
 118  0008  0080     E  	mov ra,a
 119  0009              #line 119 "C:\Users\YVTC\Desktop\單晶片微控制器(一)\0515\5-13.c"
 119  0009  352E        	clr [46].2
 120  000A              #line 120 "C:\Users\YVTC\Desktop\單晶片微控制器(一)\0515\5-13.c"
 120  000A  3C00     E  	sz ra.7
 120  000B  2800     R  	jmp _L14
 121  000C              #line 121 "C:\Users\YVTC\Desktop\單晶片微控制器(一)\0515\5-13.c"
 121  000C  1F2B        	clr [43]
 122  000D              #line 122 "C:\Users\YVTC\Desktop\單晶片微控制器(一)\0515\5-13.c"
 122  000D  34AE        	clr [46].1
 123  000E              #line 123 "C:\Users\YVTC\Desktop\單晶片微控制器(一)\0515\5-13.c"
 123  000E  0700     R  	mov a,_LCMWrite_2[1]
 123  000F  0E01        	and a,1
 123  0010  0080     E  	mov rb,a
 123  0011  342E        	clr [46].0
 123  0012  0700     E  	mov a,rb
 123  0013  05AE        	orm a,[46]
 124  0014              #line 124 "C:\Users\YVTC\Desktop\單晶片微控制器(一)\0515\5-13.c"
 124  0014  0700     R  	mov a,_LCMWrite_2[0]
"File: 5-13.c        Assembler  Version HGASM0202      Page 6

 124  0015  00AA        	mov [42],a
 125  0016              #line 125 "C:\Users\YVTC\Desktop\單晶片微控制器(一)\0515\5-13.c"
 125  0016  312E        	set [46].2
 125  0017              ;# 125 "C:\Users\YVTC\Desktop\單晶片微控制器(一)\0515\5-13.c" 1
 125  0017  0000        	nop
 125  0018  352E        	clr [46].2
 127  0019              #line 127 "C:\Users\YVTC\Desktop\單晶片微控制器(一)\0515\5-13.c"
 127  0019  0700     E  	mov a,ra
 127  001A  0003        	ret
 127  001B              _LCMWrite endp
 127  001B              #line 127 "C:\Users\YVTC\Desktop\單晶片微控制器(一)\0515\5-13.c"
 127  001B              #pragma debug scope 1 1
 127  001B              public _DisplayDigit
 127  001B              #pragma debug scope 5 1
  60  001B              #line 60 "C:\Users\YVTC\Desktop\單晶片微控制器(一)\0515\5-13.c"
  60  0000              _DisplayDigit .section 'code'
  60  0000              _DisplayDigit proc
  60  0000              public _DisplayDigit_2
  60  0000  0004[           local _DisplayDigit_2 db 4 dup(?)	; 2,2
            00
            ]
  60  0004              #pragma debug pointer 43 8 5
  60  0004              #pragma debug pointer 43 8 5
  60  0004              #pragma debug variable 43 5 _DisplayDigit_2+0 "ptr"
  60  0004              #pragma debug variable 8 5 _DisplayDigit_2+3 "LeadingZero"
  60  0000  0F04        	mov a,4
  60  0001  0080     R  	mov _DisplayDigit_2[2],a
  60  0002  0F01        	mov a,1
  60  0003  0080     R  	mov _DisplayDigit_2[3],a
  60  0004              _L19:
  60  0004  0700     R  	mov a,_DisplayDigit_2[0]
  60  0005  0080     E  	mov rb,a
  60  0006  0700     R  	mov a,_DisplayDigit_2[1]
  60  0007  0080     E  	mov rc,a
  62  0008              #line 62 "C:\Users\YVTC\Desktop\單晶片微控制器(一)\0515\5-13.c"
  62  0008  1E00     R  	snz _DisplayDigit_2[3]
  62  0009  2800     R  	jmp _L16
  62  000A  0700     E  	mov a,rb
  62  000B  0083        	mov mp,a
  62  000C  0700     E  	mov a,rc
  62  000D  0084        	mov sbp,a
  62  000E              	fcall _Crom2Prom
  62  0015  0080     E  	mov ra,a
  62  0016  0700     E  	mov a,ra
  62  0017  0A30        	sub a,48
  62  0018  390A        	snz z
  62  0019  2800     R  	jmp _L16
  63  001A              #line 63 "C:\Users\YVTC\Desktop\單晶片微控制器(一)\0515\5-13.c"
  63  001A  0F20        	mov a,32
  63  001B  0080     R  	mov _LCMWrite_2[0],a
  63  001C  0F01        	mov a,1
  63  001D              	fcall _LCMWrite
  63  0024  2800     R  	jmp _L17
  63  0025              _L16:
  65  0025              #line 65 "C:\Users\YVTC\Desktop\單晶片微控制器(一)\0515\5-13.c"
  65  0025  0700     E  	mov a,rb
  65  0026  0083        	mov mp,a
  65  0027  0700     E  	mov a,rc
  65  0028  0084        	mov sbp,a
  65  0029              	fcall _Crom2Prom
"File: 5-13.c        Assembler  Version HGASM0202      Page 7

  65  0030  0080     R  	mov _LCMWrite_2[0],a
  65  0031  0F01        	mov a,1
  65  0032              	fcall _LCMWrite
  65  0039  1F00     R  	clr _DisplayDigit_2[3]
  65  003A              _L17:
  66  003A              #line 66 "C:\Users\YVTC\Desktop\單晶片微控制器(一)\0515\5-13.c"
  66  003A  0FFF        	mov a,255
  66  003B  0380     R  	addm a,_DisplayDigit_2[0]
  66  003C  0FFF        	mov a,255
  66  003D  1380     R  	adcm a,_DisplayDigit_2[1]
  66  003E  1780     R  	sdz _DisplayDigit_2[2]
  66  003F  2800     R  	jmp _L19
  66  0040  0003        	ret
  66  0041              _DisplayDigit endp
  66  0041              #line 66 "C:\Users\YVTC\Desktop\單晶片微控制器(一)\0515\5-13.c"
  66  0041              #pragma debug scope 1 1
  66  0041              ___phc equ [47]
  66  0041              public _LCMInit
  66  0041              #pragma debug scope 6 1
  95  0041              #line 95 "C:\Users\YVTC\Desktop\單晶片微控制器(一)\0515\5-13.c"
  95  0000              _LCMInit .section 'code'
  95  0000              _LCMInit proc
  95  0000  00              local _LCMInit_2 db 1 dup(?)	; 0,1
  96  0001              #line 96 "C:\Users\YVTC\Desktop\單晶片微控制器(一)\0515\5-13.c"
  96  0000  352E        	clr [46].2
  96  0001  34AE        	clr [46].1
  96  0002  342E        	clr [46].0
  97  0003              #line 97 "C:\Users\YVTC\Desktop\單晶片微控制器(一)\0515\5-13.c"
  97  0003  352F        	clr [47].2
  97  0004  34AF        	clr [47].1
  97  0005  342F        	clr [47].0
  98  0006              #line 98 "C:\Users\YVTC\Desktop\單晶片微控制器(一)\0515\5-13.c"
  98  0006              ;# 98 "C:\Users\YVTC\Desktop\單晶片微控制器(一)\0515\5-13.c" 1
  98  0006              	IF 80000>263690
  98  0006              ;# 98 "C:\Users\YVTC\Desktop\單晶片微控制器(一)\0515\5-13.c" 1
  98  0006              	ERRMESSAGE 'the value 80000of the argument exceeds the maxinum 263690'
  98  0006              	ENDIF
  98  0006              ;# 98 "C:\Users\YVTC\Desktop\單晶片微控制器(一)\0515\5-13.c" 1
  98  0006              	IF 80000<0
  98  0006              ;# 98 "C:\Users\YVTC\Desktop\單晶片微控制器(一)\0515\5-13.c" 1
  98  0006              	ERRMESSAGE 'the value 80000 of the argument exceeds the mininum 0'
  98  0006              	ENDIF
  98  0006              ;# 98 "C:\Users\YVTC\Desktop\單晶片微控制器(一)\0515\5-13.c" 1
  98  0006              	IF 80000==0
  98  0006              ;# 98 "C:\Users\YVTC\Desktop\單晶片微控制器(一)\0515\5-13.c" 1
  98  0006              	JMP $
  98  0006              	ENDIF
  98  0006              ;# 98 "C:\Users\YVTC\Desktop\單晶片微控制器(一)\0515\5-13.c" 1
  98  0006              	IF (80000>=1) AND (80000<( 4 + __PBP__ * 2))
  98  0006              ;# 98 "C:\Users\YVTC\Desktop\單晶片微控制器(一)\0515\5-13.c" 1
  98  0006              	NOP
  98  0006              	ENDIF
  98  0006              ;# 98 "C:\Users\YVTC\Desktop\單晶片微控制器(一)\0515\5-13.c" 1
  98  0006              	IF (80000>=2) AND (80000<( 4 + __PBP__ * 2))
  98  0006              ;# 98 "C:\Users\YVTC\Desktop\單晶片微控制器(一)\0515\5-13.c" 1
  98  0006              	NOP
  98  0006              	ENDIF
  98  0006              ;# 98 "C:\Users\YVTC\Desktop\單晶片微控制器(一)\0515\5-13.c" 1
  98  0006              	IF (80000>=3) AND (80000<( 4 + __PBP__ * 2))
  98  0006              ;# 98 "C:\Users\YVTC\Desktop\單晶片微控制器(一)\0515\5-13.c" 1
"File: 5-13.c        Assembler  Version HGASM0202      Page 8

  98  0006              	NOP
  98  0006              	ENDIF
  98  0006              ;# 98 "C:\Users\YVTC\Desktop\單晶片微控制器(一)\0515\5-13.c" 1
  98  0006              	IF (80000>=4) AND (80000<( 4 + __PBP__ * 2)) AND ( __PBP__ > 0 )
  98  0006              ;# 98 "C:\Users\YVTC\Desktop\單晶片微控制器(一)\0515\5-13.c" 1
  98  0006              	NOP
  98  0006              	ENDIF
  98  0006              ;# 98 "C:\Users\YVTC\Desktop\單晶片微控制器(一)\0515\5-13.c" 1
  98  0006              	IF (80000>=5) AND (80000<( 4 + __PBP__ * 2)) AND ( __PBP__ > 0 )
  98  0006              ;# 98 "C:\Users\YVTC\Desktop\單晶片微控制器(一)\0515\5-13.c" 1
  98  0006              	NOP
  98  0006              	ENDIF
  98  0006              ;# 98 "C:\Users\YVTC\Desktop\單晶片微控制器(一)\0515\5-13.c" 1
  98  0006              	IF (80000>=6) AND (80000<( 4 + __PBP__ * 2))  AND ( __PBP__ > 1 )
  98  0006              ;# 98 "C:\Users\YVTC\Desktop\單晶片微控制器(一)\0515\5-13.c" 1
  98  0006              	NOP
  98  0006              	ENDIF
  98  0006              ;# 98 "C:\Users\YVTC\Desktop\單晶片微控制器(一)\0515\5-13.c" 1
  98  0006              	IF (80000>=7) AND (80000<( 4 + __PBP__ * 2))  AND ( __PBP__ > 1 )
  98  0006              ;# 98 "C:\Users\YVTC\Desktop\單晶片微控制器(一)\0515\5-13.c" 1
  98  0006              	NOP
  98  0006              	ENDIF
  98  0006              ;# 98 "C:\Users\YVTC\Desktop\單晶片微控制器(一)\0515\5-13.c" 1
  98  0006              	IF (80000>=8) AND (80000<( 4 + __PBP__ * 2))  AND ( __PBP__ > 2 )
  98  0006              ;# 98 "C:\Users\YVTC\Desktop\單晶片微控制器(一)\0515\5-13.c" 1
  98  0006              	NOP
  98  0006              	ENDIF
  98  0006              ;# 98 "C:\Users\YVTC\Desktop\單晶片微控制器(一)\0515\5-13.c" 1
  98  0006              	IF (80000==9)  AND ( __PBP__ > 2 )
  98  0006              ;# 98 "C:\Users\YVTC\Desktop\單晶片微控制器(一)\0515\5-13.c" 1
  98  0006              	NOP
  98  0006              	ENDIF
  98  0006              ;# 98 "C:\Users\YVTC\Desktop\單晶片微控制器(一)\0515\5-13.c" 1
  98  0006              	IF (80000< ( 8 + __PBP__ * 2)) AND (80000>( 3 + __PBP__ * 2))
  98  0006              ;# 98 "C:\Users\YVTC\Desktop\單晶片微控制器(一)\0515\5-13.c" 1
  98  0006              	fcall __DELAY3 + ( 7 + __PBP__ * 2) -80000
  98  0006              	ENDIF
  98  0006              ;# 98 "C:\Users\YVTC\Desktop\單晶片微控制器(一)\0515\5-13.c" 1
  98  0006              	IF (80000< ( 0404h + __PBP__ * 2)) AND (80000>( 7 + __PBP__ * 2))
  98  0006              ;# 98 "C:\Users\YVTC\Desktop\單晶片微控制器(一)\0515\5-13.c" 1
  98  0006              	MOV A,(80000-( 4 + __PBP__ * 2))/4
  98  0006              ;# 98 "C:\Users\YVTC\Desktop\單晶片微控制器(一)\0515\5-13.c" 1
  98  0006              	fcall __DELAYX3 + 3 -((80000-( 4 + __PBP__ * 2)) MOD 4) 
  98  0006              	ENDIF
  98  0006              ;# 98 "C:\Users\YVTC\Desktop\單晶片微控制器(一)\0515\5-13.c" 1
  98  0006              	IF (80000< ( 040bh + __PBP__ * 2)) AND (80000> ( 0403h + __PBP__ * 2))
  98  0006              ;# 98 "C:\Users\YVTC\Desktop\單晶片微控制器(一)\0515\5-13.c" 1
  98  0006              	MOV A,0 
  98  0006              ;# 98 "C:\Users\YVTC\Desktop\單晶片微控制器(一)\0515\5-13.c" 1
  98  0006              	fcall __DELAYX6 + ( 040ah + __PBP__ * 2) -80000
  98  0006              	ENDIF
  98  0006              ;# 98 "C:\Users\YVTC\Desktop\單晶片微控制器(一)\0515\5-13.c" 1
  98  0006              	IF (80000 >= ( 040bh + __PBP__ * 2)) AND ((((80000-( 9 + __PBP__ * 2))%0402h)/4+1)>256)
  98  0006              ;# 98 "C:\Users\YVTC\Desktop\單晶片微控制器(一)\0515\5-13.c" 1
  98  0006              	MOV A,(80000-( 9 + __PBP__ * 2))/0402h
  98  0006              ;# 98 "C:\Users\YVTC\Desktop\單晶片微控制器(一)\0515\5-13.c" 1
  98  0006              	MOV _builtin_holtek_delay_2,A
  98  0006              ;# 98 "C:\Users\YVTC\Desktop\單晶片微控制器(一)\0515\5-13.c" 1
  98  0006              	MOV A,0
  98  0006              ;# 98 "C:\Users\YVTC\Desktop\單晶片微控制器(一)\0515\5-13.c" 1
"File: 5-13.c        Assembler  Version HGASM0202      Page 9

  98  0006              	fcall __DELAYY5 +5- (((80000-( 9 + __PBP__ * 2))%0402h)%6) 
  98  0006              	ENDIF
  98  0006              ;# 98 "C:\Users\YVTC\Desktop\單晶片微控制器(一)\0515\5-13.c" 1
  98  0006              	IF (80000 >= ( 040bh + __PBP__ * 2)) AND ((((80000-( 9 + __PBP__ * 2))%0402h)/4+1)<=256)
  98  0006              ;# 98 "C:\Users\YVTC\Desktop\單晶片微控制器(一)\0515\5-13.c" 1
  98  0006  0F4D        	MOV A,(80000-( 9 + __PBP__ * 2))/0402h
  98  0007              ;# 98 "C:\Users\YVTC\Desktop\單晶片微控制器(一)\0515\5-13.c" 1
  98  0007  0080     E  	MOV _builtin_holtek_delay_2,A
  98  0008              ;# 98 "C:\Users\YVTC\Desktop\單晶片微控制器(一)\0515\5-13.c" 1
  98  0008  0FF7        	MOV A,((80000-( 9 + __PBP__ * 2))%0402h)/4+1
  98  0009              ;# 98 "C:\Users\YVTC\Desktop\單晶片微控制器(一)\0515\5-13.c" 1
  98  0009              	fcall __DELAYY3 +3-(((80000-( 9 + __PBP__ * 2))%0402h)%4) 
  98  0010              	ENDIF
  99  0010              #line 99 "C:\Users\YVTC\Desktop\單晶片微控制器(一)\0515\5-13.c"
  99  0010  0F38        	mov a,56
  99  0011  0080     R  	mov _LCMWrite_2[0],a
  99  0012  0F00        	mov a,0
  99  0013              	fcall _LCMWrite
 100  001A              #line 100 "C:\Users\YVTC\Desktop\單晶片微控制器(一)\0515\5-13.c"
 100  001A  0F0C        	mov a,12
 100  001B  0080     R  	mov _LCMWrite_2[0],a
 100  001C  0F00        	mov a,0
 100  001D              	fcall _LCMWrite
 101  0024              #line 101 "C:\Users\YVTC\Desktop\單晶片微控制器(一)\0515\5-13.c"
 101  0024  0F06        	mov a,6
 101  0025  0080     R  	mov _LCMWrite_2[0],a
 101  0026  0F00        	mov a,0
 101  0027              	fcall _LCMWrite
 102  002E              #line 102 "C:\Users\YVTC\Desktop\單晶片微控制器(一)\0515\5-13.c"
 102  002E  0F01        	mov a,1
 102  002F  0080     R  	mov _LCMWrite_2[0],a
 102  0030  0F00        	mov a,0
 102  0031              	fcall _LCMWrite
 104  0038              #line 104 "C:\Users\YVTC\Desktop\單晶片微控制器(一)\0515\5-13.c"
 104  0038  0F80        	mov a,128
 104  0039  0080     R  	mov _LCMWrite_2[0],a
 104  003A  0F00        	mov a,0
 104  003B              	fcall _LCMWrite
 104  0042  1F00     R  	clr _LCMInit_2[0]
 104  0043              _L24:
 105  0043              #line 105 "C:\Users\YVTC\Desktop\單晶片微控制器(一)\0515\5-13.c"
 105  0043  0F00     R  	mov a,low offset _String1
 105  0044  0300     R  	add a,_LCMInit_2[0]
 105  0045  0083        	mov mp,a
 105  0046  0F00     R  	mov a,high offset _String1
 105  0047  1F04        	clr sbp
 105  0048  1384        	adcm a,sbp
 105  0049              	fcall _Crom2Prom
 105  0050  0080     E  	mov ra,a
 105  0051  1E00     E  	snz ra
 105  0052  2800     R  	jmp _L28
 106  0053              #line 106 "C:\Users\YVTC\Desktop\單晶片微控制器(一)\0515\5-13.c"
 106  0053  1480     R  	inc _LCMInit_2[0]
 106  0054  0700     E  	mov a,ra
 106  0055  0080     R  	mov _LCMWrite_2[0],a
 106  0056  0F01        	mov a,1
 106  0057              	fcall _LCMWrite
 106  005E  2800     R  	jmp _L24
 106  005F              _L28:
 107  005F              #line 107 "C:\Users\YVTC\Desktop\單晶片微控制器(一)\0515\5-13.c"
"File: 5-13.c        Assembler  Version HGASM0202      Page 10

 107  005F  0FC0        	mov a,192
 107  0060  0080     R  	mov _LCMWrite_2[0],a
 107  0061  0F00        	mov a,0
 107  0062              	fcall _LCMWrite
 107  0069  1F00     R  	clr _LCMInit_2[0]
 108  006A              #line 108 "C:\Users\YVTC\Desktop\單晶片微控制器(一)\0515\5-13.c"
 108  006A  2800     R  	jmp _L26
 108  006B              _L27:
 109  006B              #line 109 "C:\Users\YVTC\Desktop\單晶片微控制器(一)\0515\5-13.c"
 109  006B  1480     R  	inc _LCMInit_2[0]
 109  006C  0700     E  	mov a,ra
 109  006D  0080     R  	mov _LCMWrite_2[0],a
 109  006E  0F01        	mov a,1
 109  006F              	fcall _LCMWrite
 109  0076              _L26:
 108  0076              #line 108 "C:\Users\YVTC\Desktop\單晶片微控制器(一)\0515\5-13.c"
 108  0076  0F00     R  	mov a,low offset _String2
 108  0077  0300     R  	add a,_LCMInit_2[0]
 108  0078  0083        	mov mp,a
 108  0079  0F00     R  	mov a,high offset _String2
 108  007A  1F04        	clr sbp
 108  007B  1384        	adcm a,sbp
 108  007C              	fcall _Crom2Prom
 108  0083  0080     E  	mov ra,a
 108  0084  1080     E  	sz ra
 108  0085  2800     R  	jmp _L27
 108  0086  0003        	ret
 108  0087              _LCMInit endp
 108  0087              #line 108 "C:\Users\YVTC\Desktop\單晶片微控制器(一)\0515\5-13.c"
 108  0087              #pragma debug scope 1 1
 108  0087              public _PAUSE
 108  0087              #pragma debug scope 7 1
 129  0087              #line 129 "C:\Users\YVTC\Desktop\單晶片微控制器(一)\0515\5-13.c"
 129  0000              _PAUSE .section 'code'
 129  0000              _PAUSE proc
 129  0000  00              local _PAUSE_2 db 1 dup(?)	; 0,1
 129  0000  0080     R  	mov _PAUSE_2[0],a
 129  0001              #pragma debug variable 8 7 _PAUSE_2+0 "i"
 130  0001              #line 130 "C:\Users\YVTC\Desktop\單晶片微控制器(一)\0515\5-13.c"
 130  0001  1F00     E  	clr ra
 130  0002  2800     R  	jmp _L30
 130  0003              _L31:
 130  0003              #line 130 "C:\Users\YVTC\Desktop\單晶片微控制器(一)\0515\5-13.c"
 130  0003              ;# 130 "C:\Users\YVTC\Desktop\單晶片微控制器(一)\0515\5-13.c" 1
 130  0003              	IF 20000>263690
 130  0003              ;# 130 "C:\Users\YVTC\Desktop\單晶片微控制器(一)\0515\5-13.c" 1
 130  0003              	ERRMESSAGE 'the value 20000of the argument exceeds the maxinum 263690'
 130  0003              	ENDIF
 130  0003              ;# 130 "C:\Users\YVTC\Desktop\單晶片微控制器(一)\0515\5-13.c" 1
 130  0003              	IF 20000<0
 130  0003              ;# 130 "C:\Users\YVTC\Desktop\單晶片微控制器(一)\0515\5-13.c" 1
 130  0003              	ERRMESSAGE 'the value 20000 of the argument exceeds the mininum 0'
 130  0003              	ENDIF
 130  0003              ;# 130 "C:\Users\YVTC\Desktop\單晶片微控制器(一)\0515\5-13.c" 1
 130  0003              	IF 20000==0
 130  0003              ;# 130 "C:\Users\YVTC\Desktop\單晶片微控制器(一)\0515\5-13.c" 1
 130  0003              	JMP $
 130  0003              	ENDIF
 130  0003              ;# 130 "C:\Users\YVTC\Desktop\單晶片微控制器(一)\0515\5-13.c" 1
 130  0003              	IF (20000>=1) AND (20000<( 4 + __PBP__ * 2))
"File: 5-13.c        Assembler  Version HGASM0202      Page 11

 130  0003              ;# 130 "C:\Users\YVTC\Desktop\單晶片微控制器(一)\0515\5-13.c" 1
 130  0003              	NOP
 130  0003              	ENDIF
 130  0003              ;# 130 "C:\Users\YVTC\Desktop\單晶片微控制器(一)\0515\5-13.c" 1
 130  0003              	IF (20000>=2) AND (20000<( 4 + __PBP__ * 2))
 130  0003              ;# 130 "C:\Users\YVTC\Desktop\單晶片微控制器(一)\0515\5-13.c" 1
 130  0003              	NOP
 130  0003              	ENDIF
 130  0003              ;# 130 "C:\Users\YVTC\Desktop\單晶片微控制器(一)\0515\5-13.c" 1
 130  0003              	IF (20000>=3) AND (20000<( 4 + __PBP__ * 2))
 130  0003              ;# 130 "C:\Users\YVTC\Desktop\單晶片微控制器(一)\0515\5-13.c" 1
 130  0003              	NOP
 130  0003              	ENDIF
 130  0003              ;# 130 "C:\Users\YVTC\Desktop\單晶片微控制器(一)\0515\5-13.c" 1
 130  0003              	IF (20000>=4) AND (20000<( 4 + __PBP__ * 2)) AND ( __PBP__ > 0 )
 130  0003              ;# 130 "C:\Users\YVTC\Desktop\單晶片微控制器(一)\0515\5-13.c" 1
 130  0003              	NOP
 130  0003              	ENDIF
 130  0003              ;# 130 "C:\Users\YVTC\Desktop\單晶片微控制器(一)\0515\5-13.c" 1
 130  0003              	IF (20000>=5) AND (20000<( 4 + __PBP__ * 2)) AND ( __PBP__ > 0 )
 130  0003              ;# 130 "C:\Users\YVTC\Desktop\單晶片微控制器(一)\0515\5-13.c" 1
 130  0003              	NOP
 130  0003              	ENDIF
 130  0003              ;# 130 "C:\Users\YVTC\Desktop\單晶片微控制器(一)\0515\5-13.c" 1
 130  0003              	IF (20000>=6) AND (20000<( 4 + __PBP__ * 2))  AND ( __PBP__ > 1 )
 130  0003              ;# 130 "C:\Users\YVTC\Desktop\單晶片微控制器(一)\0515\5-13.c" 1
 130  0003              	NOP
 130  0003              	ENDIF
 130  0003              ;# 130 "C:\Users\YVTC\Desktop\單晶片微控制器(一)\0515\5-13.c" 1
 130  0003              	IF (20000>=7) AND (20000<( 4 + __PBP__ * 2))  AND ( __PBP__ > 1 )
 130  0003              ;# 130 "C:\Users\YVTC\Desktop\單晶片微控制器(一)\0515\5-13.c" 1
 130  0003              	NOP
 130  0003              	ENDIF
 130  0003              ;# 130 "C:\Users\YVTC\Desktop\單晶片微控制器(一)\0515\5-13.c" 1
 130  0003              	IF (20000>=8) AND (20000<( 4 + __PBP__ * 2))  AND ( __PBP__ > 2 )
 130  0003              ;# 130 "C:\Users\YVTC\Desktop\單晶片微控制器(一)\0515\5-13.c" 1
 130  0003              	NOP
 130  0003              	ENDIF
 130  0003              ;# 130 "C:\Users\YVTC\Desktop\單晶片微控制器(一)\0515\5-13.c" 1
 130  0003              	IF (20000==9)  AND ( __PBP__ > 2 )
 130  0003              ;# 130 "C:\Users\YVTC\Desktop\單晶片微控制器(一)\0515\5-13.c" 1
 130  0003              	NOP
 130  0003              	ENDIF
 130  0003              ;# 130 "C:\Users\YVTC\Desktop\單晶片微控制器(一)\0515\5-13.c" 1
 130  0003              	IF (20000< ( 8 + __PBP__ * 2)) AND (20000>( 3 + __PBP__ * 2))
 130  0003              ;# 130 "C:\Users\YVTC\Desktop\單晶片微控制器(一)\0515\5-13.c" 1
 130  0003              	fcall __DELAY3 + ( 7 + __PBP__ * 2) -20000
 130  0003              	ENDIF
 130  0003              ;# 130 "C:\Users\YVTC\Desktop\單晶片微控制器(一)\0515\5-13.c" 1
 130  0003              	IF (20000< ( 0404h + __PBP__ * 2)) AND (20000>( 7 + __PBP__ * 2))
 130  0003              ;# 130 "C:\Users\YVTC\Desktop\單晶片微控制器(一)\0515\5-13.c" 1
 130  0003              	MOV A,(20000-( 4 + __PBP__ * 2))/4
 130  0003              ;# 130 "C:\Users\YVTC\Desktop\單晶片微控制器(一)\0515\5-13.c" 1
 130  0003              	fcall __DELAYX3 + 3 -((20000-( 4 + __PBP__ * 2)) MOD 4) 
 130  0003              	ENDIF
 130  0003              ;# 130 "C:\Users\YVTC\Desktop\單晶片微控制器(一)\0515\5-13.c" 1
 130  0003              	IF (20000< ( 040bh + __PBP__ * 2)) AND (20000> ( 0403h + __PBP__ * 2))
 130  0003              ;# 130 "C:\Users\YVTC\Desktop\單晶片微控制器(一)\0515\5-13.c" 1
 130  0003              	MOV A,0 
 130  0003              ;# 130 "C:\Users\YVTC\Desktop\單晶片微控制器(一)\0515\5-13.c" 1
"File: 5-13.c        Assembler  Version HGASM0202      Page 12

 130  0003              	fcall __DELAYX6 + ( 040ah + __PBP__ * 2) -20000
 130  0003              	ENDIF
 130  0003              ;# 130 "C:\Users\YVTC\Desktop\單晶片微控制器(一)\0515\5-13.c" 1
 130  0003              	IF (20000 >= ( 040bh + __PBP__ * 2)) AND ((((20000-( 9 + __PBP__ * 2))%0402h)/4+1)>256)
 130  0003              ;# 130 "C:\Users\YVTC\Desktop\單晶片微控制器(一)\0515\5-13.c" 1
 130  0003              	MOV A,(20000-( 9 + __PBP__ * 2))/0402h
 130  0003              ;# 130 "C:\Users\YVTC\Desktop\單晶片微控制器(一)\0515\5-13.c" 1
 130  0003              	MOV _builtin_holtek_delay_2,A
 130  0003              ;# 130 "C:\Users\YVTC\Desktop\單晶片微控制器(一)\0515\5-13.c" 1
 130  0003              	MOV A,0
 130  0003              ;# 130 "C:\Users\YVTC\Desktop\單晶片微控制器(一)\0515\5-13.c" 1
 130  0003              	fcall __DELAYY5 +5- (((20000-( 9 + __PBP__ * 2))%0402h)%6) 
 130  0003              	ENDIF
 130  0003              ;# 130 "C:\Users\YVTC\Desktop\單晶片微控制器(一)\0515\5-13.c" 1
 130  0003              	IF (20000 >= ( 040bh + __PBP__ * 2)) AND ((((20000-( 9 + __PBP__ * 2))%0402h)/4+1)<=256)
 130  0003              ;# 130 "C:\Users\YVTC\Desktop\單晶片微控制器(一)\0515\5-13.c" 1
 130  0003  0F13        	MOV A,(20000-( 9 + __PBP__ * 2))/0402h
 130  0004              ;# 130 "C:\Users\YVTC\Desktop\單晶片微控制器(一)\0515\5-13.c" 1
 130  0004  0080     E  	MOV _builtin_holtek_delay_2,A
 130  0005              ;# 130 "C:\Users\YVTC\Desktop\單晶片微控制器(一)\0515\5-13.c" 1
 130  0005  0F7C        	MOV A,((20000-( 9 + __PBP__ * 2))%0402h)/4+1
 130  0006              ;# 130 "C:\Users\YVTC\Desktop\單晶片微控制器(一)\0515\5-13.c" 1
 130  0006              	fcall __DELAYY3 +3-(((20000-( 9 + __PBP__ * 2))%0402h)%4) 
 130  000D              	ENDIF
 130  000D  1480     E  	inc ra
 130  000E              _L30:
 130  000E  0700     E  	mov a,ra
 130  000F  0200     R  	sub a,_PAUSE_2[0]
 130  0010  390A        	snz z
 130  0011  2800     R  	jmp _L31
 130  0012  0003        	ret
 130  0013              _PAUSE endp
 130  0013              #line 130 "C:\Users\YVTC\Desktop\單晶片微控制器(一)\0515\5-13.c"
 130  0013              #pragma debug scope 1 1
 130  0013              ___wdtc equ [62]
 130  0013              ___pec equ [35]
 130  0013              ___pepu equ [33]
 130  0013              ___tm2c1 equ [82]
 130  0013              ___tm1c1 equ [73]
 130  0013              ___tm1c2 equ [74]
 130  0013              ___pcs3 equ [363]
 130  0013              ___pcs2 equ [362]
 130  0013              ___pe equ [34]
 130  0013              ___tm1al equ [77]
 130  0013              ___tm1ah equ [78]
 130  0013              ___tm1bl equ [79]
 130  0013              ___tm1bh equ [80]
 130  0013              ___ifs2 equ [330]
 130  0013              public _main
 130  0013              #pragma debug scope 8 1
  15  0013              #line 15 "C:\Users\YVTC\Desktop\單晶片微控制器(一)\0515\5-13.c"
  15  0013              IFDEF WITH_DEFAULT_STARTUP
  15  0013              extern _main_initial0:near
  15  0013              extern _main_startup:near
  15  0013              ENDIF
  15  0013              
  15  0013              ROMBANK 0 @start
  15  0000              @start .section com_l 'code'
  15  0000              _main_startup1:
  15  0000              @start .section com_e 'code'
"File: 5-13.c        Assembler  Version HGASM0202      Page 13

  15  0000  0F00     R  	mov a,bank _main
  15  0001  008B        	mov bp,a
  15  0002  2800     R  	jmp _main
  15  0003              
  15  0000              _main .section 'code'
  15  0000              _main proc
  15  0000  0009[           local _main_2 db 9 dup(?)
            00
            ]
  15  0009              #pragma debug array 44 8 5 8
  15  0009              #pragma debug array 44 8 5 8
  15  0009              #pragma debug variable 44 8 _main_2+0 "Digit"
  15  0009              #pragma debug variable 10 8 _main_2+7 "PulseA"
  15  0009              #pragma debug variable 10 8 _main_2+5 "PulseB"
  17  0009              #line 17 "C:\Users\YVTC\Desktop\單晶片微控制器(一)\0515\5-13.c"
  17  0000  0FAF        	mov a,175
  17  0001  00BE        	mov [62],a
  18  0002              #line 18 "C:\Users\YVTC\Desktop\單晶片微控制器(一)\0515\5-13.c"
  18  0002  3323        	set [35].6
  18  0003  33A3        	set [35].7
  19  0004              #line 19 "C:\Users\YVTC\Desktop\單晶片微控制器(一)\0515\5-13.c"
  19  0004  3321        	set [33].6
  19  0005  33A1        	set [33].7
  20  0006              #line 20 "C:\Users\YVTC\Desktop\單晶片微控制器(一)\0515\5-13.c"
  20  0006  1F51        	clr [81]
  21  0007              #line 21 "C:\Users\YVTC\Desktop\單晶片微控制器(一)\0515\5-13.c"
  21  0007  0F60        	mov a,96
  21  0008  00D2        	mov [82],a
  22  0009              #line 22 "C:\Users\YVTC\Desktop\單晶片微控制器(一)\0515\5-13.c"
  22  0009  1F48        	clr [72]
  23  000A              #line 23 "C:\Users\YVTC\Desktop\單晶片微控制器(一)\0515\5-13.c"
  23  000A  0FB8        	mov a,184
  23  000B  00C9        	mov [73],a
  24  000C              #line 24 "C:\Users\YVTC\Desktop\單晶片微控制器(一)\0515\5-13.c"
  24  000C  0FB8        	mov a,184
  24  000D  00CA        	mov [74],a
  25  000E              #line 25 "C:\Users\YVTC\Desktop\單晶片微控制器(一)\0515\5-13.c"
  25  000E  0F10        	mov a,16
  25  000F  80EB 0001   	lmov [363],a
  26  0011              #line 26 "C:\Users\YVTC\Desktop\單晶片微控制器(一)\0515\5-13.c"
  26  0011  0F40        	mov a,64
  26  0012  80EA 0001   	lmov [362],a
  27  0014              #line 27 "C:\Users\YVTC\Desktop\單晶片微控制器(一)\0515\5-13.c"
  27  0014              	fcall _LCMInit
  16  001B              #line 16 "C:\Users\YVTC\Desktop\單晶片微控制器(一)\0515\5-13.c"
  16  001B  1F00     R  	clr _main_2[5]
  16  001C  1F00     R  	clr _main_2[6]
  16  001D  0F14        	mov a,20
  16  001E  0080     R  	mov _main_2[7],a
  16  001F  1F00     R  	clr _main_2[8]
  16  0020              _L33:
  29  0020              #line 29 "C:\Users\YVTC\Desktop\單晶片微控制器(一)\0515\5-13.c"
  29  0020  3F22        	sz [34].6
  29  0021  2800     R  	jmp _L34
  30  0022              #line 30 "C:\Users\YVTC\Desktop\單晶片微控制器(一)\0515\5-13.c"
  30  0022  0F14        	mov a,20
  30  0023  0380     R  	addm a,_main_2[7]
  30  0024  0F00        	mov a,0
  30  0025  1380     R  	adcm a,_main_2[8]
  31  0026              #line 31 "C:\Users\YVTC\Desktop\單晶片微控制器(一)\0515\5-13.c"
"File: 5-13.c        Assembler  Version HGASM0202      Page 14

  31  0026  0F00        	mov a,0
  31  0027  0200     R  	sub a,_main_2[7]
  31  0028  0F04        	mov a,4
  31  0029  1200     R  	sbc a,_main_2[8]
  31  002A  380A        	snz c
  31  002B  2800     R  	jmp _L39
  32  002C              #line 32 "C:\Users\YVTC\Desktop\單晶片微控制器(一)\0515\5-13.c"
  32  002C  1F00     R  	clr _main_2[5]
  32  002D  1F00     R  	clr _main_2[6]
  32  002E  2800     R  	jmp _L34
  32  002F              _L39:
  32  002F  1F00     R  	clr _main_2[5]
  32  0030  1F00     R  	clr _main_2[6]
  31  0031              #line 31 "C:\Users\YVTC\Desktop\單晶片微控制器(一)\0515\5-13.c"
  31  0031  0F14        	mov a,20
  31  0032  0080     R  	mov _main_2[7],a
  31  0033  1F00     R  	clr _main_2[8]
  31  0034              _L34:
  34  0034              #line 34 "C:\Users\YVTC\Desktop\單晶片微控制器(一)\0515\5-13.c"
  34  0034  3FA2        	sz [34].7
  34  0035  2800     R  	jmp _L37
  35  0036              #line 35 "C:\Users\YVTC\Desktop\單晶片微控制器(一)\0515\5-13.c"
  35  0036  0700     R  	mov a,_main_2[7]
  35  0037  0200     R  	sub a,_main_2[5]
  35  0038  0080     E  	mov rd,a
  35  0039  0700     R  	mov a,_main_2[8]
  35  003A  1200     R  	sbc a,_main_2[6]
  35  003B  0080     E  	mov re,a
  35  003C  0F13        	mov a,19
  35  003D  0200     E  	sub a,rd
  35  003E  0F00        	mov a,0
  35  003F  1200     E  	sbc a,re
  35  0040  3C0A        	sz c
  35  0041  2800     R  	jmp _L40
  36  0042              #line 36 "C:\Users\YVTC\Desktop\單晶片微控制器(一)\0515\5-13.c"
  36  0042  0F06        	mov a,6
  36  0043  0380     R  	addm a,_main_2[5]
  36  0044  0F00        	mov a,0
  36  0045  1380     R  	adcm a,_main_2[6]
  36  0046  2800     R  	jmp _L37
  36  0047              _L40:
  35  0047              #line 35 "C:\Users\YVTC\Desktop\單晶片微控制器(一)\0515\5-13.c"
  35  0047  1F00     R  	clr _main_2[5]
  35  0048  1F00     R  	clr _main_2[6]
  35  0049              _L37:
  39  0049              #line 39 "C:\Users\YVTC\Desktop\單晶片微控制器(一)\0515\5-13.c"
  39  0049  35C8        	clr [72].3
  40  004A              #line 40 "C:\Users\YVTC\Desktop\單晶片微控制器(一)\0515\5-13.c"
  40  004A  0700     R  	mov a,_main_2[7]
  40  004B  00CD        	mov [77],a
  41  004C              #line 41 "C:\Users\YVTC\Desktop\單晶片微控制器(一)\0515\5-13.c"
  41  004C  0700     R  	mov a,_main_2[8]
  41  004D  00CE        	mov [78],a
  42  004E              #line 42 "C:\Users\YVTC\Desktop\單晶片微控制器(一)\0515\5-13.c"
  42  004E  0700     R  	mov a,_main_2[5]
  42  004F  00CF        	mov [79],a
  43  0050              #line 43 "C:\Users\YVTC\Desktop\單晶片微控制器(一)\0515\5-13.c"
  43  0050  0700     R  	mov a,_main_2[6]
  43  0051  00D0        	mov [80],a
  45  0052              #line 45 "C:\Users\YVTC\Desktop\單晶片微控制器(一)\0515\5-13.c"
"File: 5-13.c        Assembler  Version HGASM0202      Page 15

  45  0052  0F40        	mov a,64
  45  0053  80CA 0001   	lmov [330],a
  46  0055              #line 46 "C:\Users\YVTC\Desktop\單晶片微控制器(一)\0515\5-13.c"
  46  0055              	fcall _Measure
  47  005C              #line 47 "C:\Users\YVTC\Desktop\單晶片微控制器(一)\0515\5-13.c"
  47  005C  0F00     R  	mov a,low offset _main_2
  47  005D  0080     E  	mov rc,a
  47  005E  0F00     R  	mov a,high offset _main_2
  47  005F  0080     E  	mov rd,a
  47  0060  0F04        	mov a,4
  47  0061  0300     E  	add a,rc
  47  0062  0080     R  	mov _WordHex2ASCII_2[2],a
  47  0063  0F00        	mov a,0
  47  0064  1300     E  	adc a,rd
  47  0065  0080     R  	mov _WordHex2ASCII_2[3],a
  47  0066  0700     E  	mov a,ra
  47  0067  0080     R  	mov _WordHex2ASCII_2[0],a
  47  0068  0700     E  	mov a,rb
  47  0069  0080     R  	mov _WordHex2ASCII_2[1],a
  47  006A              	fcall _WordHex2ASCII
  48  0071              #line 48 "C:\Users\YVTC\Desktop\單晶片微控制器(一)\0515\5-13.c"
  48  0071  0F88        	mov a,136
  48  0072  0080     R  	mov _LCMWrite_2[0],a
  48  0073  0F00        	mov a,0
  48  0074              	fcall _LCMWrite
  49  007B              #line 49 "C:\Users\YVTC\Desktop\單晶片微控制器(一)\0515\5-13.c"
  49  007B  0F00     R  	mov a,low offset _main_2
  49  007C  0080     E  	mov rd,a
  49  007D  0F00     R  	mov a,high offset _main_2
  49  007E  0080     E  	mov re,a
  49  007F  0F03        	mov a,3
  49  0080  0300     E  	add a,rd
  49  0081  0080     R  	mov _DisplayDigit_2[0],a
  49  0082  0F00        	mov a,0
  49  0083  1300     E  	adc a,re
  49  0084  0080     R  	mov _DisplayDigit_2[1],a
  49  0085              	fcall _DisplayDigit
  51  008C              #line 51 "C:\Users\YVTC\Desktop\單晶片微控制器(一)\0515\5-13.c"
  51  008C  9F4A 0001   	lclr [330]
  52  008E              #line 52 "C:\Users\YVTC\Desktop\單晶片微控制器(一)\0515\5-13.c"
  52  008E              	fcall _Measure
  53  0095              #line 53 "C:\Users\YVTC\Desktop\單晶片微控制器(一)\0515\5-13.c"
  53  0095  0F00     R  	mov a,low offset _main_2
  53  0096  0080     E  	mov rc,a
  53  0097  0F00     R  	mov a,high offset _main_2
  53  0098  0080     E  	mov rd,a
  53  0099  0F04        	mov a,4
  53  009A  0300     E  	add a,rc
  53  009B  0080     R  	mov _WordHex2ASCII_2[2],a
  53  009C  0F00        	mov a,0
  53  009D  1300     E  	adc a,rd
  53  009E  0080     R  	mov _WordHex2ASCII_2[3],a
  53  009F  0700     E  	mov a,ra
  53  00A0  0080     R  	mov _WordHex2ASCII_2[0],a
  53  00A1  0700     E  	mov a,rb
  53  00A2  0080     R  	mov _WordHex2ASCII_2[1],a
  53  00A3              	fcall _WordHex2ASCII
  54  00AA              #line 54 "C:\Users\YVTC\Desktop\單晶片微控制器(一)\0515\5-13.c"
  54  00AA  0FC8        	mov a,200
  54  00AB  0080     R  	mov _LCMWrite_2[0],a
"File: 5-13.c        Assembler  Version HGASM0202      Page 16

  54  00AC  0F00        	mov a,0
  54  00AD              	fcall _LCMWrite
  55  00B4              #line 55 "C:\Users\YVTC\Desktop\單晶片微控制器(一)\0515\5-13.c"
  55  00B4  0F00     R  	mov a,low offset _main_2
  55  00B5  0080     E  	mov rd,a
  55  00B6  0F00     R  	mov a,high offset _main_2
  55  00B7  0080     E  	mov re,a
  55  00B8  0F03        	mov a,3
  55  00B9  0300     E  	add a,rd
  55  00BA  0080     R  	mov _DisplayDigit_2[0],a
  55  00BB  0F00        	mov a,0
  55  00BC  1300     E  	adc a,re
  55  00BD  0080     R  	mov _DisplayDigit_2[1],a
  55  00BE              	fcall _DisplayDigit
  56  00C5              #line 56 "C:\Users\YVTC\Desktop\單晶片微控制器(一)\0515\5-13.c"
  56  00C5  0F14        	mov a,20
  56  00C6              	fcall _PAUSE
  57  00CD              #line 57 "C:\Users\YVTC\Desktop\單晶片微控制器(一)\0515\5-13.c"
  57  00CD  2800     R  	jmp _L33
  57  00CE  2800     R  	jmp $
  57  00CF              _main endp
  57  00CF              
  57  00CF              @dummy endp
  57  00CF              
  57  00CF              #line 57 "C:\Users\YVTC\Desktop\單晶片微控制器(一)\0515\5-13.c"
  57  00CF              #pragma debug scope 1 1
  57  00CF              public _String2
  57  0000              @crom	.section 'crom'
   7  0000              #line 7 "C:\Users\YVTC\Desktop\單晶片微控制器(一)\0515\5-13.c"
   7  0000              @crom	.section	'crom'
   7  0000              _String2:
   7  0000              #pragma debug array 45 8 16 1
   7  0000              #pragma debug array 45 8 16 1
   7  0000              #pragma debug variable 45 1 _String2 "String2"
   7  0000              	db 042h,020h,057h,069h,064h,074h,068h,03dh,020h,020h
   7  0005              	db 020h,020h,020h,075h,053h,00h
   7  0008              public _String1
   6  0008              #line 6 "C:\Users\YVTC\Desktop\單晶片微控制器(一)\0515\5-13.c"
   6  0008              @crom	.section	'crom'
   6  0008              _String1:
   6  0008              #pragma debug variable 45 1 _String1 "String1"
   6  0008              	db 041h,020h,057h,069h,064h,074h,068h,03dh,020h,020h
   6  000D              	db 020h,020h,020h,075h,053h,00h
   6  0010              #pragma debug struct_end
   6  0010              #pragma debug struct_end
   6  0010              #pragma debug union_end
   6  0010              #pragma debug union_end
   6  0010              #pragma debug variable 47 1 ___pepu "__pepu" 1
   6  0010              #pragma debug struct_end
   6  0010              #pragma debug struct_end
   6  0010              #pragma debug union_end
   6  0010              #pragma debug union_end
   6  0010              #pragma debug variable 49 1 ___pe "__pe" 1
   6  0010              #pragma debug struct_end
   6  0010              #pragma debug struct_end
   6  0010              #pragma debug union_end
   6  0010              #pragma debug union_end
   6  0010              #pragma debug variable 51 1 ___pec "__pec" 1
   6  0010              #pragma debug struct_end
   6  0010              #pragma debug struct_end
"File: 5-13.c        Assembler  Version HGASM0202      Page 17

   6  0010              #pragma debug union_end
   6  0010              #pragma debug union_end
   6  0010              #pragma debug variable 53 1 ___pg "__pg" 1
   6  0010              #pragma debug struct_end
   6  0010              #pragma debug struct_end
   6  0010              #pragma debug union_end
   6  0010              #pragma debug union_end
   6  0010              #pragma debug variable 55 1 ___pgc "__pgc" 1
   6  0010              #pragma debug struct_end
   6  0010              #pragma debug struct_end
   6  0010              #pragma debug union_end
   6  0010              #pragma debug union_end
   6  0010              #pragma debug variable 57 1 ___ph "__ph" 1
   6  0010              #pragma debug struct_end
   6  0010              #pragma debug struct_end
   6  0010              #pragma debug union_end
   6  0010              #pragma debug union_end
   6  0010              #pragma debug variable 59 1 ___phc "__phc" 1
   6  0010              #pragma debug struct_end
   6  0010              #pragma debug struct_end
   6  0010              #pragma debug union_end
   6  0010              #pragma debug union_end
   6  0010              #pragma debug variable 61 1 ___mfi0 "__mfi0" 1
   6  0010              #pragma debug struct_end
   6  0010              #pragma debug struct_end
   6  0010              #pragma debug union_end
   6  0010              #pragma debug union_end
   6  0010              #pragma debug variable 63 1 ___wdtc "__wdtc" 1
   6  0010              #pragma debug struct_end
   6  0010              #pragma debug struct_end
   6  0010              #pragma debug union_end
   6  0010              #pragma debug union_end
   6  0010              #pragma debug variable 65 1 ___tm1c0 "__tm1c0" 1
   6  0010              #pragma debug struct_end
   6  0010              #pragma debug struct_end
   6  0010              #pragma debug union_end
   6  0010              #pragma debug union_end
   6  0010              #pragma debug variable 67 1 ___tm1c1 "__tm1c1" 1
   6  0010              #pragma debug struct_end
   6  0010              #pragma debug struct_end
   6  0010              #pragma debug union_end
   6  0010              #pragma debug union_end
   6  0010              #pragma debug variable 69 1 ___tm1c2 "__tm1c2" 1
   6  0010              #pragma debug variable 8 1 ___tm1al "__tm1al" 1
   6  0010              #pragma debug variable 8 1 ___tm1ah "__tm1ah" 1
   6  0010              #pragma debug variable 8 1 ___tm1bl "__tm1bl" 1
   6  0010              #pragma debug variable 8 1 ___tm1bh "__tm1bh" 1
   6  0010              #pragma debug struct_end
   6  0010              #pragma debug struct_end
   6  0010              #pragma debug union_end
   6  0010              #pragma debug union_end
   6  0010              #pragma debug variable 71 1 ___tm2c0 "__tm2c0" 1
   6  0010              #pragma debug struct_end
   6  0010              #pragma debug struct_end
   6  0010              #pragma debug union_end
   6  0010              #pragma debug union_end
   6  0010              #pragma debug variable 73 1 ___tm2c1 "__tm2c1" 1
   6  0010              #pragma debug variable 8 1 ___tm2al "__tm2al" 1
   6  0010              #pragma debug variable 8 1 ___tm2ah "__tm2ah" 1
   6  0010              #pragma debug struct_end
"File: 5-13.c        Assembler  Version HGASM0202      Page 18

   6  0010              #pragma debug struct_end
   6  0010              #pragma debug union_end
   6  0010              #pragma debug union_end
   6  0010              #pragma debug variable 75 1 ___ifs2 "__ifs2" 1
   6  0010              #pragma debug struct_end
   6  0010              #pragma debug struct_end
   6  0010              #pragma debug union_end
   6  0010              #pragma debug union_end
   6  0010              #pragma debug variable 77 1 ___pcs2 "__pcs2" 1
   6  0010              #pragma debug struct_end
   6  0010              #pragma debug struct_end
   6  0010              #pragma debug union_end
   6  0010              #pragma debug union_end
   6  0010              #pragma debug variable 79 1 ___pcs3 "__pcs3" 1
  15  0010              #line 15 "C:\Users\YVTC\Desktop\單晶片微控制器(一)\0515\5-13.c"
  15  0000              @code .section at 0 'code'
  15  0000  1F0B        	clr bp
  15  0001  2800     R  	jmp _main_startup1
  15  0002              
  15  0002              extern _builtin_holtek_udivmodhi4_2:byte
  15  0002              extern _builtin_holtek_udivmodhi4:near
  15  0002              
  15  0002              ; 
  15  0002              ; Generated by holtek-gcc v3.18, Tue May 15 14:39:33 2018
  15  0002              ; Rebuild 126
  15  0002              ; end of file


        0 Errors, 0