"File: 5-2.c         Assembler  Version HGASM0202      Page 1


   1  0000              ; Generated by holtek-gcc v3.18, Tue Apr 10 15:01:20 2018
   2  0000              ; 
   3  0000              ; Configuration:
   4  0000              ;       with long instruction
   5  0000              ;       Multi-ROM, Multi-RAM
   6  0000              ;       bits_per_rom_unit:16
   7  0000              ;       with mp1
   8  0000              ;       with tbhp, address(0x9)
   9  0000              ;          Use tabrd-const
  10  0000              ;       
  11  0000              ; SFR address of long-instruction arch:
  12  0000              ;    mp0 = -1,1,0
  13  0000              ;    mp1 = 4,3,2
  14  0000              ;    mp2 = 14,13,12
  15  0000              ;    tbp = 9,7,8
  16  0000              ;    acc = 5
  17  0000              ;    pcl = 6
  18  0000              ;    status = 10
  19  0000              ;    bp = 11
  20  0000              ;    intc = 48
  21  0000              ;       
  22  0000              ;       
  23  0000              ; use 'tabrdc' instead of 'tabrd'
  24  0000              ;       
  25  0000              
  26  0000              #pragma translator "holtek-gcc 4.6.4" "3.18" "build 20130711"
  27  0000              ; Rebuild 126
  28  0000              
  29  0000              ir equ [2]
  30  0000              mp equ [3]
  31  0000              sbp equ [4]
  32  0000              acc equ [5]
  33  0000              bp equ [11]
  34  0000              tblp equ [7]
  35  0000              tbhp equ [9]
  36  0000              status equ [10]
  37  0000              c equ [10].0
  38  0000              ac equ [10].1
  39  0000              z equ [10].2
  40  0000              ov equ [10].3
  41  0000              cz equ [10].6
  42  0000              sc equ [10].7
  43  0000              intc equ [48]
  44  0000              
  45  0000              extern ra:byte
  46  0000              extern rb:byte
  47  0000              extern rc:byte
  48  0000              extern rd:byte
  49  0000              extern re:byte
  50  0000              extern rf:byte
  51  0000              extern rg:byte
  52  0000              extern rh:byte
  53  0000              extern _Crom2Prom:near
  54  0000              extern _Crom2PromNext:near
  55  0000              
  56  0000              RAMBANK 0 @BITDATASEC, @BITDATASEC1
  57  0000              @HCCINIT	.section 'data'
  58  0000              @HCCINIT0	.section 'data'
  59  0000              @BITDATASEC	 .section 'data'
"File: 5-2.ASM       Assembler  Version HGASM0202      Page 2

  60  0000              @BITDATASEC1	 .section 'data'
  61  0000              
  62  0000              #pragma debug scope 1 1
  63  0000              	extern __DELAY3:near
  64  0000              	extern __DELAYX3:near
  65  0000              	extern __DELAYX6:near
  66  0000              	extern __DELAYY5:near
  67  0000              	extern __DELAYY3:near
  68  0000              	extern _builtin_holtek_delay_2:byte
  69  0000              ___wdtc equ [62]
  70  0000              ___pd equ [30]
  71  0000              ___pdc equ [31]
  72  0000              ___pe equ [34]
  73  0000              ___pec equ [35]
  74  0000              ___tm2c0 equ [81]
  75  0000              ___tm2c1 equ [82]
  76  0000              ___tm2al equ [85]
  77  0000              ___tm2ah equ [86]
  78  0000              ___ifs0 equ [328]
  79  0000              ___papu equ [17]
  80  0000              ___integ equ [57]
  81  0000              ___intc0 equ [48]
  82  0000              ___intc1 equ [49]
  83  0000              ___mfi0 equ [52]
  84  0000              public _main
  85  0000              #pragma debug scope 2 1

  12  0000              #line 12 "C:\Users\YVTC\Desktop\單晶片微控制器(一)\0327\5-2.c"
  12  0000              IFDEF WITH_DEFAULT_STARTUP
  12  0000              extern _main_initial0:near
  12  0000              extern _main_startup:near
  12  0000              ENDIF
  12  0000              
  12  0000              ROMBANK 0 @start
  12  0000              @start .section com_l 'code'
  12  0000              _main_startup1:
  12  0000              @start .section com_e 'code'
  12  0000  0F00     R  	mov a,bank _main
  12  0001  008B        	mov bp,a
  12  0002  2800     R  	jmp _main
  12  0003              
  12  0000              _main .section 'code'
  12  0000              _main proc
  13  0000              #line 13 "C:\Users\YVTC\Desktop\單晶片微控制器(一)\0327\5-2.c"
  13  0000  0FAF        	mov a,175
  13  0001  00BE        	mov [62],a
  14  0002              #line 14 "C:\Users\YVTC\Desktop\單晶片微控制器(一)\0327\5-2.c"
  14  0002  1F1E        	clr [30]
  14  0003  1F1F        	clr [31]
  15  0004              #line 15 "C:\Users\YVTC\Desktop\單晶片微控制器(一)\0327\5-2.c"
  15  0004  0FF0        	mov a,240
  15  0005  06A2        	andm a,[34]
  15  0006  0FF0        	mov a,240
  15  0007  06A3        	andm a,[35]
  16  0008              #line 16 "C:\Users\YVTC\Desktop\單晶片微控制器(一)\0327\5-2.c"
  16  0008  1F51        	clr [81]
  17  0009              #line 17 "C:\Users\YVTC\Desktop\單晶片微控制器(一)\0327\5-2.c"
  17  0009  0FC1        	mov a,193
  17  000A  00D2        	mov [82],a
  18  000B              #line 18 "C:\Users\YVTC\Desktop\單晶片微控制器(一)\0327\5-2.c"
"File: 5-2.c         Assembler  Version HGASM0202      Page 3

  18  000B  0F10        	mov a,16
  18  000C  00D5        	mov [85],a
  18  000D  0F27        	mov a,39
  18  000E  00D6        	mov [86],a
  19  000F              #line 19 "C:\Users\YVTC\Desktop\單晶片微控制器(一)\0327\5-2.c"
  19  000F  9F48 0001   	lclr [328]
  20  0011              #line 20 "C:\Users\YVTC\Desktop\單晶片微控制器(一)\0327\5-2.c"
  20  0011  3191        	set [17].3
  21  0012              #line 21 "C:\Users\YVTC\Desktop\單晶片微控制器(一)\0327\5-2.c"
  21  0012  0F02        	mov a,2
  21  0013  00B9        	mov [57],a
  22  0014              #line 22 "C:\Users\YVTC\Desktop\單晶片微控制器(一)\0327\5-2.c"
  22  0014  30B0        	set [48].1
  23  0015              #line 23 "C:\Users\YVTC\Desktop\單晶片微控制器(一)\0327\5-2.c"
  23  0015  0F14        	mov a,20
  23  0016  0080     R  	mov _R100ms[0],a
  23  0017  1F00     R  	clr _FG_100ms[0]
  24  0018              #line 24 "C:\Users\YVTC\Desktop\單晶片微控制器(一)\0327\5-2.c"
  24  0018  0F00     R  	mov a,low offset _Digit
  24  0019  0080     R  	mov _ptr[0],a
  24  001A  0F00     R  	mov a,high offset _Digit
  24  001B  0080     R  	mov _ptr[1],a
  24  001C  0F80        	mov a,128
  24  001D  0080     R  	mov _ScanCode[0],a
  25  001E              #line 25 "C:\Users\YVTC\Desktop\單晶片微控制器(一)\0327\5-2.c"
  25  001E  1F00     R  	clr _Digit[0]
  25  001F  1F00     R  	clr _Digit[1]
  25  0020  1F00     R  	clr _Digit[2]
  25  0021  1F00     R  	clr _Digit[3]
  26  0022              #line 26 "C:\Users\YVTC\Desktop\單晶片微控制器(一)\0327\5-2.c"
  26  0022  30B1        	set [49].1
  26  0023  31B4        	set [52].3
  27  0024              #line 27 "C:\Users\YVTC\Desktop\單晶片微控制器(一)\0327\5-2.c"
  27  0024  3030        	set [48].0
  27  0025  31D1        	set [81].3
  27  0026  1F00     R  	clr _FG_GoStop[0]
  27  0027              _L3:
  29  0027              #line 29 "C:\Users\YVTC\Desktop\單晶片微控制器(一)\0327\5-2.c"
  29  0027  1E00     R  	snz _FG_100ms[0]
  29  0028  2800     R  	jmp _L3
  30  0029              #line 30 "C:\Users\YVTC\Desktop\單晶片微控制器(一)\0327\5-2.c"
  30  0029  1F00     R  	clr _FG_100ms[0]
  31  002A              #line 31 "C:\Users\YVTC\Desktop\單晶片微控制器(一)\0327\5-2.c"
  31  002A  1400     R  	inca _Digit[0]
  31  002B  0080     E  	mov ra,a
  31  002C  0700     E  	mov a,ra
  31  002D  0080     R  	mov _Digit[0],a
  31  002E  0700     E  	mov a,ra
  31  002F  0A0A        	sub a,10
  31  0030  390A        	snz z
  31  0031  2800     R  	jmp _L3
  32  0032              #line 32 "C:\Users\YVTC\Desktop\單晶片微控制器(一)\0327\5-2.c"
  32  0032  1F00     R  	clr _Digit[0]
  33  0033              #line 33 "C:\Users\YVTC\Desktop\單晶片微控制器(一)\0327\5-2.c"
  33  0033  1400     R  	inca _Digit[1]
  33  0034  0080     E  	mov ra,a
  33  0035  0700     E  	mov a,ra
  33  0036  0080     R  	mov _Digit[1],a
  33  0037  0700     E  	mov a,ra
  33  0038  0A0A        	sub a,10
"File: 5-2.c         Assembler  Version HGASM0202      Page 4

  33  0039  390A        	snz z
  33  003A  2800     R  	jmp _L3
  34  003B              #line 34 "C:\Users\YVTC\Desktop\單晶片微控制器(一)\0327\5-2.c"
  34  003B  1F00     R  	clr _Digit[1]
  35  003C              #line 35 "C:\Users\YVTC\Desktop\單晶片微控制器(一)\0327\5-2.c"
  35  003C  1400     R  	inca _Digit[2]
  35  003D  0080     E  	mov ra,a
  35  003E  0700     E  	mov a,ra
  35  003F  0080     R  	mov _Digit[2],a
  35  0040  0700     E  	mov a,ra
  35  0041  0A06        	sub a,6
  35  0042  390A        	snz z
  35  0043  2800     R  	jmp _L3
  36  0044              #line 36 "C:\Users\YVTC\Desktop\單晶片微控制器(一)\0327\5-2.c"
  36  0044  1F00     R  	clr _Digit[2]
  37  0045              #line 37 "C:\Users\YVTC\Desktop\單晶片微控制器(一)\0327\5-2.c"
  37  0045  1400     R  	inca _Digit[3]
  37  0046  0080     E  	mov ra,a
  37  0047  0700     E  	mov a,ra
  37  0048  0080     R  	mov _Digit[3],a
  37  0049  0700     E  	mov a,ra
  37  004A  0A0A        	sub a,10
  37  004B  390A        	snz z
  37  004C  2800     R  	jmp _L3
  37  004D  1F00     R  	clr _Digit[3]
  37  004E  2800     R  	jmp _L3
  37  004F  2800     R  	jmp $
  37  0050              _main endp
  37  0050              
  37  0050              @dummy endp
  37  0050              
  37  0050              #line 37 "C:\Users\YVTC\Desktop\單晶片微控制器(一)\0327\5-2.c"
  37  0050              #pragma debug scope 1 1
  37  0050              public _ISR_ExtInt0
  37  0050              #pragma debug scope 3 1
  44  0050              #line 44 "C:\Users\YVTC\Desktop\單晶片微控制器(一)\0327\5-2.c"
  44  0050              rombank 0 @ISR_ExtInt0_code
  44  0000              @ISR_ExtInt0_code .section at 4 'code'
  44  0000  0080     E  	mov r1,a
  44  0001  070B        	mov a,bp
  44  0002  1F0B        	clr bp
  44  0003  2800     R  	jmp _ISR_ExtInt0
  44  0004              ROMBANK 0 _ISR_ExtInt0
  44  0004              #pragma debug scope 1 1
  44  0004              @dummy4 endp
  44  0004              #pragma debug scope 4 1
  44  0000              _ISR_ExtInt0 .section 'code'
  44  0000              _ISR_ExtInt0 proc
  44  0000  0080     E  	mov r2,a
  44  0001  070A        	mov a, status
  44  0002  0080     E  	mov r3,a
  44  0003  0F01        	mov a,1
  44  0004  0480     R  	xorm a,_FG_GoStop[0]
  45  0005              #line 45 "C:\Users\YVTC\Desktop\單晶片微控制器(一)\0327\5-2.c"
  45  0005  3630        	clr [48].4
  45  0006  0700     E  	mov a,r2
  45  0007  008B        	mov bp,a
  45  0008  0700     E  	mov a,r3
  45  0009  008A        	mov status,a
  45  000A  0700     E  	mov a,r1
"File: 5-2.c         Assembler  Version HGASM0202      Page 5

  45  000B  0004        	reti
  45  000C              _ISR_ExtInt0 endp
  45  000C              
  45  000C              #line 45 "C:\Users\YVTC\Desktop\單晶片微控制器(一)\0327\5-2.c"
  45  000C              #pragma debug scope 1 1
  45  000C              public _ISR_STM
  45  000C              #pragma debug scope 5 1
  48  000C              #line 48 "C:\Users\YVTC\Desktop\單晶片微控制器(一)\0327\5-2.c"
  48  000C              rombank 0 @ISR_STM_code
  48  0000              @ISR_STM_code .section at 20 'code'
  48  0000  0080     E  	mov r1,a
  48  0001  070B        	mov a,bp
  48  0002  1F0B        	clr bp
  48  0003  2800     R  	jmp _ISR_STM
  48  0004              ROMBANK 0 _ISR_STM
  48  0004              #pragma debug scope 1 1
  48  0004              @dummy20 endp
  48  0004              #pragma debug scope 6 1
  48  0000              _ISR_STM .section 'code'
  48  0000              _ISR_STM proc
  48  0000  0080     E  	mov r2,a
  48  0001  070A        	mov a, status
  48  0002  0080     E  	mov r3,a
  48  0003  0703        	mov a,mp
  48  0004  0080     E  	mov r4,a
  48  0005  0704        	mov a,sbp
  48  0006  0080     E  	mov r5,a
  48  0007  0707        	mov a,tblp
  48  0008  0080     E  	mov r6,a
  48  0009  0709        	mov a,tbhp
  48  000A  0080     E  	mov r7,a
  48  000B  1F1E        	clr [30]
  49  000C              #line 49 "C:\Users\YVTC\Desktop\單晶片微控制器(一)\0327\5-2.c"
  49  000C              ;# 49 "C:\Users\YVTC\Desktop\單晶片微控制器(一)\0327\5-2.c" 1
  49  000C  1880     R  	rl _ScanCode[0]
  50  000D              #line 50 "C:\Users\YVTC\Desktop\單晶片微控制器(一)\0327\5-2.c"
  50  000D  0700     R  	mov a,_ScanCode[0]
  50  000E  0A10        	sub a,16
  50  000F  390A        	snz z
  50  0010  2800     R  	jmp _L16
  51  0011              #line 51 "C:\Users\YVTC\Desktop\單晶片微控制器(一)\0327\5-2.c"
  51  0011  0F01        	mov a,1
  51  0012  0080     R  	mov _ScanCode[0],a
  51  0013  0F00     R  	mov a,low offset _Digit
  51  0014  0080     R  	mov _ptr[0],a
  51  0015  0F00     R  	mov a,high offset _Digit
  51  0016  0080     R  	mov _ptr[1],a
  51  0017              _L16:
  53  0017              #line 53 "C:\Users\YVTC\Desktop\單晶片微控制器(一)\0327\5-2.c"
  53  0017  0700     R  	mov a,_ScanCode[0]
  53  0018  00A2        	mov [34],a
  53  0019  0700     R  	mov a,_ptr[0]
  53  001A  0080     E  	mov rb,a
  53  001B  0700     R  	mov a,_ptr[1]
  53  001C  0080     E  	mov rc,a
  54  001D              #line 54 "C:\Users\YVTC\Desktop\單晶片微控制器(一)\0327\5-2.c"
  54  001D  0700     R  	mov a,_ScanCode[0]
  54  001E  0A02        	sub a,2
  54  001F  390A        	snz z
  54  0020  2800     R  	jmp _L17
"File: 5-2.c         Assembler  Version HGASM0202      Page 6

  54  0021  0F01        	mov a,1
  54  0022  0300     E  	add a,rb
  54  0023  0080     R  	mov _ptr[0],a
  54  0024  0F00        	mov a,0
  54  0025  1300     E  	adc a,rc
  54  0026  0080     R  	mov _ptr[1],a
  54  0027  0700     E  	mov a,rb
  54  0028  0083        	mov mp,a
  54  0029  0700     E  	mov a,rc
  54  002A  0084        	mov sbp,a
  54  002B              	fcall _Crom2Prom
  54  0032  0080     E  	mov ra,a
  54  0033  0F00     R  	mov a,low offset _SEG_TAB
  54  0034  0300     E  	add a,ra
  54  0035  0083        	mov mp,a
  54  0036  0F00     R  	mov a,high offset _SEG_TAB
  54  0037  1F04        	clr sbp
  54  0038  1384        	adcm a,sbp
  54  0039              	fcall _Crom2Prom
  54  0040  0080     E  	mov ra,a
  54  0041  3000     E  	set ra.7
  54  0042  0700     E  	mov a,ra
  54  0043  009E        	mov [30],a
  54  0044  2800     R  	jmp _L18
  54  0045              _L17:
  55  0045              #line 55 "C:\Users\YVTC\Desktop\單晶片微控制器(一)\0327\5-2.c"
  55  0045  0F01        	mov a,1
  55  0046  0300     E  	add a,rb
  55  0047  0080     R  	mov _ptr[0],a
  55  0048  0F00        	mov a,0
  55  0049  1300     E  	adc a,rc
  55  004A  0080     R  	mov _ptr[1],a
  55  004B  0700     E  	mov a,rb
  55  004C  0083        	mov mp,a
  55  004D  0700     E  	mov a,rc
  55  004E  0084        	mov sbp,a
  55  004F              	fcall _Crom2Prom
  55  0056  0080     E  	mov ra,a
  55  0057  0F00     R  	mov a,low offset _SEG_TAB
  55  0058  0300     E  	add a,ra
  55  0059  0083        	mov mp,a
  55  005A  0F00     R  	mov a,high offset _SEG_TAB
  55  005B  1F04        	clr sbp
  55  005C  1384        	adcm a,sbp
  55  005D              	fcall _Crom2Prom
  55  0064  009E        	mov [30],a
  55  0065              _L18:
  56  0065              #line 56 "C:\Users\YVTC\Desktop\單晶片微控制器(一)\0327\5-2.c"
  56  0065  1E00     R  	snz _FG_GoStop[0]
  56  0066  2800     R  	jmp _L20
  57  0067              #line 57 "C:\Users\YVTC\Desktop\單晶片微控制器(一)\0327\5-2.c"
  57  0067  1500     R  	deca _R100ms[0]
  57  0068  0080     E  	mov ra,a
  57  0069  0700     E  	mov a,ra
  57  006A  0080     R  	mov _R100ms[0],a
  57  006B  1080     E  	sz ra
  57  006C  2800     R  	jmp _L20
  58  006D              #line 58 "C:\Users\YVTC\Desktop\單晶片微控制器(一)\0327\5-2.c"
  58  006D  0F01        	mov a,1
  58  006E  0080     R  	mov _FG_100ms[0],a
"File: 5-2.c         Assembler  Version HGASM0202      Page 7

  59  006F              #line 59 "C:\Users\YVTC\Desktop\單晶片微控制器(一)\0327\5-2.c"
  59  006F  0F14        	mov a,20
  59  0070  0080     R  	mov _R100ms[0],a
  59  0071              _L20:
  62  0071              #line 62 "C:\Users\YVTC\Desktop\單晶片微控制器(一)\0327\5-2.c"
  62  0071  37B4        	clr [52].7
  62  0072  0700     E  	mov a,r2
  62  0073  008B        	mov bp,a
  62  0074  0700     E  	mov a,r3
  62  0075  008A        	mov status,a
  62  0076  0700     E  	mov a,r4
  62  0077  0083        	mov mp,a
  62  0078  0700     E  	mov a,r5
  62  0079  0084        	mov sbp,a
  62  007A  0700     E  	mov a,r6
  62  007B  0087        	mov tblp,a
  62  007C  0700     E  	mov a,r7
  62  007D  0089        	mov tbhp,a
  62  007E  1D05        	tabrdc acc
  62  007F  0700     E  	mov a,r1
  62  0080  0004        	reti
  62  0081              _ISR_STM endp
  62  0081              
  62  0081              #line 62 "C:\Users\YVTC\Desktop\單晶片微控制器(一)\0327\5-2.c"
  62  0081              #pragma debug scope 1 1
  10  0081              #line 10 "C:\Users\YVTC\Desktop\單晶片微控制器(一)\0327\5-2.c"
  10  0081              public _Digit
  10  0000              @HCCINIT0_Digit .section 'data'
  10  0000  0004[       _Digit	db 4 dup(0)
            00
            ]
  10  0004              #pragma debug array 42 8 4 1
  10  0004              #pragma debug array 42 8 4 1
  10  0004              #pragma debug variable 42 1 _Digit "Digit"
  10  0004              
  10  0000              @HCCINIT .section 'data'
  10  0000              #line 10 "C:\Users\YVTC\Desktop\單晶片微控制器(一)\0327\5-2.c"
  10  0000              public _ScanCode
  10  0000              @HCCINIT0_ScanCode .section 'data'
  10  0000              _ScanCode	db 0
  10  0001              #pragma debug variable 8 1 _ScanCode "ScanCode"
  10  0001              
  10  0000              @HCCINIT .section 'data'
  10  0000              #line 10 "C:\Users\YVTC\Desktop\單晶片微控制器(一)\0327\5-2.c"
  10  0000              public _R100ms
  10  0000              @HCCINIT0_R100ms .section 'data'
  10  0000              _R100ms	db 0
  10  0001              #pragma debug variable 8 1 _R100ms "R100ms"
  10  0001              
  10  0000              @HCCINIT .section 'data'
  10  0000              #line 10 "C:\Users\YVTC\Desktop\單晶片微控制器(一)\0327\5-2.c"
  10  0000              public _ptr
  10  0000              @HCCINIT0_ptr .section 'data'
  10  0000  0002[       _ptr	db 2 dup(0)
            00
            ]
  10  0002              #pragma debug pointer 43 8 1
  10  0002              #pragma debug pointer 43 8 1
  10  0002              #pragma debug variable 43 1 _ptr "ptr"
  10  0002              
"File: 5-2.c         Assembler  Version HGASM0202      Page 8

  10  0000              @HCCINIT .section 'data'
   9  0000              #line 9 "C:\Users\YVTC\Desktop\單晶片微控制器(一)\0327\5-2.c"
   9  0000              public _FG_GoStop
   9  0000              @HCCINIT0_FG_GoStop .section 'data'
   9  0000              _FG_GoStop	db 0
   9  0001              #pragma debug variable 8 1 _FG_GoStop "FG_GoStop"
   9  0001              
   9  0000              @HCCINIT .section 'data'
   9  0000              #line 9 "C:\Users\YVTC\Desktop\單晶片微控制器(一)\0327\5-2.c"
   9  0000              public _FG_100ms
   9  0000              @HCCINIT0_FG_100ms .section 'data'
   9  0000              _FG_100ms	db 0
   9  0001              #pragma debug variable 8 1 _FG_100ms "FG_100ms"
   9  0001              
   9  0000              @HCCINIT .section 'data'
   9  0000              public _SEG_TAB
   9  0000              @crom	.section 'crom'
   6  0000              #line 6 "C:\Users\YVTC\Desktop\單晶片微控制器(一)\0327\5-2.c"
   6  0000              @crom	.section	'crom'
   6  0000              _SEG_TAB:
   6  0000              #pragma debug array 44 8 10 1
   6  0000              #pragma debug array 44 8 10 1
   6  0000              #pragma debug variable 44 1 _SEG_TAB "SEG_TAB"
   6  0000              	db 63
   6  0001              	db 6
   6  0001              	db 91
   6  0002              	db 79
   6  0002              	db 102
   6  0003              	db 109
   6  0003              	db 125
   6  0004              	db 7
   6  0004              	db 127
   6  0005              	db 103
   6  0005              #pragma debug struct_end
   6  0005              #pragma debug struct_end
   6  0005              #pragma debug union_end
   6  0005              #pragma debug union_end
   6  0005              #pragma debug variable 46 1 ___papu "__papu" 1
   6  0005              #pragma debug struct_end
   6  0005              #pragma debug struct_end
   6  0005              #pragma debug union_end
   6  0005              #pragma debug union_end
   6  0005              #pragma debug variable 48 1 ___pd "__pd" 1
   6  0005              #pragma debug struct_end
   6  0005              #pragma debug struct_end
   6  0005              #pragma debug union_end
   6  0005              #pragma debug union_end
   6  0005              #pragma debug variable 50 1 ___pdc "__pdc" 1
   6  0005              #pragma debug struct_end
   6  0005              #pragma debug struct_end
   6  0005              #pragma debug union_end
   6  0005              #pragma debug union_end
   6  0005              #pragma debug variable 52 1 ___pe "__pe" 1
   6  0005              #pragma debug struct_end
   6  0005              #pragma debug struct_end
   6  0005              #pragma debug union_end
   6  0005              #pragma debug union_end
   6  0005              #pragma debug variable 54 1 ___pec "__pec" 1
   6  0005              #pragma debug struct_end
   6  0005              #pragma debug struct_end
"File: 5-2.c         Assembler  Version HGASM0202      Page 9

   6  0005              #pragma debug union_end
   6  0005              #pragma debug union_end
   6  0005              #pragma debug variable 56 1 ___intc0 "__intc0" 1
   6  0005              #pragma debug struct_end
   6  0005              #pragma debug struct_end
   6  0005              #pragma debug union_end
   6  0005              #pragma debug union_end
   6  0005              #pragma debug variable 58 1 ___intc1 "__intc1" 1
   6  0005              #pragma debug struct_end
   6  0005              #pragma debug struct_end
   6  0005              #pragma debug union_end
   6  0005              #pragma debug union_end
   6  0005              #pragma debug variable 60 1 ___mfi0 "__mfi0" 1
   6  0005              #pragma debug struct_end
   6  0005              #pragma debug struct_end
   6  0005              #pragma debug union_end
   6  0005              #pragma debug union_end
   6  0005              #pragma debug variable 62 1 ___integ "__integ" 1
   6  0005              #pragma debug struct_end
   6  0005              #pragma debug struct_end
   6  0005              #pragma debug union_end
   6  0005              #pragma debug union_end
   6  0005              #pragma debug variable 64 1 ___wdtc "__wdtc" 1
   6  0005              #pragma debug struct_end
   6  0005              #pragma debug struct_end
   6  0005              #pragma debug union_end
   6  0005              #pragma debug union_end
   6  0005              #pragma debug variable 66 1 ___tm2c0 "__tm2c0" 1
   6  0005              #pragma debug struct_end
   6  0005              #pragma debug struct_end
   6  0005              #pragma debug union_end
   6  0005              #pragma debug union_end
   6  0005              #pragma debug variable 68 1 ___tm2c1 "__tm2c1" 1
   6  0005              #pragma debug variable 8 1 ___tm2al "__tm2al" 1
   6  0005              #pragma debug variable 8 1 ___tm2ah "__tm2ah" 1
   6  0005              #pragma debug struct_end
   6  0005              #pragma debug struct_end
   6  0005              #pragma debug union_end
   6  0005              #pragma debug union_end
   6  0005              #pragma debug variable 70 1 ___ifs0 "__ifs0" 1
   6  0005              extern r1:byte
   6  0005              extern r2:byte
   6  0005              extern r3:byte
   6  0005              extern r4:byte
   6  0005              extern r5:byte
   6  0005              extern r6:byte
   6  0005              extern r7:byte
  12  0005              #line 12 "C:\Users\YVTC\Desktop\單晶片微控制器(一)\0327\5-2.c"
  12  0000              @code .section at 0 'code'
  12  0000  1F0B        	clr bp
  12  0001  2800     R  	jmp _main_startup1
  12  0002              
  12  0002              
  12  0002              ; 
  12  0002              ; Generated by holtek-gcc v3.18, Tue Apr 10 15:01:20 2018
  12  0002              ; Rebuild 126
  12  0002              ; end of file


        0 Errors, 0