"File: 5-3-1.c       Assembler  Version HGASM0202      Page 1


   1  0000              ; Generated by holtek-gcc v3.18, Tue Apr 17 09:47:54 2018
   2  0000              ; 
   3  0000              ; Configuration:
   4  0000              ;       with long instruction
   5  0000              ;       Multi-ROM, Multi-RAM
   6  0000              ;       bits_per_rom_unit:16
   7  0000              ;       with mp1
   8  0000              ;       with tbhp, address(0x9)
   9  0000              ;          Use tabrd-const
  10  0000              ;       
  11  0000              ; SFR address of long-instruction arch:
  12  0000              ;    mp0 = -1,1,0
  13  0000              ;    mp1 = 4,3,2
  14  0000              ;    mp2 = 14,13,12
  15  0000              ;    tbp = 9,7,8
  16  0000              ;    acc = 5
  17  0000              ;    pcl = 6
  18  0000              ;    status = 10
  19  0000              ;    bp = 11
  20  0000              ;    intc = 48
  21  0000              ;       
  22  0000              ;       
  23  0000              ; use 'tabrdc' instead of 'tabrd'
  24  0000              ;       
  25  0000              
  26  0000              #pragma translator "holtek-gcc 4.6.4" "3.18" "build 20130711"
  27  0000              ; Rebuild 126
  28  0000              
  29  0000              ir equ [2]
  30  0000              mp equ [3]
  31  0000              sbp equ [4]
  32  0000              acc equ [5]
  33  0000              bp equ [11]
  34  0000              tblp equ [7]
  35  0000              tbhp equ [9]
  36  0000              status equ [10]
  37  0000              c equ [10].0
  38  0000              ac equ [10].1
  39  0000              z equ [10].2
  40  0000              ov equ [10].3
  41  0000              cz equ [10].6
  42  0000              sc equ [10].7
  43  0000              intc equ [48]
  44  0000              
  45  0000              extern ra:byte
  46  0000              extern rb:byte
  47  0000              extern rc:byte
  48  0000              extern rd:byte
  49  0000              extern re:byte
  50  0000              extern rf:byte
  51  0000              extern rg:byte
  52  0000              extern rh:byte
  53  0000              extern _Crom2Prom:near
  54  0000              extern _Crom2PromNext:near
  55  0000              
  56  0000              RAMBANK 0 @BITDATASEC, @BITDATASEC1
  57  0000              @HCCINIT	.section 'data'
  58  0000              @HCCINIT0	.section 'data'
  59  0000              @BITDATASEC	 .section 'data'
"File: 5-3-1.ASM     Assembler  Version HGASM0202      Page 2

  60  0000              @BITDATASEC1	 .section 'data'
  61  0000              
  62  0000              #pragma debug scope 1 1
  63  0000              	extern __DELAY3:near
  64  0000              	extern __DELAYX3:near
  65  0000              	extern __DELAYX6:near
  66  0000              	extern __DELAYY5:near
  67  0000              	extern __DELAYY3:near
  68  0000              	extern _builtin_holtek_delay_2:byte
  69  0000              ___pd equ [30]
  70  0000              ___pe equ [34]
  71  0000              public _ISR_TB0
  72  0000              #pragma debug scope 2 1

  68  0000              #line 68 "C:\Users\YVTC\Desktop\單晶片微控制器(一)\0327\5-3-1.c"
  68  0000              rombank 0 @ISR_TB0_code
  68  0000              @ISR_TB0_code .section at 36 'code'
  68  0000  0080     E  	mov r1,a
  68  0001  070B        	mov a,bp
  68  0002  1F0B        	clr bp
  68  0003  2800     R  	jmp _ISR_TB0
  68  0004              ROMBANK 0 _ISR_TB0
  68  0004              #pragma debug scope 1 1
  68  0004              @dummy36 endp
  68  0004              #pragma debug scope 3 1
  68  0000              _ISR_TB0 .section 'code'
  68  0000              _ISR_TB0 proc
  68  0000  0080     E  	mov r2,a
  68  0001  070A        	mov a, status
  68  0002  0080     E  	mov r3,a
  68  0003  0703        	mov a,mp
  68  0004  0080     E  	mov r4,a
  68  0005  0704        	mov a,sbp
  68  0006  0080     E  	mov r5,a
  68  0007  0707        	mov a,tblp
  68  0008  0080     E  	mov r6,a
  68  0009  0709        	mov a,tbhp
  68  000A  0080     E  	mov r7,a
  68  000B  1F1E        	clr [30]
  69  000C              #line 69 "C:\Users\YVTC\Desktop\單晶片微控制器(一)\0327\5-3-1.c"
  69  000C  0700     R  	mov a,_ScanCode[0]
  69  000D  0080     E  	mov ra,a
  69  000E  0700     E  	mov a,ra
  69  000F  00A2        	mov [34],a
  69  0010  0700     R  	mov a,_ptr[0]
  69  0011  0080     E  	mov rb,a
  69  0012  0700     R  	mov a,_ptr[1]
  69  0013  0080     E  	mov rc,a
  69  0014  0F01        	mov a,1
  69  0015  0300     E  	add a,rb
  69  0016  0080     R  	mov _ptr[0],a
  69  0017  0F00        	mov a,0
  69  0018  1300     E  	adc a,rc
  69  0019  0080     R  	mov _ptr[1],a
  69  001A  0700     E  	mov a,rb
  69  001B  0083        	mov mp,a
  69  001C  0700     E  	mov a,rc
  69  001D  0084        	mov sbp,a
  69  001E              	fcall _Crom2Prom
  69  0025  009E        	mov [30],a
"File: 5-3-1.c       Assembler  Version HGASM0202      Page 3

  70  0026              #line 70 "C:\Users\YVTC\Desktop\單晶片微控制器(一)\0327\5-3-1.c"
  70  0026  0700     E  	mov a,ra
  70  0027  0380     E  	addm a,ra
  71  0028              #line 71 "C:\Users\YVTC\Desktop\單晶片微控制器(一)\0327\5-3-1.c"
  71  0028  1E00     E  	snz ra
  71  0029  2800     R  	jmp _L2
  70  002A              #line 70 "C:\Users\YVTC\Desktop\單晶片微控制器(一)\0327\5-3-1.c"
  70  002A  0700     E  	mov a,ra
  70  002B  0080     R  	mov _ScanCode[0],a
  70  002C  2800     R  	jmp _L1
  70  002D              _L2:
  72  002D              #line 72 "C:\Users\YVTC\Desktop\單晶片微控制器(一)\0327\5-3-1.c"
  72  002D  0F01        	mov a,1
  72  002E  0080     R  	mov _ScanCode[0],a
  73  002F              #line 73 "C:\Users\YVTC\Desktop\單晶片微控制器(一)\0327\5-3-1.c"
  73  002F  0F00     R  	mov a,low offset _Buffer
  73  0030  0080     R  	mov _ptr[0],a
  73  0031  0F00     R  	mov a,high offset _Buffer
  73  0032  0080     R  	mov _ptr[1],a
  73  0033              _L1:
  73  0033  0700     E  	mov a,r2
  73  0034  008B        	mov bp,a
  73  0035  0700     E  	mov a,r3
  73  0036  008A        	mov status,a
  73  0037  0700     E  	mov a,r4
  73  0038  0083        	mov mp,a
  73  0039  0700     E  	mov a,r5
  73  003A  0084        	mov sbp,a
  73  003B  0700     E  	mov a,r6
  73  003C  0087        	mov tblp,a
  73  003D  0700     E  	mov a,r7
  73  003E  0089        	mov tbhp,a
  73  003F  1D05        	tabrdc acc
  73  0040  0700     E  	mov a,r1
  73  0041  0004        	reti
  73  0042              _ISR_TB0 endp
  73  0042              
  73  0042              #line 73 "C:\Users\YVTC\Desktop\單晶片微控制器(一)\0327\5-3-1.c"
  73  0042              #pragma debug scope 1 1
  73  0042              public _PAUSE
  73  0042              #pragma debug scope 4 1
  77  0042              #line 77 "C:\Users\YVTC\Desktop\單晶片微控制器(一)\0327\5-3-1.c"
  77  0000              _PAUSE .section 'code'
  77  0000              _PAUSE proc
  77  0000  00              local _PAUSE_2 db 1 dup(?)	; 0,1
  77  0000  0080     R  	mov _PAUSE_2[0],a
  77  0001              #pragma debug variable 8 4 _PAUSE_2+0 "i"
  78  0001              #line 78 "C:\Users\YVTC\Desktop\單晶片微控制器(一)\0327\5-3-1.c"
  78  0001  1F00     E  	clr ra
  78  0002  2800     R  	jmp _L6
  78  0003              _L7:
  78  0003              #line 78 "C:\Users\YVTC\Desktop\單晶片微控制器(一)\0327\5-3-1.c"
  78  0003              ;# 78 "C:\Users\YVTC\Desktop\單晶片微控制器(一)\0327\5-3-1.c" 1
  78  0003              	IF 20000>263690
  78  0003              ;# 78 "C:\Users\YVTC\Desktop\單晶片微控制器(一)\0327\5-3-1.c" 1
  78  0003              	ERRMESSAGE 'the value 20000of the argument exceeds the maxinum 263690'
  78  0003              	ENDIF
  78  0003              ;# 78 "C:\Users\YVTC\Desktop\單晶片微控制器(一)\0327\5-3-1.c" 1
  78  0003              	IF 20000<0
  78  0003              ;# 78 "C:\Users\YVTC\Desktop\單晶片微控制器(一)\0327\5-3-1.c" 1
"File: 5-3-1.c       Assembler  Version HGASM0202      Page 4

  78  0003              	ERRMESSAGE 'the value 20000 of the argument exceeds the mininum 0'
  78  0003              	ENDIF
  78  0003              ;# 78 "C:\Users\YVTC\Desktop\單晶片微控制器(一)\0327\5-3-1.c" 1
  78  0003              	IF 20000==0
  78  0003              ;# 78 "C:\Users\YVTC\Desktop\單晶片微控制器(一)\0327\5-3-1.c" 1
  78  0003              	JMP $
  78  0003              	ENDIF
  78  0003              ;# 78 "C:\Users\YVTC\Desktop\單晶片微控制器(一)\0327\5-3-1.c" 1
  78  0003              	IF (20000>=1) AND (20000<( 4 + __PBP__ * 2))
  78  0003              ;# 78 "C:\Users\YVTC\Desktop\單晶片微控制器(一)\0327\5-3-1.c" 1
  78  0003              	NOP
  78  0003              	ENDIF
  78  0003              ;# 78 "C:\Users\YVTC\Desktop\單晶片微控制器(一)\0327\5-3-1.c" 1
  78  0003              	IF (20000>=2) AND (20000<( 4 + __PBP__ * 2))
  78  0003              ;# 78 "C:\Users\YVTC\Desktop\單晶片微控制器(一)\0327\5-3-1.c" 1
  78  0003              	NOP
  78  0003              	ENDIF
  78  0003              ;# 78 "C:\Users\YVTC\Desktop\單晶片微控制器(一)\0327\5-3-1.c" 1
  78  0003              	IF (20000>=3) AND (20000<( 4 + __PBP__ * 2))
  78  0003              ;# 78 "C:\Users\YVTC\Desktop\單晶片微控制器(一)\0327\5-3-1.c" 1
  78  0003              	NOP
  78  0003              	ENDIF
  78  0003              ;# 78 "C:\Users\YVTC\Desktop\單晶片微控制器(一)\0327\5-3-1.c" 1
  78  0003              	IF (20000>=4) AND (20000<( 4 + __PBP__ * 2)) AND ( __PBP__ > 0 )
  78  0003              ;# 78 "C:\Users\YVTC\Desktop\單晶片微控制器(一)\0327\5-3-1.c" 1
  78  0003              	NOP
  78  0003              	ENDIF
  78  0003              ;# 78 "C:\Users\YVTC\Desktop\單晶片微控制器(一)\0327\5-3-1.c" 1
  78  0003              	IF (20000>=5) AND (20000<( 4 + __PBP__ * 2)) AND ( __PBP__ > 0 )
  78  0003              ;# 78 "C:\Users\YVTC\Desktop\單晶片微控制器(一)\0327\5-3-1.c" 1
  78  0003              	NOP
  78  0003              	ENDIF
  78  0003              ;# 78 "C:\Users\YVTC\Desktop\單晶片微控制器(一)\0327\5-3-1.c" 1
  78  0003              	IF (20000>=6) AND (20000<( 4 + __PBP__ * 2))  AND ( __PBP__ > 1 )
  78  0003              ;# 78 "C:\Users\YVTC\Desktop\單晶片微控制器(一)\0327\5-3-1.c" 1
  78  0003              	NOP
  78  0003              	ENDIF
  78  0003              ;# 78 "C:\Users\YVTC\Desktop\單晶片微控制器(一)\0327\5-3-1.c" 1
  78  0003              	IF (20000>=7) AND (20000<( 4 + __PBP__ * 2))  AND ( __PBP__ > 1 )
  78  0003              ;# 78 "C:\Users\YVTC\Desktop\單晶片微控制器(一)\0327\5-3-1.c" 1
  78  0003              	NOP
  78  0003              	ENDIF
  78  0003              ;# 78 "C:\Users\YVTC\Desktop\單晶片微控制器(一)\0327\5-3-1.c" 1
  78  0003              	IF (20000>=8) AND (20000<( 4 + __PBP__ * 2))  AND ( __PBP__ > 2 )
  78  0003              ;# 78 "C:\Users\YVTC\Desktop\單晶片微控制器(一)\0327\5-3-1.c" 1
  78  0003              	NOP
  78  0003              	ENDIF
  78  0003              ;# 78 "C:\Users\YVTC\Desktop\單晶片微控制器(一)\0327\5-3-1.c" 1
  78  0003              	IF (20000==9)  AND ( __PBP__ > 2 )
  78  0003              ;# 78 "C:\Users\YVTC\Desktop\單晶片微控制器(一)\0327\5-3-1.c" 1
  78  0003              	NOP
  78  0003              	ENDIF
  78  0003              ;# 78 "C:\Users\YVTC\Desktop\單晶片微控制器(一)\0327\5-3-1.c" 1
  78  0003              	IF (20000< ( 8 + __PBP__ * 2)) AND (20000>( 3 + __PBP__ * 2))
  78  0003              ;# 78 "C:\Users\YVTC\Desktop\單晶片微控制器(一)\0327\5-3-1.c" 1
  78  0003              	fcall __DELAY3 + ( 7 + __PBP__ * 2) -20000
  78  0003              	ENDIF
  78  0003              ;# 78 "C:\Users\YVTC\Desktop\單晶片微控制器(一)\0327\5-3-1.c" 1
  78  0003              	IF (20000< ( 0404h + __PBP__ * 2)) AND (20000>( 7 + __PBP__ * 2))
  78  0003              ;# 78 "C:\Users\YVTC\Desktop\單晶片微控制器(一)\0327\5-3-1.c" 1
"File: 5-3-1.c       Assembler  Version HGASM0202      Page 5

  78  0003              	MOV A,(20000-( 4 + __PBP__ * 2))/4
  78  0003              ;# 78 "C:\Users\YVTC\Desktop\單晶片微控制器(一)\0327\5-3-1.c" 1
  78  0003              	fcall __DELAYX3 + 3 -((20000-( 4 + __PBP__ * 2)) MOD 4) 
  78  0003              	ENDIF
  78  0003              ;# 78 "C:\Users\YVTC\Desktop\單晶片微控制器(一)\0327\5-3-1.c" 1
  78  0003              	IF (20000< ( 040bh + __PBP__ * 2)) AND (20000> ( 0403h + __PBP__ * 2))
  78  0003              ;# 78 "C:\Users\YVTC\Desktop\單晶片微控制器(一)\0327\5-3-1.c" 1
  78  0003              	MOV A,0 
  78  0003              ;# 78 "C:\Users\YVTC\Desktop\單晶片微控制器(一)\0327\5-3-1.c" 1
  78  0003              	fcall __DELAYX6 + ( 040ah + __PBP__ * 2) -20000
  78  0003              	ENDIF
  78  0003              ;# 78 "C:\Users\YVTC\Desktop\單晶片微控制器(一)\0327\5-3-1.c" 1
  78  0003              	IF (20000 >= ( 040bh + __PBP__ * 2)) AND ((((20000-( 9 + __PBP__ * 2))%0402h)/4+1)>256)
  78  0003              ;# 78 "C:\Users\YVTC\Desktop\單晶片微控制器(一)\0327\5-3-1.c" 1
  78  0003              	MOV A,(20000-( 9 + __PBP__ * 2))/0402h
  78  0003              ;# 78 "C:\Users\YVTC\Desktop\單晶片微控制器(一)\0327\5-3-1.c" 1
  78  0003              	MOV _builtin_holtek_delay_2,A
  78  0003              ;# 78 "C:\Users\YVTC\Desktop\單晶片微控制器(一)\0327\5-3-1.c" 1
  78  0003              	MOV A,0
  78  0003              ;# 78 "C:\Users\YVTC\Desktop\單晶片微控制器(一)\0327\5-3-1.c" 1
  78  0003              	fcall __DELAYY5 +5- (((20000-( 9 + __PBP__ * 2))%0402h)%6) 
  78  0003              	ENDIF
  78  0003              ;# 78 "C:\Users\YVTC\Desktop\單晶片微控制器(一)\0327\5-3-1.c" 1
  78  0003              	IF (20000 >= ( 040bh + __PBP__ * 2)) AND ((((20000-( 9 + __PBP__ * 2))%0402h)/4+1)<=256)
  78  0003              ;# 78 "C:\Users\YVTC\Desktop\單晶片微控制器(一)\0327\5-3-1.c" 1
  78  0003  0F13        	MOV A,(20000-( 9 + __PBP__ * 2))/0402h
  78  0004              ;# 78 "C:\Users\YVTC\Desktop\單晶片微控制器(一)\0327\5-3-1.c" 1
  78  0004  0080     E  	MOV _builtin_holtek_delay_2,A
  78  0005              ;# 78 "C:\Users\YVTC\Desktop\單晶片微控制器(一)\0327\5-3-1.c" 1
  78  0005  0F7C        	MOV A,((20000-( 9 + __PBP__ * 2))%0402h)/4+1
  78  0006              ;# 78 "C:\Users\YVTC\Desktop\單晶片微控制器(一)\0327\5-3-1.c" 1
  78  0006              	fcall __DELAYY3 +3-(((20000-( 9 + __PBP__ * 2))%0402h)%4) 
  78  000D              	ENDIF
  78  000D  1480     E  	inc ra
  78  000E              _L6:
  78  000E  0700     E  	mov a,ra
  78  000F  0200     R  	sub a,_PAUSE_2[0]
  78  0010  390A        	snz z
  78  0011  2800     R  	jmp _L7
  78  0012  0003        	ret
  78  0013              _PAUSE endp
  78  0013              #line 78 "C:\Users\YVTC\Desktop\單晶片微控制器(一)\0327\5-3-1.c"
  78  0013              #pragma debug scope 1 1
  78  0013              ___wdtc equ [62]
  78  0013              ___pec equ [35]
  78  0013              ___pdc equ [31]
  78  0013              ___psc0 equ [100]
  78  0013              ___tbc0 equ [101]
  78  0013              ___intc2 equ [50]
  78  0013              ___intc0 equ [48]
  78  0013              public _main
  78  0013              #pragma debug scope 5 1
  22  0013              #line 22 "C:\Users\YVTC\Desktop\單晶片微控制器(一)\0327\5-3-1.c"
  22  0013              IFDEF WITH_DEFAULT_STARTUP
  22  0013              extern _main_initial0:near
  22  0013              extern _main_startup:near
  22  0013              ENDIF
  22  0013              
  22  0013              ROMBANK 0 @start
  22  0000              @start .section com_l 'code'
"File: 5-3-1.c       Assembler  Version HGASM0202      Page 6

  22  0000              _main_startup1:
  22  0000              @start .section com_e 'code'
  22  0000  0F00     R  	mov a,bank _main
  22  0001  008B        	mov bp,a
  22  0002  2800     R  	jmp _main
  22  0003              
  22  0000              _main .section 'code'
  22  0000              _main proc
  22  0000  0002[           local _main_2 db 2 dup(?)
            00
            ]
  22  0002              #pragma debug variable 8 5 _main_2+1 "j"
  22  0002              #pragma debug variable 8 5 _main_2+0 "TabIndex"
  23  0002              #line 23 "C:\Users\YVTC\Desktop\單晶片微控制器(一)\0327\5-3-1.c"
  23  0000  0FAF        	mov a,175
  23  0001  00BE        	mov [62],a
  24  0002              #line 24 "C:\Users\YVTC\Desktop\單晶片微控制器(一)\0327\5-3-1.c"
  24  0002  1F22        	clr [34]
  24  0003  1F23        	clr [35]
  25  0004              #line 25 "C:\Users\YVTC\Desktop\單晶片微控制器(一)\0327\5-3-1.c"
  25  0004  1F1E        	clr [30]
  25  0005  1F1F        	clr [31]
  26  0006              #line 26 "C:\Users\YVTC\Desktop\單晶片微控制器(一)\0327\5-3-1.c"
  26  0006  0F01        	mov a,1
  26  0007  00E4        	mov [100],a
  26  0008  0F04        	mov a,4
  26  0009  00E5        	mov [101],a
  27  000A              #line 27 "C:\Users\YVTC\Desktop\單晶片微控制器(一)\0327\5-3-1.c"
  27  000A  30B2        	set [50].1
  27  000B  3030        	set [48].0
  28  000C              #line 28 "C:\Users\YVTC\Desktop\單晶片微控制器(一)\0327\5-3-1.c"
  28  000C  0F00     R  	mov a,low offset _Buffer
  28  000D  0080     R  	mov _ptr[0],a
  28  000E  0F00     R  	mov a,high offset _Buffer
  28  000F  0080     R  	mov _ptr[1],a
  28  0010  0F01        	mov a,1
  28  0011  0080     R  	mov _ScanCode[0],a
  30  0012              #line 30 "C:\Users\YVTC\Desktop\單晶片微控制器(一)\0327\5-3-1.c"
  30  0012  1F00     E  	clr ra
  30  0013              _L9:
  30  0013              #line 30 "C:\Users\YVTC\Desktop\單晶片微控制器(一)\0327\5-3-1.c"
  30  0013  0F07        	mov a,7
  30  0014  0200     E  	sub a,ra
  30  0015  380A        	snz c
  30  0016  2800     R  	jmp _L25
  30  0017              _L10:
  30  0017  0700     E  	mov a,ra
  30  0018  0080     E  	mov rb,a
  30  0019  1F00     E  	clr rc
  30  001A  0F00     R  	mov a,low offset _TabStop
  30  001B  0300     E  	add a,rb
  30  001C  0083        	mov mp,a
  30  001D  0F00     R  	mov a,high offset _TabStop
  30  001E  1300     E  	adc a,rc
  30  001F  0084        	mov sbp,a
  30  0020              	fcall _Crom2Prom
  30  0027  0080     E  	mov rd,a
  30  0028  0F00     R  	mov a,low offset _Buffer
  30  0029  0300     E  	add a,rb
  30  002A  0083        	mov mp,a
"File: 5-3-1.c       Assembler  Version HGASM0202      Page 7

  30  002B  0F00     R  	mov a,high offset _Buffer
  30  002C  1300     E  	adc a,rc
  30  002D  0084        	mov sbp,a
  30  002E  0700     E  	mov a,rd
  30  002F  0082        	mov ir,a
  30  0030  1480     E  	inc ra
  30  0031  2800     R  	jmp _L9
  30  0032              _L25:
  31  0032              #line 31 "C:\Users\YVTC\Desktop\單晶片微控制器(一)\0327\5-3-1.c"
  31  0032  33E5        	set [101].7
  31  0033  0FFA        	mov a,250
  31  0034              	fcall _PAUSE
  31  003B  0FFA        	mov a,250
  31  003C              	fcall _PAUSE
  32  0043              #line 32 "C:\Users\YVTC\Desktop\單晶片微控制器(一)\0327\5-3-1.c"
  32  0043  37E5        	clr [101].7
  32  0044  1F1E        	clr [30]
  33  0045              #line 33 "C:\Users\YVTC\Desktop\單晶片微控制器(一)\0327\5-3-1.c"
  33  0045  1F00     R  	clr _main_2[1]
  33  0046              _L11:
  59  0046              #line 59 "C:\Users\YVTC\Desktop\單晶片微控制器(一)\0327\5-3-1.c"
  59  0046  0F01        	mov a,1
  59  0047  0080     R  	mov _main_2[0],a
  59  0048              _L22:
  35  0048              #line 35 "C:\Users\YVTC\Desktop\單晶片微控制器(一)\0327\5-3-1.c"
  35  0048  1480     R  	inc _main_2[0]
  35  0049  0700     R  	mov a,_main_2[0]
  35  004A  0A07        	sub a,7
  35  004B  3D0A        	sz z
  35  004C  2800     R  	jmp _L26
  35  004D  0AFB        	sub a,(2)-(7)
  35  004E  3D0A        	sz z
  35  004F  2800     R  	jmp _L13
  36  0050              #line 36 "C:\Users\YVTC\Desktop\單晶片微控制器(一)\0327\5-3-1.c"
  36  0050  0700     R  	mov a,_main_2[0]
  36  0051  0A03        	sub a,3
  36  0052  3D0A        	sz z
  36  0053  2800     R  	jmp _L14
  36  0054  0A01        	sub a,(4)-(3)
  36  0055  3D0A        	sz z
  36  0056  2800     R  	jmp _L15
  36  0057  0700     R  	mov a,_main_2[0]
  36  0058  0A05        	sub a,5
  36  0059  390A        	snz z
  36  005A  2800     R  	jmp _L12
  55  005B              #line 55 "C:\Users\YVTC\Desktop\單晶片微控制器(一)\0327\5-3-1.c"
  55  005B  0F3C        	mov a,60
  55  005C  0080     R  	mov _Buffer[0],a
  55  005D  0F1C        	mov a,28
  55  005E  0080     R  	mov _Buffer[1],a
  55  005F  0F08        	mov a,8
  55  0060  0080     R  	mov _Buffer[2],a
  55  0061  0F3C        	mov a,60
  55  0062  0080     R  	mov _Buffer[3],a
  55  0063  0F6A        	mov a,106
  55  0064  0080     R  	mov _Buffer[4],a
  55  0065  0F4B        	mov a,75
  55  0066  0080     R  	mov _Buffer[5],a
  55  0067  0F34        	mov a,52
  55  0068  0080     R  	mov _Buffer[6],a
"File: 5-3-1.c       Assembler  Version HGASM0202      Page 8

  55  0069  0F22        	mov a,34
  55  006A  0080     R  	mov _Buffer[7],a
  55  006B  2800     R  	jmp _L12
  55  006C              _L15:
  51  006C              #line 51 "C:\Users\YVTC\Desktop\單晶片微控制器(一)\0327\5-3-1.c"
  51  006C  0F78        	mov a,120
  51  006D  0080     R  	mov _Buffer[0],a
  51  006E  0F38        	mov a,56
  51  006F  0080     R  	mov _Buffer[1],a
  51  0070  0F10        	mov a,16
  51  0071  0080     R  	mov _Buffer[2],a
  51  0072  0F18        	mov a,24
  51  0073  0080     R  	mov _Buffer[3],a
  51  0074  0F2C        	mov a,44
  51  0075  0080     R  	mov _Buffer[4],a
  51  0076  0F28        	mov a,40
  51  0077  0080     R  	mov _Buffer[5],a
  51  0078  0F14        	mov a,20
  51  0079  0080     R  	mov _Buffer[6],a
  51  007A  0F14        	mov a,20
  51  007B  0080     R  	mov _Buffer[7],a
  51  007C  2800     R  	jmp _L12
  51  007D              _L14:
  47  007D              #line 47 "C:\Users\YVTC\Desktop\單晶片微控制器(一)\0327\5-3-1.c"
  47  007D  0F78        	mov a,120
  47  007E  0080     R  	mov _Buffer[0],a
  47  007F  0F38        	mov a,56
  47  0080  0080     R  	mov _Buffer[1],a
  47  0081  0F10        	mov a,16
  47  0082  0080     R  	mov _Buffer[2],a
  47  0083  0F18        	mov a,24
  47  0084  0080     R  	mov _Buffer[3],a
  47  0085  0F18        	mov a,24
  47  0086  0080     R  	mov _Buffer[4],a
  47  0087  0F18        	mov a,24
  47  0088  0080     R  	mov _Buffer[5],a
  47  0089  0F18        	mov a,24
  47  008A  0080     R  	mov _Buffer[6],a
  47  008B  0F38        	mov a,56
  47  008C  0080     R  	mov _Buffer[7],a
  47  008D  2800     R  	jmp _L12
  47  008E              _L13:
  43  008E              #line 43 "C:\Users\YVTC\Desktop\單晶片微控制器(一)\0327\5-3-1.c"
  43  008E  0F78        	mov a,120
  43  008F  0080     R  	mov _Buffer[0],a
  43  0090  0F38        	mov a,56
  43  0091  0080     R  	mov _Buffer[1],a
  43  0092  0F10        	mov a,16
  43  0093  0080     R  	mov _Buffer[2],a
  43  0094  0F3E        	mov a,62
  43  0095  0080     R  	mov _Buffer[3],a
  43  0096  0F4B        	mov a,75
  43  0097  0080     R  	mov _Buffer[4],a
  43  0098  0FC8        	mov a,200
  43  0099  0080     R  	mov _Buffer[5],a
  43  009A  0F16        	mov a,22
  43  009B  0080     R  	mov _Buffer[6],a
  43  009C  0F63        	mov a,99
  43  009D  0080     R  	mov _Buffer[7],a
  43  009E              _L12:
"File: 5-3-1.c       Assembler  Version HGASM0202      Page 9

  58  009E              #line 58 "C:\Users\YVTC\Desktop\單晶片微控制器(一)\0327\5-3-1.c"
  58  009E  0F00     R  	mov a,low offset _Buffer
  58  009F  0080     R  	mov _ptr[0],a
  58  00A0  0F00     R  	mov a,high offset _Buffer
  58  00A1  0080     R  	mov _ptr[1],a
  58  00A2  0F01        	mov a,1
  58  00A3  0080     R  	mov _ScanCode[0],a
  59  00A4              #line 59 "C:\Users\YVTC\Desktop\單晶片微控制器(一)\0327\5-3-1.c"
  59  00A4  0F09        	mov a,9
  59  00A5  0200     R  	sub a,_main_2[1]
  59  00A6  380A        	snz c
  59  00A7  2800     R  	jmp _L23
  59  00A8  0F12        	mov a,18
  59  00A9  0080     E  	mov ra,a
  59  00AA  2800     R  	jmp _L17
  59  00AB              _L23:
  59  00AB  0F08        	mov a,8
  59  00AC  0080     E  	mov ra,a
  59  00AD              _L17:
  60  00AD              #line 60 "C:\Users\YVTC\Desktop\單晶片微控制器(一)\0327\5-3-1.c"
  60  00AD  33E5        	set [101].7
  60  00AE  0700     E  	mov a,ra
  60  00AF              	fcall _PAUSE
  60  00B6              _L19:
  61  00B6              #line 61 "C:\Users\YVTC\Desktop\單晶片微控制器(一)\0327\5-3-1.c"
  61  00B6  0700     R  	mov a,_ptr[0]
  61  00B7  0A00     R  	sub a,low offset _Buffer
  61  00B8  0700     R  	mov a,_ptr[1]
  61  00B9  0800     R  	sbc a,high offset _Buffer
  61  00BA  3B0A        	snz cz
  61  00BB  2800     R  	jmp _L19
  62  00BC              #line 62 "C:\Users\YVTC\Desktop\單晶片微控制器(一)\0327\5-3-1.c"
  62  00BC  37E5        	clr [101].7
  62  00BD  1F1E        	clr [30]
  62  00BE  2800     R  	jmp _L22
  62  00BF              _L26:
  33  00BF              #line 33 "C:\Users\YVTC\Desktop\單晶片微控制器(一)\0327\5-3-1.c"
  33  00BF  1480     R  	inc _main_2[1]
  33  00C0  0700     R  	mov a,_main_2[1]
  33  00C1  0A14        	sub a,20
  33  00C2  390A        	snz z
  33  00C3  2800     R  	jmp _L11
  30  00C4              #line 30 "C:\Users\YVTC\Desktop\單晶片微控制器(一)\0327\5-3-1.c"
  30  00C4  1F00     E  	clr ra
  30  00C5  2800     R  	jmp _L10
  30  00C6  2800     R  	jmp $
  30  00C7              _main endp
  30  00C7              
  30  00C7              @dummy endp
  30  00C7              
  30  00C7              #line 30 "C:\Users\YVTC\Desktop\單晶片微控制器(一)\0327\5-3-1.c"
  30  00C7              #pragma debug scope 1 1
  20  00C7              #line 20 "C:\Users\YVTC\Desktop\單晶片微控制器(一)\0327\5-3-1.c"
  20  00C7              public _ptr
  20  0000              @HCCINIT0_ptr .section 'data'
  20  0000  0002[       _ptr	db 2 dup(0)
            00
            ]
  20  0002              #pragma debug pointer 42 8 1
  20  0002              #pragma debug pointer 42 8 1
"File: 5-3-1.c       Assembler  Version HGASM0202      Page 10

  20  0002              #pragma debug variable 42 1 _ptr "ptr"
  20  0002              
  20  0000              @HCCINIT .section 'data'
  19  0000              #line 19 "C:\Users\YVTC\Desktop\單晶片微控制器(一)\0327\5-3-1.c"
  19  0000              public _Buffer
  19  0000              @HCCINIT0_Buffer .section 'data'
  19  0000  0008[       _Buffer	db 8 dup(0)
            00
            ]
  19  0008              #pragma debug array 43 8 8 1
  19  0008              #pragma debug array 43 8 8 1
  19  0008              #pragma debug variable 43 1 _Buffer "Buffer"
  19  0008              
  19  0000              @HCCINIT .section 'data'
  19  0000              #line 19 "C:\Users\YVTC\Desktop\單晶片微控制器(一)\0327\5-3-1.c"
  19  0000              public _ScanCode
  19  0000              @HCCINIT0_ScanCode .section 'data'
  19  0000              _ScanCode	db 0
  19  0001              #pragma debug variable 8 1 _ScanCode "ScanCode"
  19  0001              
  19  0000              @HCCINIT .section 'data'
  19  0000              public _TabWalk5
  19  0000              @crom	.section 'crom'
  16  0000              #line 16 "C:\Users\YVTC\Desktop\單晶片微控制器(一)\0327\5-3-1.c"
  16  0000              @crom	.section	'crom'
  16  0000              _TabWalk5:
  16  0000              #pragma debug variable 43 1 _TabWalk5 "TabWalk5"
  16  0000              	db 60
  16  0001              	db 28
  16  0001              	db 8
  16  0002              	db 60
  16  0002              	db 106
  16  0003              	db 75
  16  0003              	db 52
  16  0004              	db 34
  16  0004              public _TabWalk4
  14  0004              #line 14 "C:\Users\YVTC\Desktop\單晶片微控制器(一)\0327\5-3-1.c"
  14  0004              @crom	.section	'crom'
  14  0004              _TabWalk4:
  14  0004              #pragma debug variable 43 1 _TabWalk4 "TabWalk4"
  14  0004              	db 120
  14  0005              	db 56
  14  0005              	db 16
  14  0006              	db 24
  14  0006              	db 44
  14  0007              	db 40
  14  0007              	db 20
  14  0008              	db 20
  14  0008              public _TabWalk3
  12  0008              #line 12 "C:\Users\YVTC\Desktop\單晶片微控制器(一)\0327\5-3-1.c"
  12  0008              @crom	.section	'crom'
  12  0008              _TabWalk3:
  12  0008              #pragma debug variable 43 1 _TabWalk3 "TabWalk3"
  12  0008              	db 120
  12  0009              	db 56
  12  0009              	db 16
  12  000A              	db 24
  12  000A              	db 24
  12  000B              	db 24
  12  000B              	db 24
"File: 5-3-1.c       Assembler  Version HGASM0202      Page 11

  12  000C              	db 56
  12  000C              public _TabWalk2
  10  000C              #line 10 "C:\Users\YVTC\Desktop\單晶片微控制器(一)\0327\5-3-1.c"
  10  000C              @crom	.section	'crom'
  10  000C              _TabWalk2:
  10  000C              #pragma debug variable 43 1 _TabWalk2 "TabWalk2"
  10  000C              	db 120
  10  000D              	db 56
  10  000D              	db 16
  10  000E              	db 62
  10  000E              	db 75
  10  000F              	db -56
  10  000F              	db 22
  10  0010              	db 99
  10  0010              public _TabWalk1
   8  0010              #line 8 "C:\Users\YVTC\Desktop\單晶片微控制器(一)\0327\5-3-1.c"
   8  0010              @crom	.section	'crom'
   8  0010              _TabWalk1:
   8  0010              #pragma debug variable 43 1 _TabWalk1 "TabWalk1"
   8  0010              	db 60
   8  0011              	db 28
   8  0011              	db 8
   8  0012              	db 12
   8  0012              	db 26
   8  0013              	db 40
   8  0013              	db 20
   8  0014              	db 20
   8  0014              public _TabStop
   6  0014              #line 6 "C:\Users\YVTC\Desktop\單晶片微控制器(一)\0327\5-3-1.c"
   6  0014              @crom	.section	'crom'
   6  0014              _TabStop:
   6  0014              #pragma debug variable 43 1 _TabStop "TabStop"
   6  0014              	db 24
   6  0015              	db 24
   6  0015              	db 60
   6  0016              	db 90
   6  0016              	db 90
   6  0017              	db 36
   6  0017              	db 36
   6  0018              	db 102
   6  0018              #pragma debug struct_end
   6  0018              #pragma debug struct_end
   6  0018              #pragma debug union_end
   6  0018              #pragma debug union_end
   6  0018              #pragma debug variable 45 1 ___pd "__pd" 1
   6  0018              #pragma debug struct_end
   6  0018              #pragma debug struct_end
   6  0018              #pragma debug union_end
   6  0018              #pragma debug union_end
   6  0018              #pragma debug variable 47 1 ___pdc "__pdc" 1
   6  0018              #pragma debug struct_end
   6  0018              #pragma debug struct_end
   6  0018              #pragma debug union_end
   6  0018              #pragma debug union_end
   6  0018              #pragma debug variable 49 1 ___pe "__pe" 1
   6  0018              #pragma debug struct_end
   6  0018              #pragma debug struct_end
   6  0018              #pragma debug union_end
   6  0018              #pragma debug union_end
   6  0018              #pragma debug variable 51 1 ___pec "__pec" 1
"File: 5-3-1.c       Assembler  Version HGASM0202      Page 12

   6  0018              #pragma debug struct_end
   6  0018              #pragma debug struct_end
   6  0018              #pragma debug union_end
   6  0018              #pragma debug union_end
   6  0018              #pragma debug variable 53 1 ___intc0 "__intc0" 1
   6  0018              #pragma debug struct_end
   6  0018              #pragma debug struct_end
   6  0018              #pragma debug union_end
   6  0018              #pragma debug union_end
   6  0018              #pragma debug variable 55 1 ___intc2 "__intc2" 1
   6  0018              #pragma debug struct_end
   6  0018              #pragma debug struct_end
   6  0018              #pragma debug union_end
   6  0018              #pragma debug union_end
   6  0018              #pragma debug variable 57 1 ___wdtc "__wdtc" 1
   6  0018              #pragma debug struct_end
   6  0018              #pragma debug struct_end
   6  0018              #pragma debug union_end
   6  0018              #pragma debug union_end
   6  0018              #pragma debug variable 59 1 ___psc0 "__psc0" 1
   6  0018              #pragma debug struct_end
   6  0018              #pragma debug struct_end
   6  0018              #pragma debug union_end
   6  0018              #pragma debug union_end
   6  0018              #pragma debug variable 61 1 ___tbc0 "__tbc0" 1
   6  0018              extern r1:byte
   6  0018              extern r2:byte
   6  0018              extern r3:byte
   6  0018              extern r4:byte
   6  0018              extern r5:byte
   6  0018              extern r6:byte
   6  0018              extern r7:byte
  22  0018              #line 22 "C:\Users\YVTC\Desktop\單晶片微控制器(一)\0327\5-3-1.c"
  22  0000              @code .section at 0 'code'
  22  0000  1F0B        	clr bp
  22  0001  2800     R  	jmp _main_startup1
  22  0002              
  22  0002              
  22  0002              ; 
  22  0002              ; Generated by holtek-gcc v3.18, Tue Apr 17 09:47:54 2018
  22  0002              ; Rebuild 126
  22  0002              ; end of file


        0 Errors, 0