"File: 5-3.c         Assembler  Version HGASM0202      Page 1


   1  0000              ; Generated by holtek-gcc v3.18, Tue Apr 17 10:02:57 2018
   2  0000              ; 
   3  0000              ; Configuration:
   4  0000              ;       with long instruction
   5  0000              ;       Multi-ROM, Multi-RAM
   6  0000              ;       bits_per_rom_unit:16
   7  0000              ;       with mp1
   8  0000              ;       with tbhp, address(0x9)
   9  0000              ;          Use tabrd-const
  10  0000              ;       
  11  0000              ; SFR address of long-instruction arch:
  12  0000              ;    mp0 = -1,1,0
  13  0000              ;    mp1 = 4,3,2
  14  0000              ;    mp2 = 14,13,12
  15  0000              ;    tbp = 9,7,8
  16  0000              ;    acc = 5
  17  0000              ;    pcl = 6
  18  0000              ;    status = 10
  19  0000              ;    bp = 11
  20  0000              ;    intc = 48
  21  0000              ;       
  22  0000              ;       
  23  0000              ; use 'tabrdc' instead of 'tabrd'
  24  0000              ;       
  25  0000              
  26  0000              #pragma translator "holtek-gcc 4.6.4" "3.18" "build 20130711"
  27  0000              ; Rebuild 126
  28  0000              
  29  0000              ir equ [2]
  30  0000              mp equ [3]
  31  0000              sbp equ [4]
  32  0000              acc equ [5]
  33  0000              bp equ [11]
  34  0000              tblp equ [7]
  35  0000              tbhp equ [9]
  36  0000              status equ [10]
  37  0000              c equ [10].0
  38  0000              ac equ [10].1
  39  0000              z equ [10].2
  40  0000              ov equ [10].3
  41  0000              cz equ [10].6
  42  0000              sc equ [10].7
  43  0000              intc equ [48]
  44  0000              
  45  0000              extern ra:byte
  46  0000              extern rb:byte
  47  0000              extern rc:byte
  48  0000              extern rd:byte
  49  0000              extern re:byte
  50  0000              extern rf:byte
  51  0000              extern rg:byte
  52  0000              extern rh:byte
  53  0000              extern _Crom2Prom:near
  54  0000              extern _Crom2PromNext:near
  55  0000              
  56  0000              RAMBANK 0 @BITDATASEC, @BITDATASEC1
  57  0000              @HCCINIT	.section 'data'
  58  0000              @HCCINIT0	.section 'data'
  59  0000              @BITDATASEC	 .section 'data'
"File: 5-3.ASM       Assembler  Version HGASM0202      Page 2

  60  0000              @BITDATASEC1	 .section 'data'
  61  0000              
  62  0000              #pragma debug scope 1 1
  63  0000              	extern __DELAY3:near
  64  0000              	extern __DELAYX3:near
  65  0000              	extern __DELAYX6:near
  66  0000              	extern __DELAYY5:near
  67  0000              	extern __DELAYY3:near
  68  0000              	extern _builtin_holtek_delay_2:byte
  69  0000              ___pd equ [30]
  70  0000              ___pe equ [34]
  71  0000              public _ISR_TB0
  72  0000              #pragma debug scope 2 1

  32  0000              #line 32 "C:\Users\YVTC\Desktop\單晶片微控制器(一)\0327\5-3.c"
  32  0000              rombank 0 @ISR_TB0_code
  32  0000              @ISR_TB0_code .section at 36 'code'
  32  0000  0080     E  	mov r1,a
  32  0001  070B        	mov a,bp
  32  0002  1F0B        	clr bp
  32  0003  2800     R  	jmp _ISR_TB0
  32  0004              ROMBANK 0 _ISR_TB0
  32  0004              #pragma debug scope 1 1
  32  0004              @dummy36 endp
  32  0004              #pragma debug scope 3 1
  32  0000              _ISR_TB0 .section 'code'
  32  0000              _ISR_TB0 proc
  32  0000  0080     E  	mov r2,a
  32  0001  070A        	mov a, status
  32  0002  0080     E  	mov r3,a
  32  0003  0703        	mov a,mp
  32  0004  0080     E  	mov r4,a
  32  0005  0704        	mov a,sbp
  32  0006  0080     E  	mov r5,a
  32  0007  0707        	mov a,tblp
  32  0008  0080     E  	mov r6,a
  32  0009  0709        	mov a,tbhp
  32  000A  0080     E  	mov r7,a
  32  000B  1F1E        	clr [30]
  33  000C              #line 33 "C:\Users\YVTC\Desktop\單晶片微控制器(一)\0327\5-3.c"
  33  000C  0700     R  	mov a,_ScanCode[0]
  33  000D  0080     E  	mov ra,a
  33  000E  0700     E  	mov a,ra
  33  000F  00A2        	mov [34],a
  33  0010  0700     R  	mov a,_ptr[0]
  33  0011  0080     E  	mov rb,a
  33  0012  0700     R  	mov a,_ptr[1]
  33  0013  0080     E  	mov rc,a
  33  0014  0F01        	mov a,1
  33  0015  0300     E  	add a,rb
  33  0016  0080     R  	mov _ptr[0],a
  33  0017  0F00        	mov a,0
  33  0018  1300     E  	adc a,rc
  33  0019  0080     R  	mov _ptr[1],a
  33  001A  0700     E  	mov a,rb
  33  001B  0083        	mov mp,a
  33  001C  0700     E  	mov a,rc
  33  001D  0084        	mov sbp,a
  33  001E              	fcall _Crom2Prom
  33  0025  009E        	mov [30],a
"File: 5-3.c         Assembler  Version HGASM0202      Page 3

  34  0026              #line 34 "C:\Users\YVTC\Desktop\單晶片微控制器(一)\0327\5-3.c"
  34  0026  0700     E  	mov a,ra
  34  0027  0380     E  	addm a,ra
  35  0028              #line 35 "C:\Users\YVTC\Desktop\單晶片微控制器(一)\0327\5-3.c"
  35  0028  1E00     E  	snz ra
  35  0029  2800     R  	jmp _L2
  34  002A              #line 34 "C:\Users\YVTC\Desktop\單晶片微控制器(一)\0327\5-3.c"
  34  002A  0700     E  	mov a,ra
  34  002B  0080     R  	mov _ScanCode[0],a
  34  002C  2800     R  	jmp _L1
  34  002D              _L2:
  36  002D              #line 36 "C:\Users\YVTC\Desktop\單晶片微控制器(一)\0327\5-3.c"
  36  002D  0F01        	mov a,1
  36  002E  0080     R  	mov _ScanCode[0],a
  37  002F              #line 37 "C:\Users\YVTC\Desktop\單晶片微控制器(一)\0327\5-3.c"
  37  002F  0F00     R  	mov a,low offset _Buffer
  37  0030  0080     R  	mov _ptr[0],a
  37  0031  0F00     R  	mov a,high offset _Buffer
  37  0032  0080     R  	mov _ptr[1],a
  37  0033              _L1:
  37  0033  0700     E  	mov a,r2
  37  0034  008B        	mov bp,a
  37  0035  0700     E  	mov a,r3
  37  0036  008A        	mov status,a
  37  0037  0700     E  	mov a,r4
  37  0038  0083        	mov mp,a
  37  0039  0700     E  	mov a,r5
  37  003A  0084        	mov sbp,a
  37  003B  0700     E  	mov a,r6
  37  003C  0087        	mov tblp,a
  37  003D  0700     E  	mov a,r7
  37  003E  0089        	mov tbhp,a
  37  003F  1D05        	tabrdc acc
  37  0040  0700     E  	mov a,r1
  37  0041  0004        	reti
  37  0042              _ISR_TB0 endp
  37  0042              
  37  0042              #line 37 "C:\Users\YVTC\Desktop\單晶片微控制器(一)\0327\5-3.c"
  37  0042              #pragma debug scope 1 1
  37  0042              public _PAUSE
  37  0042              #pragma debug scope 4 1
  41  0042              #line 41 "C:\Users\YVTC\Desktop\單晶片微控制器(一)\0327\5-3.c"
  41  0000              _PAUSE .section 'code'
  41  0000              _PAUSE proc
  41  0000  00              local _PAUSE_2 db 1 dup(?)	; 0,1
  41  0000  0080     R  	mov _PAUSE_2[0],a
  41  0001              #pragma debug variable 8 4 _PAUSE_2+0 "i"
  42  0001              #line 42 "C:\Users\YVTC\Desktop\單晶片微控制器(一)\0327\5-3.c"
  42  0001  1F00     E  	clr ra
  42  0002  2800     R  	jmp _L6
  42  0003              _L7:
  42  0003              #line 42 "C:\Users\YVTC\Desktop\單晶片微控制器(一)\0327\5-3.c"
  42  0003              ;# 42 "C:\Users\YVTC\Desktop\單晶片微控制器(一)\0327\5-3.c" 1
  42  0003              	IF 20000>263690
  42  0003              ;# 42 "C:\Users\YVTC\Desktop\單晶片微控制器(一)\0327\5-3.c" 1
  42  0003              	ERRMESSAGE 'the value 20000of the argument exceeds the maxinum 263690'
  42  0003              	ENDIF
  42  0003              ;# 42 "C:\Users\YVTC\Desktop\單晶片微控制器(一)\0327\5-3.c" 1
  42  0003              	IF 20000<0
  42  0003              ;# 42 "C:\Users\YVTC\Desktop\單晶片微控制器(一)\0327\5-3.c" 1
"File: 5-3.c         Assembler  Version HGASM0202      Page 4

  42  0003              	ERRMESSAGE 'the value 20000 of the argument exceeds the mininum 0'
  42  0003              	ENDIF
  42  0003              ;# 42 "C:\Users\YVTC\Desktop\單晶片微控制器(一)\0327\5-3.c" 1
  42  0003              	IF 20000==0
  42  0003              ;# 42 "C:\Users\YVTC\Desktop\單晶片微控制器(一)\0327\5-3.c" 1
  42  0003              	JMP $
  42  0003              	ENDIF
  42  0003              ;# 42 "C:\Users\YVTC\Desktop\單晶片微控制器(一)\0327\5-3.c" 1
  42  0003              	IF (20000>=1) AND (20000<( 4 + __PBP__ * 2))
  42  0003              ;# 42 "C:\Users\YVTC\Desktop\單晶片微控制器(一)\0327\5-3.c" 1
  42  0003              	NOP
  42  0003              	ENDIF
  42  0003              ;# 42 "C:\Users\YVTC\Desktop\單晶片微控制器(一)\0327\5-3.c" 1
  42  0003              	IF (20000>=2) AND (20000<( 4 + __PBP__ * 2))
  42  0003              ;# 42 "C:\Users\YVTC\Desktop\單晶片微控制器(一)\0327\5-3.c" 1
  42  0003              	NOP
  42  0003              	ENDIF
  42  0003              ;# 42 "C:\Users\YVTC\Desktop\單晶片微控制器(一)\0327\5-3.c" 1
  42  0003              	IF (20000>=3) AND (20000<( 4 + __PBP__ * 2))
  42  0003              ;# 42 "C:\Users\YVTC\Desktop\單晶片微控制器(一)\0327\5-3.c" 1
  42  0003              	NOP
  42  0003              	ENDIF
  42  0003              ;# 42 "C:\Users\YVTC\Desktop\單晶片微控制器(一)\0327\5-3.c" 1
  42  0003              	IF (20000>=4) AND (20000<( 4 + __PBP__ * 2)) AND ( __PBP__ > 0 )
  42  0003              ;# 42 "C:\Users\YVTC\Desktop\單晶片微控制器(一)\0327\5-3.c" 1
  42  0003              	NOP
  42  0003              	ENDIF
  42  0003              ;# 42 "C:\Users\YVTC\Desktop\單晶片微控制器(一)\0327\5-3.c" 1
  42  0003              	IF (20000>=5) AND (20000<( 4 + __PBP__ * 2)) AND ( __PBP__ > 0 )
  42  0003              ;# 42 "C:\Users\YVTC\Desktop\單晶片微控制器(一)\0327\5-3.c" 1
  42  0003              	NOP
  42  0003              	ENDIF
  42  0003              ;# 42 "C:\Users\YVTC\Desktop\單晶片微控制器(一)\0327\5-3.c" 1
  42  0003              	IF (20000>=6) AND (20000<( 4 + __PBP__ * 2))  AND ( __PBP__ > 1 )
  42  0003              ;# 42 "C:\Users\YVTC\Desktop\單晶片微控制器(一)\0327\5-3.c" 1
  42  0003              	NOP
  42  0003              	ENDIF
  42  0003              ;# 42 "C:\Users\YVTC\Desktop\單晶片微控制器(一)\0327\5-3.c" 1
  42  0003              	IF (20000>=7) AND (20000<( 4 + __PBP__ * 2))  AND ( __PBP__ > 1 )
  42  0003              ;# 42 "C:\Users\YVTC\Desktop\單晶片微控制器(一)\0327\5-3.c" 1
  42  0003              	NOP
  42  0003              	ENDIF
  42  0003              ;# 42 "C:\Users\YVTC\Desktop\單晶片微控制器(一)\0327\5-3.c" 1
  42  0003              	IF (20000>=8) AND (20000<( 4 + __PBP__ * 2))  AND ( __PBP__ > 2 )
  42  0003              ;# 42 "C:\Users\YVTC\Desktop\單晶片微控制器(一)\0327\5-3.c" 1
  42  0003              	NOP
  42  0003              	ENDIF
  42  0003              ;# 42 "C:\Users\YVTC\Desktop\單晶片微控制器(一)\0327\5-3.c" 1
  42  0003              	IF (20000==9)  AND ( __PBP__ > 2 )
  42  0003              ;# 42 "C:\Users\YVTC\Desktop\單晶片微控制器(一)\0327\5-3.c" 1
  42  0003              	NOP
  42  0003              	ENDIF
  42  0003              ;# 42 "C:\Users\YVTC\Desktop\單晶片微控制器(一)\0327\5-3.c" 1
  42  0003              	IF (20000< ( 8 + __PBP__ * 2)) AND (20000>( 3 + __PBP__ * 2))
  42  0003              ;# 42 "C:\Users\YVTC\Desktop\單晶片微控制器(一)\0327\5-3.c" 1
  42  0003              	fcall __DELAY3 + ( 7 + __PBP__ * 2) -20000
  42  0003              	ENDIF
  42  0003              ;# 42 "C:\Users\YVTC\Desktop\單晶片微控制器(一)\0327\5-3.c" 1
  42  0003              	IF (20000< ( 0404h + __PBP__ * 2)) AND (20000>( 7 + __PBP__ * 2))
  42  0003              ;# 42 "C:\Users\YVTC\Desktop\單晶片微控制器(一)\0327\5-3.c" 1
"File: 5-3.c         Assembler  Version HGASM0202      Page 5

  42  0003              	MOV A,(20000-( 4 + __PBP__ * 2))/4
  42  0003              ;# 42 "C:\Users\YVTC\Desktop\單晶片微控制器(一)\0327\5-3.c" 1
  42  0003              	fcall __DELAYX3 + 3 -((20000-( 4 + __PBP__ * 2)) MOD 4) 
  42  0003              	ENDIF
  42  0003              ;# 42 "C:\Users\YVTC\Desktop\單晶片微控制器(一)\0327\5-3.c" 1
  42  0003              	IF (20000< ( 040bh + __PBP__ * 2)) AND (20000> ( 0403h + __PBP__ * 2))
  42  0003              ;# 42 "C:\Users\YVTC\Desktop\單晶片微控制器(一)\0327\5-3.c" 1
  42  0003              	MOV A,0 
  42  0003              ;# 42 "C:\Users\YVTC\Desktop\單晶片微控制器(一)\0327\5-3.c" 1
  42  0003              	fcall __DELAYX6 + ( 040ah + __PBP__ * 2) -20000
  42  0003              	ENDIF
  42  0003              ;# 42 "C:\Users\YVTC\Desktop\單晶片微控制器(一)\0327\5-3.c" 1
  42  0003              	IF (20000 >= ( 040bh + __PBP__ * 2)) AND ((((20000-( 9 + __PBP__ * 2))%0402h)/4+1)>256)
  42  0003              ;# 42 "C:\Users\YVTC\Desktop\單晶片微控制器(一)\0327\5-3.c" 1
  42  0003              	MOV A,(20000-( 9 + __PBP__ * 2))/0402h
  42  0003              ;# 42 "C:\Users\YVTC\Desktop\單晶片微控制器(一)\0327\5-3.c" 1
  42  0003              	MOV _builtin_holtek_delay_2,A
  42  0003              ;# 42 "C:\Users\YVTC\Desktop\單晶片微控制器(一)\0327\5-3.c" 1
  42  0003              	MOV A,0
  42  0003              ;# 42 "C:\Users\YVTC\Desktop\單晶片微控制器(一)\0327\5-3.c" 1
  42  0003              	fcall __DELAYY5 +5- (((20000-( 9 + __PBP__ * 2))%0402h)%6) 
  42  0003              	ENDIF
  42  0003              ;# 42 "C:\Users\YVTC\Desktop\單晶片微控制器(一)\0327\5-3.c" 1
  42  0003              	IF (20000 >= ( 040bh + __PBP__ * 2)) AND ((((20000-( 9 + __PBP__ * 2))%0402h)/4+1)<=256)
  42  0003              ;# 42 "C:\Users\YVTC\Desktop\單晶片微控制器(一)\0327\5-3.c" 1
  42  0003  0F13        	MOV A,(20000-( 9 + __PBP__ * 2))/0402h
  42  0004              ;# 42 "C:\Users\YVTC\Desktop\單晶片微控制器(一)\0327\5-3.c" 1
  42  0004  0080     E  	MOV _builtin_holtek_delay_2,A
  42  0005              ;# 42 "C:\Users\YVTC\Desktop\單晶片微控制器(一)\0327\5-3.c" 1
  42  0005  0F7C        	MOV A,((20000-( 9 + __PBP__ * 2))%0402h)/4+1
  42  0006              ;# 42 "C:\Users\YVTC\Desktop\單晶片微控制器(一)\0327\5-3.c" 1
  42  0006              	fcall __DELAYY3 +3-(((20000-( 9 + __PBP__ * 2))%0402h)%4) 
  42  000D              	ENDIF
  42  000D  1480     E  	inc ra
  42  000E              _L6:
  42  000E  0700     E  	mov a,ra
  42  000F  0200     R  	sub a,_PAUSE_2[0]
  42  0010  390A        	snz z
  42  0011  2800     R  	jmp _L7
  42  0012  0003        	ret
  42  0013              _PAUSE endp
  42  0013              #line 42 "C:\Users\YVTC\Desktop\單晶片微控制器(一)\0327\5-3.c"
  42  0013              #pragma debug scope 1 1
  42  0013              ___wdtc equ [62]
  42  0013              ___pec equ [35]
  42  0013              ___pdc equ [31]
  42  0013              ___psc0 equ [100]
  42  0013              ___tbc0 equ [101]
  42  0013              ___intc2 equ [50]
  42  0013              ___intc0 equ [48]
  42  0013              public _main
  42  0013              #pragma debug scope 5 1
  15  0013              #line 15 "C:\Users\YVTC\Desktop\單晶片微控制器(一)\0327\5-3.c"
  15  0013              IFDEF WITH_DEFAULT_STARTUP
  15  0013              extern _main_initial0:near
  15  0013              extern _main_startup:near
  15  0013              ENDIF
  15  0013              
  15  0013              ROMBANK 0 @start
  15  0000              @start .section com_l 'code'
"File: 5-3.c         Assembler  Version HGASM0202      Page 6

  15  0000              _main_startup1:
  15  0000              @start .section com_e 'code'
  15  0000  0F00     R  	mov a,bank _main
  15  0001  008B        	mov bp,a
  15  0002  2800     R  	jmp _main
  15  0003              
  15  0000              _main .section 'code'
  15  0000              _main proc
  16  0000              #line 16 "C:\Users\YVTC\Desktop\單晶片微控制器(一)\0327\5-3.c"
  16  0000  0FAF        	mov a,175
  16  0001  00BE        	mov [62],a
  17  0002              #line 17 "C:\Users\YVTC\Desktop\單晶片微控制器(一)\0327\5-3.c"
  17  0002  1F22        	clr [34]
  17  0003  1F23        	clr [35]
  18  0004              #line 18 "C:\Users\YVTC\Desktop\單晶片微控制器(一)\0327\5-3.c"
  18  0004  1F1E        	clr [30]
  18  0005  1F1F        	clr [31]
  19  0006              #line 19 "C:\Users\YVTC\Desktop\單晶片微控制器(一)\0327\5-3.c"
  19  0006  0F01        	mov a,1
  19  0007  00E4        	mov [100],a
  19  0008  0F01        	mov a,1
  19  0009  00E5        	mov [101],a
  20  000A              #line 20 "C:\Users\YVTC\Desktop\單晶片微控制器(一)\0327\5-3.c"
  20  000A  0F00     R  	mov a,low offset _Buffer
  20  000B  0080     R  	mov _ptr[0],a
  20  000C  0F00     R  	mov a,high offset _Buffer
  20  000D  0080     R  	mov _ptr[1],a
  20  000E  0F01        	mov a,1
  20  000F  0080     R  	mov _ScanCode[0],a
  21  0010              #line 21 "C:\Users\YVTC\Desktop\單晶片微控制器(一)\0327\5-3.c"
  21  0010  30B2        	set [50].1
  21  0011  3030        	set [48].0
  23  0012              #line 23 "C:\Users\YVTC\Desktop\單晶片微控制器(一)\0327\5-3.c"
  23  0012  1F00     E  	clr ra
  23  0013              _L9:
  23  0013              #line 23 "C:\Users\YVTC\Desktop\單晶片微控制器(一)\0327\5-3.c"
  23  0013  0F07        	mov a,7
  23  0014  0200     E  	sub a,ra
  23  0015  380A        	snz c
  23  0016  2800     R  	jmp _L12
  23  0017              _L10:
  23  0017  0700     E  	mov a,ra
  23  0018  0080     E  	mov rb,a
  23  0019  1F00     E  	clr rc
  23  001A  0F00     R  	mov a,low offset _TAB1
  23  001B  0300     E  	add a,rb
  23  001C  0083        	mov mp,a
  23  001D  0F00     R  	mov a,high offset _TAB1
  23  001E  1300     E  	adc a,rc
  23  001F  0084        	mov sbp,a
  23  0020              	fcall _Crom2Prom
  23  0027  0080     E  	mov rd,a
  23  0028  0F00     R  	mov a,low offset _Buffer
  23  0029  0300     E  	add a,rb
  23  002A  0083        	mov mp,a
  23  002B  0F00     R  	mov a,high offset _Buffer
  23  002C  1300     E  	adc a,rc
  23  002D  0084        	mov sbp,a
  23  002E  0700     E  	mov a,rd
  23  002F  0082        	mov ir,a
"File: 5-3.c         Assembler  Version HGASM0202      Page 7

  23  0030  1480     E  	inc ra
  23  0031  2800     R  	jmp _L9
  23  0032              _L12:
  24  0032              #line 24 "C:\Users\YVTC\Desktop\單晶片微控制器(一)\0327\5-3.c"
  24  0032  33E5        	set [101].7
  24  0033  0F64        	mov a,100
  24  0034              	fcall _PAUSE
  25  003B              #line 25 "C:\Users\YVTC\Desktop\單晶片微控制器(一)\0327\5-3.c"
  25  003B  37E5        	clr [101].7
  25  003C  1F1E        	clr [30]
  26  003D              #line 26 "C:\Users\YVTC\Desktop\單晶片微控制器(一)\0327\5-3.c"
  26  003D  0F10        	mov a,16
  26  003E  0080     R  	mov _Buffer[0],a
  26  003F  0F18        	mov a,24
  26  0040  0080     R  	mov _Buffer[1],a
  26  0041  0F1C        	mov a,28
  26  0042  0080     R  	mov _Buffer[2],a
  26  0043  1F80     R  	set _Buffer[3]
  26  0044  1F80     R  	set _Buffer[4]
  26  0045  0F1C        	mov a,28
  26  0046  0080     R  	mov _Buffer[5],a
  26  0047  0F18        	mov a,24
  26  0048  0080     R  	mov _Buffer[6],a
  26  0049  0F10        	mov a,16
  26  004A  0080     R  	mov _Buffer[7],a
  27  004B              #line 27 "C:\Users\YVTC\Desktop\單晶片微控制器(一)\0327\5-3.c"
  27  004B  33E5        	set [101].7
  27  004C  0FC8        	mov a,200
  27  004D              	fcall _PAUSE
  28  0054              #line 28 "C:\Users\YVTC\Desktop\單晶片微控制器(一)\0327\5-3.c"
  28  0054  37E5        	clr [101].7
  28  0055  1F1E        	clr [30]
  23  0056              #line 23 "C:\Users\YVTC\Desktop\單晶片微控制器(一)\0327\5-3.c"
  23  0056  1F00     E  	clr ra
  29  0057              #line 29 "C:\Users\YVTC\Desktop\單晶片微控制器(一)\0327\5-3.c"
  29  0057  2800     R  	jmp _L10
  29  0058  2800     R  	jmp $
  29  0059              _main endp
  29  0059              
  29  0059              @dummy endp
  29  0059              
  29  0059              #line 29 "C:\Users\YVTC\Desktop\單晶片微控制器(一)\0327\5-3.c"
  29  0059              #pragma debug scope 1 1
  13  0059              #line 13 "C:\Users\YVTC\Desktop\單晶片微控制器(一)\0327\5-3.c"
  13  0059              public _ptr
  13  0000              @HCCINIT0_ptr .section 'data'
  13  0000  0002[       _ptr	db 2 dup(0)
            00
            ]
  13  0002              #pragma debug pointer 42 8 1
  13  0002              #pragma debug pointer 42 8 1
  13  0002              #pragma debug variable 42 1 _ptr "ptr"
  13  0002              
  13  0000              @HCCINIT .section 'data'
  12  0000              #line 12 "C:\Users\YVTC\Desktop\單晶片微控制器(一)\0327\5-3.c"
  12  0000              public _Buffer
  12  0000              @HCCINIT0_Buffer .section 'data'
  12  0000  0008[       _Buffer	db 8 dup(0)
            00
            ]
"File: 5-3.c         Assembler  Version HGASM0202      Page 8

  12  0008              #pragma debug array 43 8 8 1
  12  0008              #pragma debug array 43 8 8 1
  12  0008              #pragma debug variable 43 1 _Buffer "Buffer"
  12  0008              
  12  0000              @HCCINIT .section 'data'
  12  0000              #line 12 "C:\Users\YVTC\Desktop\單晶片微控制器(一)\0327\5-3.c"
  12  0000              public _ScanCode
  12  0000              @HCCINIT0_ScanCode .section 'data'
  12  0000              _ScanCode	db 0
  12  0001              #pragma debug variable 8 1 _ScanCode "ScanCode"
  12  0001              
  12  0000              @HCCINIT .section 'data'
  12  0000              public _TAB2
  12  0000              @crom	.section 'crom'
   9  0000              #line 9 "C:\Users\YVTC\Desktop\單晶片微控制器(一)\0327\5-3.c"
   9  0000              @crom	.section	'crom'
   9  0000              _TAB2:
   9  0000              #pragma debug variable 43 1 _TAB2 "TAB2"
   9  0000              	db 16
   9  0001              	db 24
   9  0001              	db 28
   9  0002              	db -1
   9  0002              	db -1
   9  0003              	db 28
   9  0003              	db 24
   9  0004              	db 16
   9  0004              public _TAB1
   7  0004              #line 7 "C:\Users\YVTC\Desktop\單晶片微控制器(一)\0327\5-3.c"
   7  0004              @crom	.section	'crom'
   7  0004              _TAB1:
   7  0004              #pragma debug variable 43 1 _TAB1 "TAB1"
   7  0004              	db 24
   7  0005              	db 24
   7  0005              	db 60
   7  0006              	db 126
   7  0006              	db -1
   7  0007              	db 24
   7  0007              	db 24
   7  0008              	db 24
   7  0008              #pragma debug struct_end
   7  0008              #pragma debug struct_end
   7  0008              #pragma debug union_end
   7  0008              #pragma debug union_end
   7  0008              #pragma debug variable 45 1 ___pd "__pd" 1
   7  0008              #pragma debug struct_end
   7  0008              #pragma debug struct_end
   7  0008              #pragma debug union_end
   7  0008              #pragma debug union_end
   7  0008              #pragma debug variable 47 1 ___pdc "__pdc" 1
   7  0008              #pragma debug struct_end
   7  0008              #pragma debug struct_end
   7  0008              #pragma debug union_end
   7  0008              #pragma debug union_end
   7  0008              #pragma debug variable 49 1 ___pe "__pe" 1
   7  0008              #pragma debug struct_end
   7  0008              #pragma debug struct_end
   7  0008              #pragma debug union_end
   7  0008              #pragma debug union_end
   7  0008              #pragma debug variable 51 1 ___pec "__pec" 1
   7  0008              #pragma debug struct_end
"File: 5-3.c         Assembler  Version HGASM0202      Page 9

   7  0008              #pragma debug struct_end
   7  0008              #pragma debug union_end
   7  0008              #pragma debug union_end
   7  0008              #pragma debug variable 53 1 ___intc0 "__intc0" 1
   7  0008              #pragma debug struct_end
   7  0008              #pragma debug struct_end
   7  0008              #pragma debug union_end
   7  0008              #pragma debug union_end
   7  0008              #pragma debug variable 55 1 ___intc2 "__intc2" 1
   7  0008              #pragma debug struct_end
   7  0008              #pragma debug struct_end
   7  0008              #pragma debug union_end
   7  0008              #pragma debug union_end
   7  0008              #pragma debug variable 57 1 ___wdtc "__wdtc" 1
   7  0008              #pragma debug struct_end
   7  0008              #pragma debug struct_end
   7  0008              #pragma debug union_end
   7  0008              #pragma debug union_end
   7  0008              #pragma debug variable 59 1 ___psc0 "__psc0" 1
   7  0008              #pragma debug struct_end
   7  0008              #pragma debug struct_end
   7  0008              #pragma debug union_end
   7  0008              #pragma debug union_end
   7  0008              #pragma debug variable 61 1 ___tbc0 "__tbc0" 1
   7  0008              extern r1:byte
   7  0008              extern r2:byte
   7  0008              extern r3:byte
   7  0008              extern r4:byte
   7  0008              extern r5:byte
   7  0008              extern r6:byte
   7  0008              extern r7:byte
  15  0008              #line 15 "C:\Users\YVTC\Desktop\單晶片微控制器(一)\0327\5-3.c"
  15  0000              @code .section at 0 'code'
  15  0000  1F0B        	clr bp
  15  0001  2800     R  	jmp _main_startup1
  15  0002              
  15  0002              
  15  0002              ; 
  15  0002              ; Generated by holtek-gcc v3.18, Tue Apr 17 10:02:57 2018
  15  0002              ; Rebuild 126
  15  0002              ; end of file


        0 Errors, 0