"File: ADC_volt.c    Assembler  Version HGASM0202      Page 1


   1  0000              ; Generated by holtek-gcc v3.18, Tue May 08 13:07:27 2018
   2  0000              ; 
   3  0000              ; Configuration:
   4  0000              ;       with long instruction
   5  0000              ;       Multi-ROM, Multi-RAM
   6  0000              ;       bits_per_rom_unit:16
   7  0000              ;       with mp1
   8  0000              ;       with tbhp, address(0x9)
   9  0000              ;          Use tabrd-const
  10  0000              ;       
  11  0000              ; SFR address of long-instruction arch:
  12  0000              ;    mp0 = -1,1,0
  13  0000              ;    mp1 = 4,3,2
  14  0000              ;    mp2 = 14,13,12
  15  0000              ;    tbp = 9,7,8
  16  0000              ;    acc = 5
  17  0000              ;    pcl = 6
  18  0000              ;    status = 10
  19  0000              ;    bp = 11
  20  0000              ;    intc = 48
  21  0000              ;       
  22  0000              ;       
  23  0000              ; use 'tabrdc' instead of 'tabrd'
  24  0000              ;       
  25  0000              
  26  0000              #pragma translator "holtek-gcc 4.6.4" "3.18" "build 20130711"
  27  0000              ; Rebuild 126
  28  0000              
  29  0000              ir equ [2]
  30  0000              mp equ [3]
  31  0000              sbp equ [4]
  32  0000              acc equ [5]
  33  0000              bp equ [11]
  34  0000              tblp equ [7]
  35  0000              tbhp equ [9]
  36  0000              status equ [10]
  37  0000              c equ [10].0
  38  0000              ac equ [10].1
  39  0000              z equ [10].2
  40  0000              ov equ [10].3
  41  0000              cz equ [10].6
  42  0000              sc equ [10].7
  43  0000              intc equ [48]
  44  0000              
  45  0000              extern ra:byte
  46  0000              extern rb:byte
  47  0000              extern rc:byte
  48  0000              extern rd:byte
  49  0000              extern re:byte
  50  0000              extern rf:byte
  51  0000              extern rg:byte
  52  0000              extern rh:byte
  53  0000              extern _Crom2Prom:near
  54  0000              extern _Crom2PromNext:near
  55  0000              
  56  0000              RAMBANK 0 @BITDATASEC, @BITDATASEC1
  57  0000              @HCCINIT	.section 'data'
  58  0000              @HCCINIT0	.section 'data'
  59  0000              @BITDATASEC	 .section 'data'
"File: ADC_volt.ASM  Assembler  Version HGASM0202      Page 2

  60  0000              @BITDATASEC1	 .section 'data'
  61  0000              
  62  0000              #pragma debug scope 1 1
  63  0000              	extern __DELAY3:near
  64  0000              	extern __DELAYX3:near
  65  0000              	extern __DELAYX6:near
  66  0000              	extern __DELAYY5:near
  67  0000              	extern __DELAYY3:near
  68  0000              	extern _builtin_holtek_delay_2:byte
  69  0000              ___mfi0 equ [52]
  70  0000              ___pcs0 equ [360]
  71  0000              ___pcs3 equ [363]
  72  0000              ___pd equ [30]
  73  0000              ___pe equ [34]
  74  0000              ___pc equ [26]
  75  0000              public _ISR_STM
  76  0000              #pragma debug scope 2 1

  45  0000              #line 45 "C:\Users\YVTC\Desktop\單晶片微控制器(一)\0508\ADC_volt.c"
  45  0000              rombank 0 @ISR_STM_code
  45  0000              @ISR_STM_code .section at 20 'code'
  45  0000  0080     E  	mov r1,a
  45  0001  070B        	mov a,bp
  45  0002  1F0B        	clr bp
  45  0003  2800     R  	jmp _ISR_STM
  45  0004              ROMBANK 0 _ISR_STM
  45  0004              #pragma debug scope 1 1
  45  0004              @dummy20 endp
  45  0004              #pragma debug scope 3 1
  45  0000              _ISR_STM .section 'code'
  45  0000              _ISR_STM proc
  45  0000  00          local _ISR_STM_2 db 1 dup(?)
  45  0000  0080     E  	mov r2,a
  45  0001  070A        	mov a, status
  45  0002  0080     E  	mov r3,a
  45  0003  0703        	mov a,mp
  45  0004  0080     E  	mov r4,a
  45  0005  0704        	mov a,sbp
  45  0006  0080     E  	mov r5,a
  45  0007  0707        	mov a,tblp
  45  0008  0080     E  	mov r6,a
  45  0009  0709        	mov a,tbhp
  45  000A  0080     E  	mov r7,a
  46  000B              #line 46 "C:\Users\YVTC\Desktop\單晶片微控制器(一)\0508\ADC_volt.c"
  46  000B  37B4        	clr [52].7
  47  000C              #line 47 "C:\Users\YVTC\Desktop\單晶片微控制器(一)\0508\ADC_volt.c"
  47  000C  1080     R  	sz _PhaseCount[0]
  47  000D  2800     R  	jmp _L2
  50  000E              #line 50 "C:\Users\YVTC\Desktop\單晶片微控制器(一)\0508\ADC_volt.c"
  50  000E  0F01        	mov a,1
  50  000F  0080     R  	mov _DisBuffer[4],a
  56  0010              #line 56 "C:\Users\YVTC\Desktop\單晶片微控制器(一)\0508\ADC_volt.c"
  56  0010  1F00     E  	clr _builtin_holtek_udivmodhi4_2[6]
  56  0011  0700     R  	mov a,_Result[0]  
  56  0012  0080     E  	mov _builtin_holtek_udivmodhi4_2[0],a  
  56  0013  0700     R  	mov a,_Result[1]  
  56  0014  0080     E  	mov _builtin_holtek_udivmodhi4_2[1],a
  56  0015  0FE8        	mov a,232  
  56  0016  0080     E  	mov _builtin_holtek_udivmodhi4_2[2],a  
  56  0017  0F03        	mov a,3  
"File: ADC_volt.c    Assembler  Version HGASM0202      Page 3

  56  0018  0080     E  	mov _builtin_holtek_udivmodhi4_2[3],a
  56  0019              	fcall _builtin_holtek_udivmodhi4
  56  0020  0700     E  	mov a,_builtin_holtek_udivmodhi4_2[0]  
  56  0021  0080     E  	mov rb,a  
  56  0022  0700     E  	mov a,_builtin_holtek_udivmodhi4_2[1]  
  56  0023  0080     E  	mov rc,a
  56  0024  0700     E  	mov a,rb
  56  0025  0080     R  	mov _Digit[0],a
  56  0026  1F00     E  	clr _builtin_holtek_udivmodhi4_2[6]
  56  0027  0700     R  	mov a,_Result[0]  
  56  0028  0080     E  	mov _builtin_holtek_udivmodhi4_2[0],a  
  56  0029  0700     R  	mov a,_Result[1]  
  56  002A  0080     E  	mov _builtin_holtek_udivmodhi4_2[1],a
  56  002B  0FE8        	mov a,232  
  56  002C  0080     E  	mov _builtin_holtek_udivmodhi4_2[2],a  
  56  002D  0F03        	mov a,3  
  56  002E  0080     E  	mov _builtin_holtek_udivmodhi4_2[3],a
  56  002F              	fcall _builtin_holtek_udivmodhi4
  56  0036  0700     E  	mov a,_builtin_holtek_udivmodhi4_2[4]  
  56  0037  0080     E  	mov rb,a  
  56  0038  0700     E  	mov a,_builtin_holtek_udivmodhi4_2[5]  
  56  0039  0080     E  	mov rc,a
  57  003A              #line 57 "C:\Users\YVTC\Desktop\單晶片微控制器(一)\0508\ADC_volt.c"
  57  003A  1F00     E  	clr _builtin_holtek_udivmodhi4_2[6]
  57  003B  0700     E  	mov a,rb  
  57  003C  0080     E  	mov _builtin_holtek_udivmodhi4_2[0],a  
  57  003D  0700     E  	mov a,rc  
  57  003E  0080     E  	mov _builtin_holtek_udivmodhi4_2[1],a
  57  003F  0F64        	mov a,100  
  57  0040  0080     E  	mov _builtin_holtek_udivmodhi4_2[2],a  
  57  0041  1F00     E  	clr _builtin_holtek_udivmodhi4_2[3]
  57  0042              	fcall _builtin_holtek_udivmodhi4
  57  0049  0700     E  	mov a,_builtin_holtek_udivmodhi4_2[0]  
  57  004A  0080     E  	mov rb,a  
  57  004B  0700     E  	mov a,_builtin_holtek_udivmodhi4_2[1]  
  57  004C  0080     E  	mov rc,a
  57  004D  0700     E  	mov a,rb
  57  004E  0080     R  	mov _Digit[1],a
  57  004F  1F00     E  	clr _builtin_holtek_udivmodhi4_2[6]
  57  0050  0700     R  	mov a,_Result[0]  
  57  0051  0080     E  	mov _builtin_holtek_udivmodhi4_2[0],a  
  57  0052  0700     R  	mov a,_Result[1]  
  57  0053  0080     E  	mov _builtin_holtek_udivmodhi4_2[1],a
  57  0054  0F64        	mov a,100  
  57  0055  0080     E  	mov _builtin_holtek_udivmodhi4_2[2],a  
  57  0056  1F00     E  	clr _builtin_holtek_udivmodhi4_2[3]
  57  0057              	fcall _builtin_holtek_udivmodhi4
  57  005E  0700     E  	mov a,_builtin_holtek_udivmodhi4_2[4]  
  57  005F  0080     E  	mov rb,a  
  57  0060  0700     E  	mov a,_builtin_holtek_udivmodhi4_2[5]  
  57  0061  0080     E  	mov rc,a
  58  0062              #line 58 "C:\Users\YVTC\Desktop\單晶片微控制器(一)\0508\ADC_volt.c"
  58  0062  1F00     E  	clr _builtin_holtek_udivmodhi4_2[6]
  58  0063  0700     E  	mov a,rb  
  58  0064  0080     E  	mov _builtin_holtek_udivmodhi4_2[0],a  
  58  0065  0700     E  	mov a,rc  
  58  0066  0080     E  	mov _builtin_holtek_udivmodhi4_2[1],a
  58  0067  0F0A        	mov a,10  
  58  0068  0080     E  	mov _builtin_holtek_udivmodhi4_2[2],a  
  58  0069  1F00     E  	clr _builtin_holtek_udivmodhi4_2[3]
"File: ADC_volt.c    Assembler  Version HGASM0202      Page 4

  58  006A              	fcall _builtin_holtek_udivmodhi4
  58  0071  0700     E  	mov a,_builtin_holtek_udivmodhi4_2[0]  
  58  0072  0080     E  	mov rd,a  
  58  0073  0700     E  	mov a,_builtin_holtek_udivmodhi4_2[1]  
  58  0074  0080     E  	mov re,a
  58  0075  0700     E  	mov a,rd
  58  0076  0080     R  	mov _Digit[2],a
  58  0077  1F00     E  	clr _builtin_holtek_udivmodhi4_2[6]
  58  0078  0700     E  	mov a,rb  
  58  0079  0080     E  	mov _builtin_holtek_udivmodhi4_2[0],a  
  58  007A  0700     E  	mov a,rc  
  58  007B  0080     E  	mov _builtin_holtek_udivmodhi4_2[1],a
  58  007C  0F0A        	mov a,10  
  58  007D  0080     E  	mov _builtin_holtek_udivmodhi4_2[2],a  
  58  007E  1F00     E  	clr _builtin_holtek_udivmodhi4_2[3]
  58  007F              	fcall _builtin_holtek_udivmodhi4
  58  0086  0700     E  	mov a,_builtin_holtek_udivmodhi4_2[4]  
  58  0087  0080     E  	mov rb,a  
  58  0088  0700     E  	mov a,_builtin_holtek_udivmodhi4_2[5]  
  58  0089  0080     E  	mov rc,a
  58  008A  0700     E  	mov a,rb
  58  008B  0080     R  	mov _Digit[3],a
  58  008C  0F04        	mov a,4
  58  008D  0080     E  	mov ra,a
  64  008E              #line 64 "C:\Users\YVTC\Desktop\單晶片微控制器(一)\0508\ADC_volt.c"
  64  008E  1F00     E  	clr rd
  64  008F              _L5:
  65  008F              #line 65 "C:\Users\YVTC\Desktop\單晶片微控制器(一)\0508\ADC_volt.c"
  65  008F  0700     E  	mov a,rd
  65  0090  0080     E  	mov rb,a
  65  0091  1F00     E  	clr rc
  65  0092  0F00     R  	mov a,low offset _Digit
  65  0093  0300     E  	add a,rb
  65  0094  0083        	mov mp,a
  65  0095  0F00     R  	mov a,high offset _Digit
  65  0096  1300     E  	adc a,rc
  65  0097  0084        	mov sbp,a
  65  0098              	fcall _Crom2Prom
  65  009F  0080     E  	mov re,a
  65  00A0  0F00     R  	mov a,low offset _TransSegment
  65  00A1  0300     E  	add a,re
  65  00A2  0083        	mov mp,a
  65  00A3  0F00     R  	mov a,high offset _TransSegment
  65  00A4  1F04        	clr sbp
  65  00A5  1384        	adcm a,sbp
  65  00A6              	fcall _Crom2Prom
  65  00AD  0080     E  	mov re,a
  65  00AE  0F00     R  	mov a,low offset _DisBuffer
  65  00AF  0300     E  	add a,rb
  65  00B0  0083        	mov mp,a
  65  00B1  0F00     R  	mov a,high offset _DisBuffer
  65  00B2  1300     E  	adc a,rc
  65  00B3  0084        	mov sbp,a
  65  00B4  0700     E  	mov a,re
  65  00B5  0082        	mov ir,a
  64  00B6              #line 64 "C:\Users\YVTC\Desktop\單晶片微控制器(一)\0508\ADC_volt.c"
  64  00B6  1480     E  	inc rd
  64  00B7  1780     E  	sdz ra
  64  00B8  2800     R  	jmp _L5
  64  00B9  2800     R  	jmp _L4
"File: ADC_volt.c    Assembler  Version HGASM0202      Page 5

  64  00BA              _L2:
  47  00BA              #line 47 "C:\Users\YVTC\Desktop\單晶片微控制器(一)\0508\ADC_volt.c"
  47  00BA  0F05        	mov a,5
  47  00BB  0080     E  	mov ra,a
  47  00BC  1F00     E  	clr rb
  47  00BD              _L7:
  68  00BD              #line 68 "C:\Users\YVTC\Desktop\單晶片微控制器(一)\0508\ADC_volt.c"
  68  00BD  0F00     R  	mov a,low offset _DisBuffer
  68  00BE  0300     E  	add a,rb
  68  00BF  0083        	mov mp,a
  68  00C0  0F00     R  	mov a,high offset _DisBuffer
  68  00C1  1F04        	clr sbp
  68  00C2  1384        	adcm a,sbp
  68  00C3              	fcall _Crom2Prom
  68  00CA  0080     R  	mov _ISR_STM_2[0],a
  68  00CB  0100     R  	cpla _ISR_STM_2[0]
  68  00CC  0080     E  	mov rc,a
  68  00CD  0700     E  	mov a,rc
  68  00CE  0082        	mov ir,a
  68  00CF  1480     E  	inc rb
  68  00D0  1780     E  	sdz ra
  68  00D1  2800     R  	jmp _L7
  69  00D2              #line 69 "C:\Users\YVTC\Desktop\單晶片微控制器(一)\0508\ADC_volt.c"
  69  00D2  3C00     R  	sz _PhaseCount[0].0
  69  00D3  2800     R  	jmp _L4
  70  00D4              #line 70 "C:\Users\YVTC\Desktop\單晶片微控制器(一)\0508\ADC_volt.c"
  70  00D4              ;# 70 "C:\Users\YVTC\Desktop\單晶片微控制器(一)\0508\ADC_volt.c" 1
  70  00D4  1980     R  	rr _DisBuffer[0]
  70  00D5              ;# 70 "C:\Users\YVTC\Desktop\單晶片微控制器(一)\0508\ADC_volt.c" 1
  70  00D5  1980     R  	rr _DisBuffer[1]
  70  00D6              ;# 70 "C:\Users\YVTC\Desktop\單晶片微控制器(一)\0508\ADC_volt.c" 1
  70  00D6  1980     R  	rr _DisBuffer[2]
  70  00D7              ;# 70 "C:\Users\YVTC\Desktop\單晶片微控制器(一)\0508\ADC_volt.c" 1
  70  00D7  1980     R  	rr _DisBuffer[3]
  70  00D8              ;# 70 "C:\Users\YVTC\Desktop\單晶片微控制器(一)\0508\ADC_volt.c" 1
  70  00D8  1980     R  	rr _DisBuffer[4]
  70  00D9              _L4:
  72  00D9              #line 72 "C:\Users\YVTC\Desktop\單晶片微控制器(一)\0508\ADC_volt.c"
  72  00D9  0F33        	mov a,51
  72  00DA  80E8 0001   	lmov [360],a
  72  00DC  0F33        	mov a,51
  72  00DD  80EB 0001   	lmov [363],a
  72  00DF  1F1E        	clr [30]
  72  00E0  3422        	clr [34].0
  73  00E1              #line 73 "C:\Users\YVTC\Desktop\單晶片微控制器(一)\0508\ADC_volt.c"
  73  00E1  3800     R  	snz _DisBuffer[0].0
  73  00E2  2800     R  	jmp _L9
  73  00E3  301E        	set [30].0
  73  00E4              _L9:
  74  00E4              #line 74 "C:\Users\YVTC\Desktop\單晶片微控制器(一)\0508\ADC_volt.c"
  74  00E4  3800     R  	snz _DisBuffer[0].4
  74  00E5  2800     R  	jmp _L10
  74  00E6  309E        	set [30].1
  74  00E7              _L10:
  75  00E7              #line 75 "C:\Users\YVTC\Desktop\單晶片微控制器(一)\0508\ADC_volt.c"
  75  00E7  3800     R  	snz _DisBuffer[1].0
  75  00E8  2800     R  	jmp _L11
  75  00E9  311E        	set [30].2
  75  00EA              _L11:
  76  00EA              #line 76 "C:\Users\YVTC\Desktop\單晶片微控制器(一)\0508\ADC_volt.c"
"File: ADC_volt.c    Assembler  Version HGASM0202      Page 6

  76  00EA  3800     R  	snz _DisBuffer[1].4
  76  00EB  2800     R  	jmp _L12
  76  00EC  319E        	set [30].3
  76  00ED              _L12:
  77  00ED              #line 77 "C:\Users\YVTC\Desktop\單晶片微控制器(一)\0508\ADC_volt.c"
  77  00ED  3800     R  	snz _DisBuffer[2].0
  77  00EE  2800     R  	jmp _L13
  77  00EF  321E        	set [30].4
  77  00F0              _L13:
  78  00F0              #line 78 "C:\Users\YVTC\Desktop\單晶片微控制器(一)\0508\ADC_volt.c"
  78  00F0  3800     R  	snz _DisBuffer[2].4
  78  00F1  2800     R  	jmp _L14
  78  00F2  329E        	set [30].5
  78  00F3              _L14:
  79  00F3              #line 79 "C:\Users\YVTC\Desktop\單晶片微控制器(一)\0508\ADC_volt.c"
  79  00F3  3800     R  	snz _DisBuffer[3].0
  79  00F4  2800     R  	jmp _L15
  79  00F5  331E        	set [30].6
  79  00F6              _L15:
  80  00F6              #line 80 "C:\Users\YVTC\Desktop\單晶片微控制器(一)\0508\ADC_volt.c"
  80  00F6  3800     R  	snz _DisBuffer[3].4
  80  00F7  2800     R  	jmp _L16
  80  00F8  339E        	set [30].7
  80  00F9              _L16:
  81  00F9              #line 81 "C:\Users\YVTC\Desktop\單晶片微控制器(一)\0508\ADC_volt.c"
  81  00F9  3800     R  	snz _DisBuffer[4].0
  81  00FA  2800     R  	jmp _L17
  81  00FB  3022        	set [34].0
  81  00FC              _L17:
  82  00FC              #line 82 "C:\Users\YVTC\Desktop\單晶片微控制器(一)\0508\ADC_volt.c"
  82  00FC  0700     R  	mov a,_PhaseCount[0]
  82  00FD  0080     R  	mov _ISR_STM_2[0],a
  82  00FE  1400     R  	inca _ISR_STM_2[0]
  82  00FF  0080     R  	mov _PhaseCount[0],a
  82  0100  0700     R  	mov a,_ISR_STM_2[0]
  82  0101  0A00        	sub a,0
  82  0102  3D0A        	sz z
  82  0103  2800     R  	jmp _L19
  82  0104  0A01        	sub a,(1)-(0)
  82  0105  3D0A        	sz z
  82  0106  2800     R  	jmp _L20
  82  0107  0700     R  	mov a,_ISR_STM_2[0]
  82  0108  0A02        	sub a,2
  82  0109  3D0A        	sz z
  82  010A  2800     R  	jmp _L21
  82  010B  0A01        	sub a,(3)-(2)
  82  010C  3D0A        	sz z
  82  010D  2800     R  	jmp _L22
  82  010E  0700     R  	mov a,_ISR_STM_2[0]
  82  010F  0A04        	sub a,4
  82  0110  3D0A        	sz z
  82  0111  2800     R  	jmp _L23
  82  0112  0A01        	sub a,(5)-(4)
  82  0113  3D0A        	sz z
  82  0114  2800     R  	jmp _L24
  82  0115  0700     R  	mov a,_ISR_STM_2[0]
  82  0116  0A06        	sub a,6
  82  0117  3D0A        	sz z
  82  0118  2800     R  	jmp _L25
  82  0119  0700     R  	mov a,_ISR_STM_2[0]
"File: ADC_volt.c    Assembler  Version HGASM0202      Page 7

  82  011A  0A07        	sub a,7
  82  011B  390A        	snz z
  82  011C  2800     R  	jmp _L1
  90  011D              #line 90 "C:\Users\YVTC\Desktop\單晶片微控制器(一)\0508\ADC_volt.c"
  90  011D  0F03        	mov a,3
  90  011E  80EB 0001   	lmov [363],a
  90  0120  339A        	set [26].7
  90  0121  1F00     R  	clr _PhaseCount[0]
  90  0122  2800     R  	jmp _L1
  90  0123              _L19:
  83  0123              #line 83 "C:\Users\YVTC\Desktop\單晶片微控制器(一)\0508\ADC_volt.c"
  83  0123  0F30        	mov a,48
  83  0124  80E8 0001   	lmov [360],a
  83  0126  341A        	clr [26].0
  83  0127  2800     R  	jmp _L1
  83  0128              _L20:
  84  0128              #line 84 "C:\Users\YVTC\Desktop\單晶片微控制器(一)\0508\ADC_volt.c"
  84  0128  0F30        	mov a,48
  84  0129  80E8 0001   	lmov [360],a
  84  012B  301A        	set [26].0
  84  012C  2800     R  	jmp _L1
  84  012D              _L21:
  85  012D              #line 85 "C:\Users\YVTC\Desktop\單晶片微控制器(一)\0508\ADC_volt.c"
  85  012D  0F03        	mov a,3
  85  012E  80E8 0001   	lmov [360],a
  85  0130  349A        	clr [26].1
  85  0131  2800     R  	jmp _L1
  85  0132              _L22:
  86  0132              #line 86 "C:\Users\YVTC\Desktop\單晶片微控制器(一)\0508\ADC_volt.c"
  86  0132  0F03        	mov a,3
  86  0133  80E8 0001   	lmov [360],a
  86  0135  309A        	set [26].1
  86  0136  2800     R  	jmp _L1
  86  0137              _L23:
  87  0137              #line 87 "C:\Users\YVTC\Desktop\單晶片微控制器(一)\0508\ADC_volt.c"
  87  0137  0F30        	mov a,48
  87  0138  80EB 0001   	lmov [363],a
  87  013A  371A        	clr [26].6
  87  013B  2800     R  	jmp _L1
  87  013C              _L24:
  88  013C              #line 88 "C:\Users\YVTC\Desktop\單晶片微控制器(一)\0508\ADC_volt.c"
  88  013C  0F30        	mov a,48
  88  013D  80EB 0001   	lmov [363],a
  88  013F  331A        	set [26].6
  88  0140  2800     R  	jmp _L1
  88  0141              _L25:
  89  0141              #line 89 "C:\Users\YVTC\Desktop\單晶片微控制器(一)\0508\ADC_volt.c"
  89  0141  0F03        	mov a,3
  89  0142  80EB 0001   	lmov [363],a
  89  0144  379A        	clr [26].7
  89  0145              _L1:
  89  0145  0700     E  	mov a,r2
  89  0146  008B        	mov bp,a
  89  0147  0700     E  	mov a,r3
  89  0148  008A        	mov status,a
  89  0149  0700     E  	mov a,r4
  89  014A  0083        	mov mp,a
  89  014B  0700     E  	mov a,r5
  89  014C  0084        	mov sbp,a
  89  014D  0700     E  	mov a,r6
"File: ADC_volt.c    Assembler  Version HGASM0202      Page 8

  89  014E  0087        	mov tblp,a
  89  014F  0700     E  	mov a,r7
  89  0150  0089        	mov tbhp,a
  89  0151  1D05        	tabrdc acc
  89  0152  0700     E  	mov a,r1
  89  0153  0004        	reti
  89  0154              _ISR_STM endp
  89  0154              
  89  0154              #line 89 "C:\Users\YVTC\Desktop\單晶片微控制器(一)\0508\ADC_volt.c"
  89  0154              #pragma debug scope 1 1
  89  0154              ___adrh equ [107]
  89  0154              ___adrl equ [106]
  89  0154              public _ISR_ADC
  89  0154              #pragma debug scope 4 1
  94  0154              #line 94 "C:\Users\YVTC\Desktop\單晶片微控制器(一)\0508\ADC_volt.c"
  94  0154              rombank 0 @ISR_ADC_code
  94  0000              @ISR_ADC_code .section at 28 'code'
  94  0000  0080     E  	mov r1,a
  94  0001  070B        	mov a,bp
  94  0002  1F0B        	clr bp
  94  0003  2800     R  	jmp _ISR_ADC
  94  0004              ROMBANK 0 _ISR_ADC
  94  0004              #pragma debug scope 1 1
  94  0004              @dummy28 endp
  94  0004              #pragma debug scope 5 1
  94  0000              _ISR_ADC .section 'code'
  94  0000              _ISR_ADC proc
  94  0000  0080     E  	mov r2,a
  94  0001  070A        	mov a, status
  94  0002  0080     E  	mov r3,a
  94  0003  076B        	mov a,[107]
  94  0004  0080     R  	mov _Result[0],a
  94  0005  1F00     R  	clr _Result[1]
  94  0006  0700     R  	mov a,_Result[0]
  94  0007  0080     E  	mov rc,a
  94  0008  1F00     E  	clr rb
  94  0009  076A        	mov a,[106]
  94  000A  0300     E  	add a,rb
  94  000B  0080     R  	mov _Result[0],a
  94  000C  1F05        	clr acc
  94  000D  1300     E  	adc a,rc
  94  000E  0080     R  	mov _Result[1],a
  96  000F              #line 96 "C:\Users\YVTC\Desktop\單晶片微控制器(一)\0508\ADC_volt.c"
  96  000F  0700     R  	mov a,_Result[0]
  96  0010  0080     E  	mov rd,a
  96  0011  0700     R  	mov a,_Result[1]
  96  0012  0080     E  	mov re,a
  96  0013  1F00     E  	clr rf
  96  0014  1F00     E  	clr rg
  96  0015  0700     E  	mov a,rd
  96  0016  0080     E  	mov _builtin_holtek_mulsi3_2[0],a
  96  0017  0700     E  	mov a,re
  96  0018  0080     E  	mov _builtin_holtek_mulsi3_2[1],a
  96  0019  0700     E  	mov a,rf
  96  001A  0080     E  	mov _builtin_holtek_mulsi3_2[2],a
  96  001B  0700     E  	mov a,rg
  96  001C  0080     E  	mov _builtin_holtek_mulsi3_2[3],a
  96  001D  0F88        	mov a,136
  96  001E  0080     E  	mov _builtin_holtek_mulsi3_2[4],a
  96  001F  0F13        	mov a,19
"File: ADC_volt.c    Assembler  Version HGASM0202      Page 9

  96  0020  0080     E  	mov _builtin_holtek_mulsi3_2[5],a
  96  0021  0F00        	mov a,0
  96  0022  0080     E  	mov _builtin_holtek_mulsi3_2[6],a
  96  0023  0F00        	mov a,0
  96  0024  0080     E  	mov _builtin_holtek_mulsi3_2[7],a
  96  0025              	fcall _builtin_holtek_mulsi3
  96  002C  0700     E  	mov a,_builtin_holtek_mulsi3_2[8]
  96  002D  0080     E  	mov rd,a
  96  002E  0700     E  	mov a,_builtin_holtek_mulsi3_2[9]
  96  002F  0080     E  	mov re,a
  96  0030  0700     E  	mov a,_builtin_holtek_mulsi3_2[10]
  96  0031  0080     E  	mov rf,a
  96  0032  0700     E  	mov a,_builtin_holtek_mulsi3_2[11]
  96  0033  0080     E  	mov rg,a
  96  0034  0F0C        	mov a,12
  96  0035              _LI1:
  96  0035  340A        	clr c
  96  0036  1B80     E  	rrc rg
  96  0037  1B80     E  	rrc rf
  96  0038  1B80     E  	rrc re
  96  0039  1B80     E  	rrc rd
  96  003A  1785        	sdz acc
  96  003B  2800     R  	jmp _LI1
  96  003C  0700     E  	mov a,rd
  96  003D  0080     R  	mov _Result[0],a
  96  003E  0700     E  	mov a,re
  96  003F  0080     R  	mov _Result[1],a
  96  0040  0700     E  	mov a,r2
  96  0041  008B        	mov bp,a
  96  0042  0700     E  	mov a,r3
  96  0043  008A        	mov status,a
  96  0044  0700     E  	mov a,r1
  96  0045  0004        	reti
  96  0046              _ISR_ADC endp
  96  0046              
  96  0046              #line 96 "C:\Users\YVTC\Desktop\單晶片微控制器(一)\0508\ADC_volt.c"
  96  0046              #pragma debug scope 1 1
  96  0046              public _Delayms
  96  0046              #pragma debug scope 6 1
 100  0046              #line 100 "C:\Users\YVTC\Desktop\單晶片微控制器(一)\0508\ADC_volt.c"
 100  0000              _Delayms .section 'code'
 100  0000              _Delayms proc
 100  0000  00              local _Delayms_2 db 1 dup(?)	; 0,1
 100  0000  0080     R  	mov _Delayms_2[0],a
 100  0001              #pragma debug variable 8 6 _Delayms_2+0 "delay"
 101  0001              #line 101 "C:\Users\YVTC\Desktop\單晶片微控制器(一)\0508\ADC_volt.c"
 101  0001  1F00     E  	clr ra
 101  0002  2800     R  	jmp _L57
 101  0003              _L58:
 101  0003              #line 101 "C:\Users\YVTC\Desktop\單晶片微控制器(一)\0508\ADC_volt.c"
 101  0003              ;# 101 "C:\Users\YVTC\Desktop\單晶片微控制器(一)\0508\ADC_volt.c" 1
 101  0003              	IF 2000>263690
 101  0003              ;# 101 "C:\Users\YVTC\Desktop\單晶片微控制器(一)\0508\ADC_volt.c" 1
 101  0003              	ERRMESSAGE 'the value 2000of the argument exceeds the maxinum 263690'
 101  0003              	ENDIF
 101  0003              ;# 101 "C:\Users\YVTC\Desktop\單晶片微控制器(一)\0508\ADC_volt.c" 1
 101  0003              	IF 2000<0
 101  0003              ;# 101 "C:\Users\YVTC\Desktop\單晶片微控制器(一)\0508\ADC_volt.c" 1
 101  0003              	ERRMESSAGE 'the value 2000 of the argument exceeds the mininum 0'
 101  0003              	ENDIF
"File: ADC_volt.c    Assembler  Version HGASM0202      Page 10

 101  0003              ;# 101 "C:\Users\YVTC\Desktop\單晶片微控制器(一)\0508\ADC_volt.c" 1
 101  0003              	IF 2000==0
 101  0003              ;# 101 "C:\Users\YVTC\Desktop\單晶片微控制器(一)\0508\ADC_volt.c" 1
 101  0003              	JMP $
 101  0003              	ENDIF
 101  0003              ;# 101 "C:\Users\YVTC\Desktop\單晶片微控制器(一)\0508\ADC_volt.c" 1
 101  0003              	IF (2000>=1) AND (2000<( 4 + __PBP__ * 2))
 101  0003              ;# 101 "C:\Users\YVTC\Desktop\單晶片微控制器(一)\0508\ADC_volt.c" 1
 101  0003              	NOP
 101  0003              	ENDIF
 101  0003              ;# 101 "C:\Users\YVTC\Desktop\單晶片微控制器(一)\0508\ADC_volt.c" 1
 101  0003              	IF (2000>=2) AND (2000<( 4 + __PBP__ * 2))
 101  0003              ;# 101 "C:\Users\YVTC\Desktop\單晶片微控制器(一)\0508\ADC_volt.c" 1
 101  0003              	NOP
 101  0003              	ENDIF
 101  0003              ;# 101 "C:\Users\YVTC\Desktop\單晶片微控制器(一)\0508\ADC_volt.c" 1
 101  0003              	IF (2000>=3) AND (2000<( 4 + __PBP__ * 2))
 101  0003              ;# 101 "C:\Users\YVTC\Desktop\單晶片微控制器(一)\0508\ADC_volt.c" 1
 101  0003              	NOP
 101  0003              	ENDIF
 101  0003              ;# 101 "C:\Users\YVTC\Desktop\單晶片微控制器(一)\0508\ADC_volt.c" 1
 101  0003              	IF (2000>=4) AND (2000<( 4 + __PBP__ * 2)) AND ( __PBP__ > 0 )
 101  0003              ;# 101 "C:\Users\YVTC\Desktop\單晶片微控制器(一)\0508\ADC_volt.c" 1
 101  0003              	NOP
 101  0003              	ENDIF
 101  0003              ;# 101 "C:\Users\YVTC\Desktop\單晶片微控制器(一)\0508\ADC_volt.c" 1
 101  0003              	IF (2000>=5) AND (2000<( 4 + __PBP__ * 2)) AND ( __PBP__ > 0 )
 101  0003              ;# 101 "C:\Users\YVTC\Desktop\單晶片微控制器(一)\0508\ADC_volt.c" 1
 101  0003              	NOP
 101  0003              	ENDIF
 101  0003              ;# 101 "C:\Users\YVTC\Desktop\單晶片微控制器(一)\0508\ADC_volt.c" 1
 101  0003              	IF (2000>=6) AND (2000<( 4 + __PBP__ * 2))  AND ( __PBP__ > 1 )
 101  0003              ;# 101 "C:\Users\YVTC\Desktop\單晶片微控制器(一)\0508\ADC_volt.c" 1
 101  0003              	NOP
 101  0003              	ENDIF
 101  0003              ;# 101 "C:\Users\YVTC\Desktop\單晶片微控制器(一)\0508\ADC_volt.c" 1
 101  0003              	IF (2000>=7) AND (2000<( 4 + __PBP__ * 2))  AND ( __PBP__ > 1 )
 101  0003              ;# 101 "C:\Users\YVTC\Desktop\單晶片微控制器(一)\0508\ADC_volt.c" 1
 101  0003              	NOP
 101  0003              	ENDIF
 101  0003              ;# 101 "C:\Users\YVTC\Desktop\單晶片微控制器(一)\0508\ADC_volt.c" 1
 101  0003              	IF (2000>=8) AND (2000<( 4 + __PBP__ * 2))  AND ( __PBP__ > 2 )
 101  0003              ;# 101 "C:\Users\YVTC\Desktop\單晶片微控制器(一)\0508\ADC_volt.c" 1
 101  0003              	NOP
 101  0003              	ENDIF
 101  0003              ;# 101 "C:\Users\YVTC\Desktop\單晶片微控制器(一)\0508\ADC_volt.c" 1
 101  0003              	IF (2000==9)  AND ( __PBP__ > 2 )
 101  0003              ;# 101 "C:\Users\YVTC\Desktop\單晶片微控制器(一)\0508\ADC_volt.c" 1
 101  0003              	NOP
 101  0003              	ENDIF
 101  0003              ;# 101 "C:\Users\YVTC\Desktop\單晶片微控制器(一)\0508\ADC_volt.c" 1
 101  0003              	IF (2000< ( 8 + __PBP__ * 2)) AND (2000>( 3 + __PBP__ * 2))
 101  0003              ;# 101 "C:\Users\YVTC\Desktop\單晶片微控制器(一)\0508\ADC_volt.c" 1
 101  0003              	fcall __DELAY3 + ( 7 + __PBP__ * 2) -2000
 101  0003              	ENDIF
 101  0003              ;# 101 "C:\Users\YVTC\Desktop\單晶片微控制器(一)\0508\ADC_volt.c" 1
 101  0003              	IF (2000< ( 0404h + __PBP__ * 2)) AND (2000>( 7 + __PBP__ * 2))
 101  0003              ;# 101 "C:\Users\YVTC\Desktop\單晶片微控制器(一)\0508\ADC_volt.c" 1
 101  0003              	MOV A,(2000-( 4 + __PBP__ * 2))/4
 101  0003              ;# 101 "C:\Users\YVTC\Desktop\單晶片微控制器(一)\0508\ADC_volt.c" 1
"File: ADC_volt.c    Assembler  Version HGASM0202      Page 11

 101  0003              	fcall __DELAYX3 + 3 -((2000-( 4 + __PBP__ * 2)) MOD 4) 
 101  0003              	ENDIF
 101  0003              ;# 101 "C:\Users\YVTC\Desktop\單晶片微控制器(一)\0508\ADC_volt.c" 1
 101  0003              	IF (2000< ( 040bh + __PBP__ * 2)) AND (2000> ( 0403h + __PBP__ * 2))
 101  0003              ;# 101 "C:\Users\YVTC\Desktop\單晶片微控制器(一)\0508\ADC_volt.c" 1
 101  0003              	MOV A,0 
 101  0003              ;# 101 "C:\Users\YVTC\Desktop\單晶片微控制器(一)\0508\ADC_volt.c" 1
 101  0003              	fcall __DELAYX6 + ( 040ah + __PBP__ * 2) -2000
 101  0003              	ENDIF
 101  0003              ;# 101 "C:\Users\YVTC\Desktop\單晶片微控制器(一)\0508\ADC_volt.c" 1
 101  0003              	IF (2000 >= ( 040bh + __PBP__ * 2)) AND ((((2000-( 9 + __PBP__ * 2))%0402h)/4+1)>256)
 101  0003              ;# 101 "C:\Users\YVTC\Desktop\單晶片微控制器(一)\0508\ADC_volt.c" 1
 101  0003              	MOV A,(2000-( 9 + __PBP__ * 2))/0402h
 101  0003              ;# 101 "C:\Users\YVTC\Desktop\單晶片微控制器(一)\0508\ADC_volt.c" 1
 101  0003              	MOV _builtin_holtek_delay_2,A
 101  0003              ;# 101 "C:\Users\YVTC\Desktop\單晶片微控制器(一)\0508\ADC_volt.c" 1
 101  0003              	MOV A,0
 101  0003              ;# 101 "C:\Users\YVTC\Desktop\單晶片微控制器(一)\0508\ADC_volt.c" 1
 101  0003              	fcall __DELAYY5 +5- (((2000-( 9 + __PBP__ * 2))%0402h)%6) 
 101  0003              	ENDIF
 101  0003              ;# 101 "C:\Users\YVTC\Desktop\單晶片微控制器(一)\0508\ADC_volt.c" 1
 101  0003              	IF (2000 >= ( 040bh + __PBP__ * 2)) AND ((((2000-( 9 + __PBP__ * 2))%0402h)/4+1)<=256)
 101  0003              ;# 101 "C:\Users\YVTC\Desktop\單晶片微控制器(一)\0508\ADC_volt.c" 1
 101  0003  0F01        	MOV A,(2000-( 9 + __PBP__ * 2))/0402h
 101  0004              ;# 101 "C:\Users\YVTC\Desktop\單晶片微控制器(一)\0508\ADC_volt.c" 1
 101  0004  0080     E  	MOV _builtin_holtek_delay_2,A
 101  0005              ;# 101 "C:\Users\YVTC\Desktop\單晶片微控制器(一)\0508\ADC_volt.c" 1
 101  0005  0FF1        	MOV A,((2000-( 9 + __PBP__ * 2))%0402h)/4+1
 101  0006              ;# 101 "C:\Users\YVTC\Desktop\單晶片微控制器(一)\0508\ADC_volt.c" 1
 101  0006              	fcall __DELAYY3 +3-(((2000-( 9 + __PBP__ * 2))%0402h)%4) 
 101  000D              	ENDIF
 101  000D  1480     E  	inc ra
 101  000E              _L57:
 101  000E  0700     E  	mov a,ra
 101  000F  0200     R  	sub a,_Delayms_2[0]
 101  0010  390A        	snz z
 101  0011  2800     R  	jmp _L58
 101  0012  0003        	ret
 101  0013              _Delayms endp
 101  0013              #line 101 "C:\Users\YVTC\Desktop\單晶片微控制器(一)\0508\ADC_volt.c"
 101  0013              #pragma debug scope 1 1
 101  0013              ___wdtc equ [62]
 101  0013              ___adcr0 equ [104]
 101  0013              ___adcr1 equ [105]
 101  0013              ___pas2 equ [354]
 101  0013              ___pdc equ [31]
 101  0013              ___pec equ [35]
 101  0013              ___pcc equ [27]
 101  0013              ___scomc equ [127]
 101  0013              ___intc1 equ [49]
 101  0013              ___tm2c0 equ [81]
 101  0013              ___tm2c1 equ [82]
 101  0013              ___tm2al equ [85]
 101  0013              ___tm2ah equ [86]
 101  0013              ___intc0 equ [48]
 101  0013              public _main
 101  0013              #pragma debug scope 7 1
  22  0013              #line 22 "C:\Users\YVTC\Desktop\單晶片微控制器(一)\0508\ADC_volt.c"
  22  0013              IFDEF WITH_DEFAULT_STARTUP
  22  0013              extern _main_initial0:near
"File: ADC_volt.c    Assembler  Version HGASM0202      Page 12

  22  0013              extern _main_startup:near
  22  0013              ENDIF
  22  0013              
  22  0013              ROMBANK 0 @start
  22  0000              @start .section com_l 'code'
  22  0000              _main_startup1:
  22  0000              @start .section com_e 'code'
  22  0000  0F00     R  	mov a,bank _main
  22  0001  008B        	mov bp,a
  22  0002  2800     R  	jmp _main
  22  0003              
  22  0000              _main .section 'code'
  22  0000              _main proc
  23  0000              #line 23 "C:\Users\YVTC\Desktop\單晶片微控制器(一)\0508\ADC_volt.c"
  23  0000  0FAF        	mov a,175
  23  0001  00BE        	mov [62],a
  24  0002              #line 24 "C:\Users\YVTC\Desktop\單晶片微控制器(一)\0508\ADC_volt.c"
  24  0002  0F04        	mov a,4
  24  0003  00E8        	mov [104],a
  25  0004              #line 25 "C:\Users\YVTC\Desktop\單晶片微控制器(一)\0508\ADC_volt.c"
  25  0004  0F24        	mov a,36
  25  0005  00E9        	mov [105],a
  26  0006              #line 26 "C:\Users\YVTC\Desktop\單晶片微控制器(一)\0508\ADC_volt.c"
  26  0006  0F03        	mov a,3
  26  0007  80E2 0001   	lmov [354],a
  27  0009              #line 27 "C:\Users\YVTC\Desktop\單晶片微控制器(一)\0508\ADC_volt.c"
  27  0009  1F1F        	clr [31]
  27  000A  3423        	clr [35].0
  28  000B              #line 28 "C:\Users\YVTC\Desktop\單晶片微控制器(一)\0508\ADC_volt.c"
  28  000B  341B        	clr [27].0
  28  000C  349B        	clr [27].1
  28  000D  371B        	clr [27].6
  28  000E  379B        	clr [27].7
  29  000F              #line 29 "C:\Users\YVTC\Desktop\單晶片微控制器(一)\0508\ADC_volt.c"
  29  000F  1F1E        	clr [30]
  29  0010  3422        	clr [34].0
  30  0011              #line 30 "C:\Users\YVTC\Desktop\單晶片微控制器(一)\0508\ADC_volt.c"
  30  0011  0F7F        	mov a,127
  30  0012  00FF        	mov [127],a
  31  0013              #line 31 "C:\Users\YVTC\Desktop\單晶片微控制器(一)\0508\ADC_volt.c"
  31  0013  30B1        	set [49].1
  31  0014  31B4        	set [52].3
  32  0015              #line 32 "C:\Users\YVTC\Desktop\單晶片微控制器(一)\0508\ADC_volt.c"
  32  0015  1F51        	clr [81]
  32  0016  0FC1        	mov a,193
  32  0017  00D2        	mov [82],a
  33  0018              #line 33 "C:\Users\YVTC\Desktop\單晶片微控制器(一)\0508\ADC_volt.c"
  33  0018  0FA0        	mov a,160
  33  0019  00D5        	mov [85],a
  33  001A  0F0F        	mov a,15
  33  001B  00D6        	mov [86],a
  34  001C              #line 34 "C:\Users\YVTC\Desktop\單晶片微控制器(一)\0508\ADC_volt.c"
  34  001C  37B4        	clr [52].7
  34  001D  36B1        	clr [49].5
  34  001E  31B1        	set [49].3
  34  001F  3030        	set [48].0
  35  0020              #line 35 "C:\Users\YVTC\Desktop\單晶片微控制器(一)\0508\ADC_volt.c"
  35  0020  1F00     R  	clr _DisBuffer[0]
  35  0021  1F00     R  	clr _DisBuffer[1]
  35  0022  1F00     R  	clr _DisBuffer[2]
"File: ADC_volt.c    Assembler  Version HGASM0202      Page 13

  35  0023  1F00     R  	clr _DisBuffer[3]
  35  0024  1F00     R  	clr _DisBuffer[4]
  36  0025              #line 36 "C:\Users\YVTC\Desktop\單晶片微控制器(一)\0508\ADC_volt.c"
  36  0025  1F00     R  	clr _Digit[0]
  36  0026  1F00     R  	clr _Digit[1]
  36  0027  1F00     R  	clr _Digit[2]
  36  0028  1F00     R  	clr _Digit[3]
  37  0029              #line 37 "C:\Users\YVTC\Desktop\單晶片微控制器(一)\0508\ADC_volt.c"
  37  0029  1F00     R  	clr _PhaseCount[0]
  38  002A              #line 38 "C:\Users\YVTC\Desktop\單晶片微控制器(一)\0508\ADC_volt.c"
  38  002A  31D1        	set [81].3
  38  002B              _L60:
  40  002B              #line 40 "C:\Users\YVTC\Desktop\單晶片微控制器(一)\0508\ADC_volt.c"
  40  002B  33E8        	set [104].7
  40  002C  37E8        	clr [104].7
  41  002D              #line 41 "C:\Users\YVTC\Desktop\單晶片微控制器(一)\0508\ADC_volt.c"
  41  002D  0F64        	mov a,100
  41  002E              	fcall _Delayms
  41  0035  2800     R  	jmp _L60
  41  0036  2800     R  	jmp $
  41  0037              _main endp
  41  0037              
  41  0037              @dummy endp
  41  0037              
  41  0037              #line 41 "C:\Users\YVTC\Desktop\單晶片微控制器(一)\0508\ADC_volt.c"
  41  0037              #pragma debug scope 1 1
  19  0037              #line 19 "C:\Users\YVTC\Desktop\單晶片微控制器(一)\0508\ADC_volt.c"
  19  0037              public _Result
  19  0000              @HCCINIT0_Result .section 'data'
  19  0000  0002[       _Result	db 2 dup(0)
            00
            ]
  19  0002              #pragma debug variable 10 1 _Result "Result"
  19  0002              
  19  0000              @HCCINIT .section 'data'
  18  0000              #line 18 "C:\Users\YVTC\Desktop\單晶片微控制器(一)\0508\ADC_volt.c"
  18  0000              public _PhaseCount
  18  0000              @HCCINIT0_PhaseCount .section 'data'
  18  0000              _PhaseCount	db 0
  18  0001              #pragma debug variable 8 1 _PhaseCount "PhaseCount"
  18  0001              
  18  0000              @HCCINIT .section 'data'
  17  0000              #line 17 "C:\Users\YVTC\Desktop\單晶片微控制器(一)\0508\ADC_volt.c"
  17  0000              public _Digit
  17  0000              @HCCINIT0_Digit .section 'data'
  17  0000  0004[       _Digit	db 4 dup(0)
            00
            ]
  17  0004              #pragma debug array 42 8 4 1
  17  0004              #pragma debug array 42 8 4 1
  17  0004              #pragma debug variable 42 1 _Digit "Digit"
  17  0004              
  17  0000              @HCCINIT .section 'data'
  17  0000              #line 17 "C:\Users\YVTC\Desktop\單晶片微控制器(一)\0508\ADC_volt.c"
  17  0000              public _DisBuffer
  17  0000              @HCCINIT0_DisBuffer .section 'data'
  17  0000  0005[       _DisBuffer	db 5 dup(0)
            00
            ]
  17  0005              #pragma debug array 43 8 5 1
"File: ADC_volt.c    Assembler  Version HGASM0202      Page 14

  17  0005              #pragma debug array 43 8 5 1
  17  0005              #pragma debug variable 43 1 _DisBuffer "DisBuffer"
  17  0005              
  17  0000              @HCCINIT .section 'data'
  17  0000              public _TransSegment
  17  0000              @crom	.section 'crom'
  12  0000              #line 12 "C:\Users\YVTC\Desktop\單晶片微控制器(一)\0508\ADC_volt.c"
  12  0000              @crom	.section	'crom'
  12  0000              _TransSegment:
  12  0000              #pragma debug array 44 8 17 1
  12  0000              #pragma debug array 44 8 17 1
  12  0000              #pragma debug variable 44 1 _TransSegment "TransSegment"
  12  0000              	db 123
  12  0001              	db 48
  12  0001              	db 93
  12  0002              	db 117
  12  0002              	db 54
  12  0003              	db 103
  12  0003              	db 111
  12  0004              	db 49
  12  0004              	db 127
  12  0005              	db 119
  12  0005              	db 63
  12  0006              	db 110
  12  0006              	db 76
  12  0007              	db 124
  12  0007              	db 79
  12  0008              	db 15
  12  0008              	db 0
  12  0009              #pragma debug struct_end
  12  0009              #pragma debug struct_end
  12  0009              #pragma debug union_end
  12  0009              #pragma debug union_end
  12  0009              #pragma debug variable 46 1 ___pc "__pc" 1
  12  0009              #pragma debug struct_end
  12  0009              #pragma debug struct_end
  12  0009              #pragma debug union_end
  12  0009              #pragma debug union_end
  12  0009              #pragma debug variable 48 1 ___pcc "__pcc" 1
  12  0009              #pragma debug struct_end
  12  0009              #pragma debug struct_end
  12  0009              #pragma debug union_end
  12  0009              #pragma debug union_end
  12  0009              #pragma debug variable 50 1 ___pd "__pd" 1
  12  0009              #pragma debug struct_end
  12  0009              #pragma debug struct_end
  12  0009              #pragma debug union_end
  12  0009              #pragma debug union_end
  12  0009              #pragma debug variable 52 1 ___pdc "__pdc" 1
  12  0009              #pragma debug struct_end
  12  0009              #pragma debug struct_end
  12  0009              #pragma debug union_end
  12  0009              #pragma debug union_end
  12  0009              #pragma debug variable 54 1 ___pe "__pe" 1
  12  0009              #pragma debug struct_end
  12  0009              #pragma debug struct_end
  12  0009              #pragma debug union_end
  12  0009              #pragma debug union_end
  12  0009              #pragma debug variable 56 1 ___pec "__pec" 1
  12  0009              #pragma debug struct_end
"File: ADC_volt.c    Assembler  Version HGASM0202      Page 15

  12  0009              #pragma debug struct_end
  12  0009              #pragma debug union_end
  12  0009              #pragma debug union_end
  12  0009              #pragma debug variable 58 1 ___intc0 "__intc0" 1
  12  0009              #pragma debug struct_end
  12  0009              #pragma debug struct_end
  12  0009              #pragma debug union_end
  12  0009              #pragma debug union_end
  12  0009              #pragma debug variable 60 1 ___intc1 "__intc1" 1
  12  0009              #pragma debug struct_end
  12  0009              #pragma debug struct_end
  12  0009              #pragma debug union_end
  12  0009              #pragma debug union_end
  12  0009              #pragma debug variable 62 1 ___mfi0 "__mfi0" 1
  12  0009              #pragma debug struct_end
  12  0009              #pragma debug struct_end
  12  0009              #pragma debug union_end
  12  0009              #pragma debug union_end
  12  0009              #pragma debug variable 64 1 ___wdtc "__wdtc" 1
  12  0009              #pragma debug struct_end
  12  0009              #pragma debug struct_end
  12  0009              #pragma debug union_end
  12  0009              #pragma debug union_end
  12  0009              #pragma debug variable 66 1 ___tm2c0 "__tm2c0" 1
  12  0009              #pragma debug struct_end
  12  0009              #pragma debug struct_end
  12  0009              #pragma debug union_end
  12  0009              #pragma debug union_end
  12  0009              #pragma debug variable 68 1 ___tm2c1 "__tm2c1" 1
  12  0009              #pragma debug variable 8 1 ___tm2al "__tm2al" 1
  12  0009              #pragma debug variable 8 1 ___tm2ah "__tm2ah" 1
  12  0009              #pragma debug struct_end
  12  0009              #pragma debug struct_end
  12  0009              #pragma debug union_end
  12  0009              #pragma debug union_end
  12  0009              #pragma debug variable 70 1 ___adcr0 "__adcr0" 1
  12  0009              #pragma debug struct_end
  12  0009              #pragma debug struct_end
  12  0009              #pragma debug union_end
  12  0009              #pragma debug union_end
  12  0009              #pragma debug variable 72 1 ___adcr1 "__adcr1" 1
  12  0009              #pragma debug variable 8 1 ___adrl "__adrl" 1
  12  0009              #pragma debug variable 8 1 ___adrh "__adrh" 1
  12  0009              #pragma debug struct_end
  12  0009              #pragma debug struct_end
  12  0009              #pragma debug union_end
  12  0009              #pragma debug union_end
  12  0009              #pragma debug variable 74 1 ___scomc "__scomc" 1
  12  0009              #pragma debug struct_end
  12  0009              #pragma debug struct_end
  12  0009              #pragma debug union_end
  12  0009              #pragma debug union_end
  12  0009              #pragma debug variable 76 1 ___pas2 "__pas2" 1
  12  0009              #pragma debug struct_end
  12  0009              #pragma debug struct_end
  12  0009              #pragma debug union_end
  12  0009              #pragma debug union_end
  12  0009              #pragma debug variable 78 1 ___pcs0 "__pcs0" 1
  12  0009              #pragma debug struct_end
  12  0009              #pragma debug struct_end
"File: ADC_volt.c    Assembler  Version HGASM0202      Page 16

  12  0009              #pragma debug union_end
  12  0009              #pragma debug union_end
  12  0009              #pragma debug variable 80 1 ___pcs3 "__pcs3" 1
  12  0009              extern r1:byte
  12  0009              extern r2:byte
  12  0009              extern r3:byte
  12  0009              extern r4:byte
  12  0009              extern r5:byte
  12  0009              extern r6:byte
  12  0009              extern r7:byte
  22  0009              #line 22 "C:\Users\YVTC\Desktop\單晶片微控制器(一)\0508\ADC_volt.c"
  22  0000              @code .section at 0 'code'
  22  0000  1F0B        	clr bp
  22  0001  2800     R  	jmp _main_startup1
  22  0002              
  22  0002              extern _builtin_holtek_udivmodhi4_2:byte
  22  0002              extern _builtin_holtek_udivmodhi4:near
  22  0002              extern _builtin_holtek_mulsi3_2:byte
  22  0002              extern _builtin_holtek_mulsi3:near
  22  0002              
  22  0002              ; 
  22  0002              ; Generated by holtek-gcc v3.18, Tue May 08 13:07:27 2018
  22  0002              ; Rebuild 126
  22  0002              ; end of file


        0 Errors, 0