"File: ADCWithCal.c  Assembler  Version HGASM0202      Page 1


   1  0000              ; Generated by holtek-gcc v3.18, Tue May 22 16:05:17 2018
   2  0000              ; 
   3  0000              ; Configuration:
   4  0000              ;       with long instruction
   5  0000              ;       Multi-ROM, Multi-RAM
   6  0000              ;       bits_per_rom_unit:16
   7  0000              ;       with mp1
   8  0000              ;       with tbhp, address(0x9)
   9  0000              ;          Use tabrd-const
  10  0000              ;       
  11  0000              ; SFR address of long-instruction arch:
  12  0000              ;    mp0 = -1,1,0
  13  0000              ;    mp1 = 4,3,2
  14  0000              ;    mp2 = 14,13,12
  15  0000              ;    tbp = 9,7,8
  16  0000              ;    acc = 5
  17  0000              ;    pcl = 6
  18  0000              ;    status = 10
  19  0000              ;    bp = 11
  20  0000              ;    intc = 48
  21  0000              ;       
  22  0000              ;       
  23  0000              ; use 'tabrdc' instead of 'tabrd'
  24  0000              ;       
  25  0000              
  26  0000              #pragma translator "holtek-gcc 4.6.4" "3.18" "build 20130711"
  27  0000              ; Rebuild 126
  28  0000              
  29  0000              ir equ [2]
  30  0000              mp equ [3]
  31  0000              sbp equ [4]
  32  0000              acc equ [5]
  33  0000              bp equ [11]
  34  0000              tblp equ [7]
  35  0000              tbhp equ [9]
  36  0000              status equ [10]
  37  0000              c equ [10].0
  38  0000              ac equ [10].1
  39  0000              z equ [10].2
  40  0000              ov equ [10].3
  41  0000              cz equ [10].6
  42  0000              sc equ [10].7
  43  0000              intc equ [48]
  44  0000              
  45  0000              extern ra:byte
  46  0000              extern rb:byte
  47  0000              extern rc:byte
  48  0000              extern rd:byte
  49  0000              extern re:byte
  50  0000              extern rf:byte
  51  0000              extern rg:byte
  52  0000              extern rh:byte
  53  0000              extern _Crom2Prom:near
  54  0000              extern _Crom2PromNext:near
  55  0000              
  56  0000              RAMBANK 0 @BITDATASEC, @BITDATASEC1
  57  0000              @HCCINIT	.section 'data'
  58  0000              @HCCINIT0	.section 'data'
  59  0000              @BITDATASEC	 .section 'data'
"File: ADCWithCal.ASM  Assembler  Version HGASM0202      Page 2

  60  0000              @BITDATASEC1	 .section 'data'
  61  0000              
  62  0000              #pragma debug scope 1 1
  63  0000              	extern __DELAY3:near
  64  0000              	extern __DELAYX3:near
  65  0000              	extern __DELAYX6:near
  66  0000              	extern __DELAYY5:near
  67  0000              	extern __DELAYY3:near
  68  0000              	extern _builtin_holtek_delay_2:byte
  69  0000              ___ph equ [46]
  70  0000              ___phc equ [47]
  71  0000              public _I2C_START
  72  0000              #pragma debug scope 2 1

 135  0000              #line 135 "C:\Users\YVTC\Desktop\單晶片微控制器(一)\0522\ADCWithCal.c"
 135  0000              _I2C_START .section 'code'
 135  0000              _I2C_START proc
 135  0000  342E        	clr [46].0
 135  0001  34AE        	clr [46].1
 136  0002              #line 136 "C:\Users\YVTC\Desktop\單晶片微控制器(一)\0522\ADCWithCal.c"
 136  0002  342F        	clr [47].0
 136  0003  34AF        	clr [47].1
 137  0004              #line 137 "C:\Users\YVTC\Desktop\單晶片微控制器(一)\0522\ADCWithCal.c"
 137  0004  302E        	set [46].0
 137  0005  30AE        	set [46].1
 137  0006              ;# 137 "C:\Users\YVTC\Desktop\單晶片微控制器(一)\0522\ADCWithCal.c" 1
 137  0006              	IF 25>263690
 137  0006              ;# 137 "C:\Users\YVTC\Desktop\單晶片微控制器(一)\0522\ADCWithCal.c" 1
 137  0006              	ERRMESSAGE 'the value 25of the argument exceeds the maxinum 263690'
 137  0006              	ENDIF
 137  0006              ;# 137 "C:\Users\YVTC\Desktop\單晶片微控制器(一)\0522\ADCWithCal.c" 1
 137  0006              	IF 25<0
 137  0006              ;# 137 "C:\Users\YVTC\Desktop\單晶片微控制器(一)\0522\ADCWithCal.c" 1
 137  0006              	ERRMESSAGE 'the value 25 of the argument exceeds the mininum 0'
 137  0006              	ENDIF
 137  0006              ;# 137 "C:\Users\YVTC\Desktop\單晶片微控制器(一)\0522\ADCWithCal.c" 1
 137  0006              	IF 25==0
 137  0006              ;# 137 "C:\Users\YVTC\Desktop\單晶片微控制器(一)\0522\ADCWithCal.c" 1
 137  0006              	JMP $
 137  0006              	ENDIF
 137  0006              ;# 137 "C:\Users\YVTC\Desktop\單晶片微控制器(一)\0522\ADCWithCal.c" 1
 137  0006              	IF (25>=1) AND (25<( 4 + __PBP__ * 2))
 137  0006              ;# 137 "C:\Users\YVTC\Desktop\單晶片微控制器(一)\0522\ADCWithCal.c" 1
 137  0006              	NOP
 137  0006              	ENDIF
 137  0006              ;# 137 "C:\Users\YVTC\Desktop\單晶片微控制器(一)\0522\ADCWithCal.c" 1
 137  0006              	IF (25>=2) AND (25<( 4 + __PBP__ * 2))
 137  0006              ;# 137 "C:\Users\YVTC\Desktop\單晶片微控制器(一)\0522\ADCWithCal.c" 1
 137  0006              	NOP
 137  0006              	ENDIF
 137  0006              ;# 137 "C:\Users\YVTC\Desktop\單晶片微控制器(一)\0522\ADCWithCal.c" 1
 137  0006              	IF (25>=3) AND (25<( 4 + __PBP__ * 2))
 137  0006              ;# 137 "C:\Users\YVTC\Desktop\單晶片微控制器(一)\0522\ADCWithCal.c" 1
 137  0006              	NOP
 137  0006              	ENDIF
 137  0006              ;# 137 "C:\Users\YVTC\Desktop\單晶片微控制器(一)\0522\ADCWithCal.c" 1
 137  0006              	IF (25>=4) AND (25<( 4 + __PBP__ * 2)) AND ( __PBP__ > 0 )
 137  0006              ;# 137 "C:\Users\YVTC\Desktop\單晶片微控制器(一)\0522\ADCWithCal.c" 1
 137  0006              	NOP
 137  0006              	ENDIF
"File: ADCWithCal.c  Assembler  Version HGASM0202      Page 3

 137  0006              ;# 137 "C:\Users\YVTC\Desktop\單晶片微控制器(一)\0522\ADCWithCal.c" 1
 137  0006              	IF (25>=5) AND (25<( 4 + __PBP__ * 2)) AND ( __PBP__ > 0 )
 137  0006              ;# 137 "C:\Users\YVTC\Desktop\單晶片微控制器(一)\0522\ADCWithCal.c" 1
 137  0006              	NOP
 137  0006              	ENDIF
 137  0006              ;# 137 "C:\Users\YVTC\Desktop\單晶片微控制器(一)\0522\ADCWithCal.c" 1
 137  0006              	IF (25>=6) AND (25<( 4 + __PBP__ * 2))  AND ( __PBP__ > 1 )
 137  0006              ;# 137 "C:\Users\YVTC\Desktop\單晶片微控制器(一)\0522\ADCWithCal.c" 1
 137  0006              	NOP
 137  0006              	ENDIF
 137  0006              ;# 137 "C:\Users\YVTC\Desktop\單晶片微控制器(一)\0522\ADCWithCal.c" 1
 137  0006              	IF (25>=7) AND (25<( 4 + __PBP__ * 2))  AND ( __PBP__ > 1 )
 137  0006              ;# 137 "C:\Users\YVTC\Desktop\單晶片微控制器(一)\0522\ADCWithCal.c" 1
 137  0006              	NOP
 137  0006              	ENDIF
 137  0006              ;# 137 "C:\Users\YVTC\Desktop\單晶片微控制器(一)\0522\ADCWithCal.c" 1
 137  0006              	IF (25>=8) AND (25<( 4 + __PBP__ * 2))  AND ( __PBP__ > 2 )
 137  0006              ;# 137 "C:\Users\YVTC\Desktop\單晶片微控制器(一)\0522\ADCWithCal.c" 1
 137  0006              	NOP
 137  0006              	ENDIF
 137  0006              ;# 137 "C:\Users\YVTC\Desktop\單晶片微控制器(一)\0522\ADCWithCal.c" 1
 137  0006              	IF (25==9)  AND ( __PBP__ > 2 )
 137  0006              ;# 137 "C:\Users\YVTC\Desktop\單晶片微控制器(一)\0522\ADCWithCal.c" 1
 137  0006              	NOP
 137  0006              	ENDIF
 137  0006              ;# 137 "C:\Users\YVTC\Desktop\單晶片微控制器(一)\0522\ADCWithCal.c" 1
 137  0006              	IF (25< ( 8 + __PBP__ * 2)) AND (25>( 3 + __PBP__ * 2))
 137  0006              ;# 137 "C:\Users\YVTC\Desktop\單晶片微控制器(一)\0522\ADCWithCal.c" 1
 137  0006              	fcall __DELAY3 + ( 7 + __PBP__ * 2) -25
 137  0006              	ENDIF
 137  0006              ;# 137 "C:\Users\YVTC\Desktop\單晶片微控制器(一)\0522\ADCWithCal.c" 1
 137  0006              	IF (25< ( 0404h + __PBP__ * 2)) AND (25>( 7 + __PBP__ * 2))
 137  0006              ;# 137 "C:\Users\YVTC\Desktop\單晶片微控制器(一)\0522\ADCWithCal.c" 1
 137  0006  0F04        	MOV A,(25-( 4 + __PBP__ * 2))/4
 137  0007              ;# 137 "C:\Users\YVTC\Desktop\單晶片微控制器(一)\0522\ADCWithCal.c" 1
 137  0007              	fcall __DELAYX3 + 3 -((25-( 4 + __PBP__ * 2)) MOD 4) 
 137  000E              	ENDIF
 137  000E              ;# 137 "C:\Users\YVTC\Desktop\單晶片微控制器(一)\0522\ADCWithCal.c" 1
 137  000E              	IF (25< ( 040bh + __PBP__ * 2)) AND (25> ( 0403h + __PBP__ * 2))
 137  000E              ;# 137 "C:\Users\YVTC\Desktop\單晶片微控制器(一)\0522\ADCWithCal.c" 1
 137  000E              	MOV A,0 
 137  000E              ;# 137 "C:\Users\YVTC\Desktop\單晶片微控制器(一)\0522\ADCWithCal.c" 1
 137  000E              	fcall __DELAYX6 + ( 040ah + __PBP__ * 2) -25
 137  000E              	ENDIF
 137  000E              ;# 137 "C:\Users\YVTC\Desktop\單晶片微控制器(一)\0522\ADCWithCal.c" 1
 137  000E              	IF (25 >= ( 040bh + __PBP__ * 2)) AND ((((25-( 9 + __PBP__ * 2))%0402h)/4+1)>256)
 137  000E              ;# 137 "C:\Users\YVTC\Desktop\單晶片微控制器(一)\0522\ADCWithCal.c" 1
 137  000E              	MOV A,(25-( 9 + __PBP__ * 2))/0402h
 137  000E              ;# 137 "C:\Users\YVTC\Desktop\單晶片微控制器(一)\0522\ADCWithCal.c" 1
 137  000E              	MOV _builtin_holtek_delay_2,A
 137  000E              ;# 137 "C:\Users\YVTC\Desktop\單晶片微控制器(一)\0522\ADCWithCal.c" 1
 137  000E              	MOV A,0
 137  000E              ;# 137 "C:\Users\YVTC\Desktop\單晶片微控制器(一)\0522\ADCWithCal.c" 1
 137  000E              	fcall __DELAYY5 +5- (((25-( 9 + __PBP__ * 2))%0402h)%6) 
 137  000E              	ENDIF
 137  000E              ;# 137 "C:\Users\YVTC\Desktop\單晶片微控制器(一)\0522\ADCWithCal.c" 1
 137  000E              	IF (25 >= ( 040bh + __PBP__ * 2)) AND ((((25-( 9 + __PBP__ * 2))%0402h)/4+1)<=256)
 137  000E              ;# 137 "C:\Users\YVTC\Desktop\單晶片微控制器(一)\0522\ADCWithCal.c" 1
 137  000E              	MOV A,(25-( 9 + __PBP__ * 2))/0402h
 137  000E              ;# 137 "C:\Users\YVTC\Desktop\單晶片微控制器(一)\0522\ADCWithCal.c" 1
"File: ADCWithCal.c  Assembler  Version HGASM0202      Page 4

 137  000E              	MOV _builtin_holtek_delay_2,A
 137  000E              ;# 137 "C:\Users\YVTC\Desktop\單晶片微控制器(一)\0522\ADCWithCal.c" 1
 137  000E              	MOV A,((25-( 9 + __PBP__ * 2))%0402h)/4+1
 137  000E              ;# 137 "C:\Users\YVTC\Desktop\單晶片微控制器(一)\0522\ADCWithCal.c" 1
 137  000E              	fcall __DELAYY3 +3-(((25-( 9 + __PBP__ * 2))%0402h)%4) 
 137  000E              	ENDIF
 138  000E              #line 138 "C:\Users\YVTC\Desktop\單晶片微控制器(一)\0522\ADCWithCal.c"
 138  000E  34AE        	clr [46].1
 139  000F              #line 139 "C:\Users\YVTC\Desktop\單晶片微控制器(一)\0522\ADCWithCal.c"
 139  000F  342E        	clr [46].0
 139  0010  0003        	ret
 139  0011              _I2C_START endp
 139  0011              #line 139 "C:\Users\YVTC\Desktop\單晶片微控制器(一)\0522\ADCWithCal.c"
 139  0011              #pragma debug scope 1 1
 139  0011              public _I2C_STOP
 139  0011              #pragma debug scope 3 1
 142  0011              #line 142 "C:\Users\YVTC\Desktop\單晶片微控制器(一)\0522\ADCWithCal.c"
 142  0000              _I2C_STOP .section 'code'
 142  0000              _I2C_STOP proc
 142  0000  342E        	clr [46].0
 142  0001  34AE        	clr [46].1
 143  0002              #line 143 "C:\Users\YVTC\Desktop\單晶片微控制器(一)\0522\ADCWithCal.c"
 143  0002  34AF        	clr [47].1
 144  0003              #line 144 "C:\Users\YVTC\Desktop\單晶片微控制器(一)\0522\ADCWithCal.c"
 144  0003  302E        	set [46].0
 145  0004              #line 145 "C:\Users\YVTC\Desktop\單晶片微控制器(一)\0522\ADCWithCal.c"
 145  0004  30AE        	set [46].1
 146  0005              #line 146 "C:\Users\YVTC\Desktop\單晶片微控制器(一)\0522\ADCWithCal.c"
 146  0005  342E        	clr [46].0
 146  0006  0003        	ret
 146  0007              _I2C_STOP endp
 146  0007              #line 146 "C:\Users\YVTC\Desktop\單晶片微控制器(一)\0522\ADCWithCal.c"
 146  0007              #pragma debug scope 1 1
 146  0007              public _CheckACK
 146  0007              #pragma debug scope 4 1
 149  0007              #line 149 "C:\Users\YVTC\Desktop\單晶片微控制器(一)\0522\ADCWithCal.c"
 149  0000              _CheckACK .section 'code'
 149  0000              _CheckACK proc
 149  0000  30AF        	set [47].1
 150  0001              #line 150 "C:\Users\YVTC\Desktop\單晶片微控制器(一)\0522\ADCWithCal.c"
 150  0001  302E        	set [46].0
 150  0002              _L5:
 151  0002              #line 151 "C:\Users\YVTC\Desktop\單晶片微控制器(一)\0522\ADCWithCal.c"
 151  0002  3CAE        	sz [46].1
 151  0003  2800     R  	jmp _L5
 152  0004              #line 152 "C:\Users\YVTC\Desktop\單晶片微控制器(一)\0522\ADCWithCal.c"
 152  0004  342E        	clr [46].0
 152  0005  0003        	ret
 152  0006              _CheckACK endp
 152  0006              #line 152 "C:\Users\YVTC\Desktop\單晶片微控制器(一)\0522\ADCWithCal.c"
 152  0006              #pragma debug scope 1 1
 152  0006              public _WriteByte
 152  0006              #pragma debug scope 5 1
 155  0006              #line 155 "C:\Users\YVTC\Desktop\單晶片微控制器(一)\0522\ADCWithCal.c"
 155  0000              _WriteByte .section 'code'
 155  0000              _WriteByte proc
 155  0000  00              local _WriteByte_2 db 1 dup(?)	; 0,1
 155  0000  0080     R  	mov _WriteByte_2[0],a
 155  0001              #pragma debug variable 8 5 _WriteByte_2+0 "I2CData"
 156  0001              #line 156 "C:\Users\YVTC\Desktop\單晶片微控制器(一)\0522\ADCWithCal.c"
"File: ADCWithCal.c  Assembler  Version HGASM0202      Page 5

 156  0001  342E        	clr [46].0
 156  0002  34AF        	clr [47].1
 156  0003  1F00     E  	clr ra
 155  0004              #line 155 "C:\Users\YVTC\Desktop\單晶片微控制器(一)\0522\ADCWithCal.c"
 155  0004  0F80        	mov a,128
 155  0005  0080     E  	mov rb,a
 155  0006              _L9:
 158  0006              #line 158 "C:\Users\YVTC\Desktop\單晶片微控制器(一)\0522\ADCWithCal.c"
 158  0006  0700     E  	mov a,rb
 158  0007  0600     R  	and a,_WriteByte_2[0]
 158  0008  0080     E  	mov rc,a
 158  0009  0F00        	mov a,0
 158  000A  0200     E  	sub a,rc
 158  000B  0080     E  	mov rd,a
 158  000C  0700     E  	mov a,rd
 158  000D  0580     E  	orm a,rc
 158  000E  1A80     E  	rlc rc
 158  000F  1F00     E  	clr rc
 158  0010  1A80     E  	rlc rc
 158  0011  0700     E  	mov a,rc
 158  0012  0380     E  	addm a,rc
 158  0013  34AE        	clr [46].1
 158  0014  0700     E  	mov a,rc
 158  0015  05AE        	orm a,[46]
 158  0016              ;# 158 "C:\Users\YVTC\Desktop\單晶片微控制器(一)\0522\ADCWithCal.c" 1
 158  0016              	IF 25>263690
 158  0016              ;# 158 "C:\Users\YVTC\Desktop\單晶片微控制器(一)\0522\ADCWithCal.c" 1
 158  0016              	ERRMESSAGE 'the value 25of the argument exceeds the maxinum 263690'
 158  0016              	ENDIF
 158  0016              ;# 158 "C:\Users\YVTC\Desktop\單晶片微控制器(一)\0522\ADCWithCal.c" 1
 158  0016              	IF 25<0
 158  0016              ;# 158 "C:\Users\YVTC\Desktop\單晶片微控制器(一)\0522\ADCWithCal.c" 1
 158  0016              	ERRMESSAGE 'the value 25 of the argument exceeds the mininum 0'
 158  0016              	ENDIF
 158  0016              ;# 158 "C:\Users\YVTC\Desktop\單晶片微控制器(一)\0522\ADCWithCal.c" 1
 158  0016              	IF 25==0
 158  0016              ;# 158 "C:\Users\YVTC\Desktop\單晶片微控制器(一)\0522\ADCWithCal.c" 1
 158  0016              	JMP $
 158  0016              	ENDIF
 158  0016              ;# 158 "C:\Users\YVTC\Desktop\單晶片微控制器(一)\0522\ADCWithCal.c" 1
 158  0016              	IF (25>=1) AND (25<( 4 + __PBP__ * 2))
 158  0016              ;# 158 "C:\Users\YVTC\Desktop\單晶片微控制器(一)\0522\ADCWithCal.c" 1
 158  0016              	NOP
 158  0016              	ENDIF
 158  0016              ;# 158 "C:\Users\YVTC\Desktop\單晶片微控制器(一)\0522\ADCWithCal.c" 1
 158  0016              	IF (25>=2) AND (25<( 4 + __PBP__ * 2))
 158  0016              ;# 158 "C:\Users\YVTC\Desktop\單晶片微控制器(一)\0522\ADCWithCal.c" 1
 158  0016              	NOP
 158  0016              	ENDIF
 158  0016              ;# 158 "C:\Users\YVTC\Desktop\單晶片微控制器(一)\0522\ADCWithCal.c" 1
 158  0016              	IF (25>=3) AND (25<( 4 + __PBP__ * 2))
 158  0016              ;# 158 "C:\Users\YVTC\Desktop\單晶片微控制器(一)\0522\ADCWithCal.c" 1
 158  0016              	NOP
 158  0016              	ENDIF
 158  0016              ;# 158 "C:\Users\YVTC\Desktop\單晶片微控制器(一)\0522\ADCWithCal.c" 1
 158  0016              	IF (25>=4) AND (25<( 4 + __PBP__ * 2)) AND ( __PBP__ > 0 )
 158  0016              ;# 158 "C:\Users\YVTC\Desktop\單晶片微控制器(一)\0522\ADCWithCal.c" 1
 158  0016              	NOP
 158  0016              	ENDIF
 158  0016              ;# 158 "C:\Users\YVTC\Desktop\單晶片微控制器(一)\0522\ADCWithCal.c" 1
"File: ADCWithCal.c  Assembler  Version HGASM0202      Page 6

 158  0016              	IF (25>=5) AND (25<( 4 + __PBP__ * 2)) AND ( __PBP__ > 0 )
 158  0016              ;# 158 "C:\Users\YVTC\Desktop\單晶片微控制器(一)\0522\ADCWithCal.c" 1
 158  0016              	NOP
 158  0016              	ENDIF
 158  0016              ;# 158 "C:\Users\YVTC\Desktop\單晶片微控制器(一)\0522\ADCWithCal.c" 1
 158  0016              	IF (25>=6) AND (25<( 4 + __PBP__ * 2))  AND ( __PBP__ > 1 )
 158  0016              ;# 158 "C:\Users\YVTC\Desktop\單晶片微控制器(一)\0522\ADCWithCal.c" 1
 158  0016              	NOP
 158  0016              	ENDIF
 158  0016              ;# 158 "C:\Users\YVTC\Desktop\單晶片微控制器(一)\0522\ADCWithCal.c" 1
 158  0016              	IF (25>=7) AND (25<( 4 + __PBP__ * 2))  AND ( __PBP__ > 1 )
 158  0016              ;# 158 "C:\Users\YVTC\Desktop\單晶片微控制器(一)\0522\ADCWithCal.c" 1
 158  0016              	NOP
 158  0016              	ENDIF
 158  0016              ;# 158 "C:\Users\YVTC\Desktop\單晶片微控制器(一)\0522\ADCWithCal.c" 1
 158  0016              	IF (25>=8) AND (25<( 4 + __PBP__ * 2))  AND ( __PBP__ > 2 )
 158  0016              ;# 158 "C:\Users\YVTC\Desktop\單晶片微控制器(一)\0522\ADCWithCal.c" 1
 158  0016              	NOP
 158  0016              	ENDIF
 158  0016              ;# 158 "C:\Users\YVTC\Desktop\單晶片微控制器(一)\0522\ADCWithCal.c" 1
 158  0016              	IF (25==9)  AND ( __PBP__ > 2 )
 158  0016              ;# 158 "C:\Users\YVTC\Desktop\單晶片微控制器(一)\0522\ADCWithCal.c" 1
 158  0016              	NOP
 158  0016              	ENDIF
 158  0016              ;# 158 "C:\Users\YVTC\Desktop\單晶片微控制器(一)\0522\ADCWithCal.c" 1
 158  0016              	IF (25< ( 8 + __PBP__ * 2)) AND (25>( 3 + __PBP__ * 2))
 158  0016              ;# 158 "C:\Users\YVTC\Desktop\單晶片微控制器(一)\0522\ADCWithCal.c" 1
 158  0016              	fcall __DELAY3 + ( 7 + __PBP__ * 2) -25
 158  0016              	ENDIF
 158  0016              ;# 158 "C:\Users\YVTC\Desktop\單晶片微控制器(一)\0522\ADCWithCal.c" 1
 158  0016              	IF (25< ( 0404h + __PBP__ * 2)) AND (25>( 7 + __PBP__ * 2))
 158  0016              ;# 158 "C:\Users\YVTC\Desktop\單晶片微控制器(一)\0522\ADCWithCal.c" 1
 158  0016  0F04        	MOV A,(25-( 4 + __PBP__ * 2))/4
 158  0017              ;# 158 "C:\Users\YVTC\Desktop\單晶片微控制器(一)\0522\ADCWithCal.c" 1
 158  0017              	fcall __DELAYX3 + 3 -((25-( 4 + __PBP__ * 2)) MOD 4) 
 158  001E              	ENDIF
 158  001E              ;# 158 "C:\Users\YVTC\Desktop\單晶片微控制器(一)\0522\ADCWithCal.c" 1
 158  001E              	IF (25< ( 040bh + __PBP__ * 2)) AND (25> ( 0403h + __PBP__ * 2))
 158  001E              ;# 158 "C:\Users\YVTC\Desktop\單晶片微控制器(一)\0522\ADCWithCal.c" 1
 158  001E              	MOV A,0 
 158  001E              ;# 158 "C:\Users\YVTC\Desktop\單晶片微控制器(一)\0522\ADCWithCal.c" 1
 158  001E              	fcall __DELAYX6 + ( 040ah + __PBP__ * 2) -25
 158  001E              	ENDIF
 158  001E              ;# 158 "C:\Users\YVTC\Desktop\單晶片微控制器(一)\0522\ADCWithCal.c" 1
 158  001E              	IF (25 >= ( 040bh + __PBP__ * 2)) AND ((((25-( 9 + __PBP__ * 2))%0402h)/4+1)>256)
 158  001E              ;# 158 "C:\Users\YVTC\Desktop\單晶片微控制器(一)\0522\ADCWithCal.c" 1
 158  001E              	MOV A,(25-( 9 + __PBP__ * 2))/0402h
 158  001E              ;# 158 "C:\Users\YVTC\Desktop\單晶片微控制器(一)\0522\ADCWithCal.c" 1
 158  001E              	MOV _builtin_holtek_delay_2,A
 158  001E              ;# 158 "C:\Users\YVTC\Desktop\單晶片微控制器(一)\0522\ADCWithCal.c" 1
 158  001E              	MOV A,0
 158  001E              ;# 158 "C:\Users\YVTC\Desktop\單晶片微控制器(一)\0522\ADCWithCal.c" 1
 158  001E              	fcall __DELAYY5 +5- (((25-( 9 + __PBP__ * 2))%0402h)%6) 
 158  001E              	ENDIF
 158  001E              ;# 158 "C:\Users\YVTC\Desktop\單晶片微控制器(一)\0522\ADCWithCal.c" 1
 158  001E              	IF (25 >= ( 040bh + __PBP__ * 2)) AND ((((25-( 9 + __PBP__ * 2))%0402h)/4+1)<=256)
 158  001E              ;# 158 "C:\Users\YVTC\Desktop\單晶片微控制器(一)\0522\ADCWithCal.c" 1
 158  001E              	MOV A,(25-( 9 + __PBP__ * 2))/0402h
 158  001E              ;# 158 "C:\Users\YVTC\Desktop\單晶片微控制器(一)\0522\ADCWithCal.c" 1
 158  001E              	MOV _builtin_holtek_delay_2,A
"File: ADCWithCal.c  Assembler  Version HGASM0202      Page 7

 158  001E              ;# 158 "C:\Users\YVTC\Desktop\單晶片微控制器(一)\0522\ADCWithCal.c" 1
 158  001E              	MOV A,((25-( 9 + __PBP__ * 2))%0402h)/4+1
 158  001E              ;# 158 "C:\Users\YVTC\Desktop\單晶片微控制器(一)\0522\ADCWithCal.c" 1
 158  001E              	fcall __DELAYY3 +3-(((25-( 9 + __PBP__ * 2))%0402h)%4) 
 158  001E              	ENDIF
 159  001E              #line 159 "C:\Users\YVTC\Desktop\單晶片微控制器(一)\0522\ADCWithCal.c"
 159  001E  302E        	set [46].0
 159  001F              ;# 159 "C:\Users\YVTC\Desktop\單晶片微控制器(一)\0522\ADCWithCal.c" 1
 159  001F              	IF 25>263690
 159  001F              ;# 159 "C:\Users\YVTC\Desktop\單晶片微控制器(一)\0522\ADCWithCal.c" 1
 159  001F              	ERRMESSAGE 'the value 25of the argument exceeds the maxinum 263690'
 159  001F              	ENDIF
 159  001F              ;# 159 "C:\Users\YVTC\Desktop\單晶片微控制器(一)\0522\ADCWithCal.c" 1
 159  001F              	IF 25<0
 159  001F              ;# 159 "C:\Users\YVTC\Desktop\單晶片微控制器(一)\0522\ADCWithCal.c" 1
 159  001F              	ERRMESSAGE 'the value 25 of the argument exceeds the mininum 0'
 159  001F              	ENDIF
 159  001F              ;# 159 "C:\Users\YVTC\Desktop\單晶片微控制器(一)\0522\ADCWithCal.c" 1
 159  001F              	IF 25==0
 159  001F              ;# 159 "C:\Users\YVTC\Desktop\單晶片微控制器(一)\0522\ADCWithCal.c" 1
 159  001F              	JMP $
 159  001F              	ENDIF
 159  001F              ;# 159 "C:\Users\YVTC\Desktop\單晶片微控制器(一)\0522\ADCWithCal.c" 1
 159  001F              	IF (25>=1) AND (25<( 4 + __PBP__ * 2))
 159  001F              ;# 159 "C:\Users\YVTC\Desktop\單晶片微控制器(一)\0522\ADCWithCal.c" 1
 159  001F              	NOP
 159  001F              	ENDIF
 159  001F              ;# 159 "C:\Users\YVTC\Desktop\單晶片微控制器(一)\0522\ADCWithCal.c" 1
 159  001F              	IF (25>=2) AND (25<( 4 + __PBP__ * 2))
 159  001F              ;# 159 "C:\Users\YVTC\Desktop\單晶片微控制器(一)\0522\ADCWithCal.c" 1
 159  001F              	NOP
 159  001F              	ENDIF
 159  001F              ;# 159 "C:\Users\YVTC\Desktop\單晶片微控制器(一)\0522\ADCWithCal.c" 1
 159  001F              	IF (25>=3) AND (25<( 4 + __PBP__ * 2))
 159  001F              ;# 159 "C:\Users\YVTC\Desktop\單晶片微控制器(一)\0522\ADCWithCal.c" 1
 159  001F              	NOP
 159  001F              	ENDIF
 159  001F              ;# 159 "C:\Users\YVTC\Desktop\單晶片微控制器(一)\0522\ADCWithCal.c" 1
 159  001F              	IF (25>=4) AND (25<( 4 + __PBP__ * 2)) AND ( __PBP__ > 0 )
 159  001F              ;# 159 "C:\Users\YVTC\Desktop\單晶片微控制器(一)\0522\ADCWithCal.c" 1
 159  001F              	NOP
 159  001F              	ENDIF
 159  001F              ;# 159 "C:\Users\YVTC\Desktop\單晶片微控制器(一)\0522\ADCWithCal.c" 1
 159  001F              	IF (25>=5) AND (25<( 4 + __PBP__ * 2)) AND ( __PBP__ > 0 )
 159  001F              ;# 159 "C:\Users\YVTC\Desktop\單晶片微控制器(一)\0522\ADCWithCal.c" 1
 159  001F              	NOP
 159  001F              	ENDIF
 159  001F              ;# 159 "C:\Users\YVTC\Desktop\單晶片微控制器(一)\0522\ADCWithCal.c" 1
 159  001F              	IF (25>=6) AND (25<( 4 + __PBP__ * 2))  AND ( __PBP__ > 1 )
 159  001F              ;# 159 "C:\Users\YVTC\Desktop\單晶片微控制器(一)\0522\ADCWithCal.c" 1
 159  001F              	NOP
 159  001F              	ENDIF
 159  001F              ;# 159 "C:\Users\YVTC\Desktop\單晶片微控制器(一)\0522\ADCWithCal.c" 1
 159  001F              	IF (25>=7) AND (25<( 4 + __PBP__ * 2))  AND ( __PBP__ > 1 )
 159  001F              ;# 159 "C:\Users\YVTC\Desktop\單晶片微控制器(一)\0522\ADCWithCal.c" 1
 159  001F              	NOP
 159  001F              	ENDIF
 159  001F              ;# 159 "C:\Users\YVTC\Desktop\單晶片微控制器(一)\0522\ADCWithCal.c" 1
 159  001F              	IF (25>=8) AND (25<( 4 + __PBP__ * 2))  AND ( __PBP__ > 2 )
 159  001F              ;# 159 "C:\Users\YVTC\Desktop\單晶片微控制器(一)\0522\ADCWithCal.c" 1
"File: ADCWithCal.c  Assembler  Version HGASM0202      Page 8

 159  001F              	NOP
 159  001F              	ENDIF
 159  001F              ;# 159 "C:\Users\YVTC\Desktop\單晶片微控制器(一)\0522\ADCWithCal.c" 1
 159  001F              	IF (25==9)  AND ( __PBP__ > 2 )
 159  001F              ;# 159 "C:\Users\YVTC\Desktop\單晶片微控制器(一)\0522\ADCWithCal.c" 1
 159  001F              	NOP
 159  001F              	ENDIF
 159  001F              ;# 159 "C:\Users\YVTC\Desktop\單晶片微控制器(一)\0522\ADCWithCal.c" 1
 159  001F              	IF (25< ( 8 + __PBP__ * 2)) AND (25>( 3 + __PBP__ * 2))
 159  001F              ;# 159 "C:\Users\YVTC\Desktop\單晶片微控制器(一)\0522\ADCWithCal.c" 1
 159  001F              	fcall __DELAY3 + ( 7 + __PBP__ * 2) -25
 159  001F              	ENDIF
 159  001F              ;# 159 "C:\Users\YVTC\Desktop\單晶片微控制器(一)\0522\ADCWithCal.c" 1
 159  001F              	IF (25< ( 0404h + __PBP__ * 2)) AND (25>( 7 + __PBP__ * 2))
 159  001F              ;# 159 "C:\Users\YVTC\Desktop\單晶片微控制器(一)\0522\ADCWithCal.c" 1
 159  001F  0F04        	MOV A,(25-( 4 + __PBP__ * 2))/4
 159  0020              ;# 159 "C:\Users\YVTC\Desktop\單晶片微控制器(一)\0522\ADCWithCal.c" 1
 159  0020              	fcall __DELAYX3 + 3 -((25-( 4 + __PBP__ * 2)) MOD 4) 
 159  0027              	ENDIF
 159  0027              ;# 159 "C:\Users\YVTC\Desktop\單晶片微控制器(一)\0522\ADCWithCal.c" 1
 159  0027              	IF (25< ( 040bh + __PBP__ * 2)) AND (25> ( 0403h + __PBP__ * 2))
 159  0027              ;# 159 "C:\Users\YVTC\Desktop\單晶片微控制器(一)\0522\ADCWithCal.c" 1
 159  0027              	MOV A,0 
 159  0027              ;# 159 "C:\Users\YVTC\Desktop\單晶片微控制器(一)\0522\ADCWithCal.c" 1
 159  0027              	fcall __DELAYX6 + ( 040ah + __PBP__ * 2) -25
 159  0027              	ENDIF
 159  0027              ;# 159 "C:\Users\YVTC\Desktop\單晶片微控制器(一)\0522\ADCWithCal.c" 1
 159  0027              	IF (25 >= ( 040bh + __PBP__ * 2)) AND ((((25-( 9 + __PBP__ * 2))%0402h)/4+1)>256)
 159  0027              ;# 159 "C:\Users\YVTC\Desktop\單晶片微控制器(一)\0522\ADCWithCal.c" 1
 159  0027              	MOV A,(25-( 9 + __PBP__ * 2))/0402h
 159  0027              ;# 159 "C:\Users\YVTC\Desktop\單晶片微控制器(一)\0522\ADCWithCal.c" 1
 159  0027              	MOV _builtin_holtek_delay_2,A
 159  0027              ;# 159 "C:\Users\YVTC\Desktop\單晶片微控制器(一)\0522\ADCWithCal.c" 1
 159  0027              	MOV A,0
 159  0027              ;# 159 "C:\Users\YVTC\Desktop\單晶片微控制器(一)\0522\ADCWithCal.c" 1
 159  0027              	fcall __DELAYY5 +5- (((25-( 9 + __PBP__ * 2))%0402h)%6) 
 159  0027              	ENDIF
 159  0027              ;# 159 "C:\Users\YVTC\Desktop\單晶片微控制器(一)\0522\ADCWithCal.c" 1
 159  0027              	IF (25 >= ( 040bh + __PBP__ * 2)) AND ((((25-( 9 + __PBP__ * 2))%0402h)/4+1)<=256)
 159  0027              ;# 159 "C:\Users\YVTC\Desktop\單晶片微控制器(一)\0522\ADCWithCal.c" 1
 159  0027              	MOV A,(25-( 9 + __PBP__ * 2))/0402h
 159  0027              ;# 159 "C:\Users\YVTC\Desktop\單晶片微控制器(一)\0522\ADCWithCal.c" 1
 159  0027              	MOV _builtin_holtek_delay_2,A
 159  0027              ;# 159 "C:\Users\YVTC\Desktop\單晶片微控制器(一)\0522\ADCWithCal.c" 1
 159  0027              	MOV A,((25-( 9 + __PBP__ * 2))%0402h)/4+1
 159  0027              ;# 159 "C:\Users\YVTC\Desktop\單晶片微控制器(一)\0522\ADCWithCal.c" 1
 159  0027              	fcall __DELAYY3 +3-(((25-( 9 + __PBP__ * 2))%0402h)%4) 
 159  0027              	ENDIF
 159  0027  342E        	clr [46].0
 160  0028              #line 160 "C:\Users\YVTC\Desktop\單晶片微控制器(一)\0522\ADCWithCal.c"
 160  0028  340A        	clr c
 160  0029  1B80     E  	rrc rb
 160  002A  1480     E  	inc ra
 161  002B              #line 161 "C:\Users\YVTC\Desktop\單晶片微控制器(一)\0522\ADCWithCal.c"
 161  002B  0700     E  	mov a,ra
 161  002C  0A08        	sub a,8
 161  002D  390A        	snz z
 161  002E  2800     R  	jmp _L9
 161  002F  0003        	ret
 161  0030              _WriteByte endp
"File: ADCWithCal.c  Assembler  Version HGASM0202      Page 9

 161  0030              #line 161 "C:\Users\YVTC\Desktop\單晶片微控制器(一)\0522\ADCWithCal.c"
 161  0030              #pragma debug scope 1 1
 161  0030              public _e_DataRAM
 161  0030              #pragma debug scope 6 1
 119  0030              #line 119 "C:\Users\YVTC\Desktop\單晶片微控制器(一)\0522\ADCWithCal.c"
 119  0000              _e_DataRAM .section 'code'
 119  0000              _e_DataRAM proc
 119  0000              public _e_DataRAM_2
 119  0000  0007[           local _e_DataRAM_2 db 7 dup(?)	; 3,4
            00
            ]
 119  0007              #pragma debug pointer 42 8 6
 119  0007              #pragma debug pointer 42 8 6
 119  0007              #pragma debug variable 42 6 _e_DataRAM_2+0 "ptr"
 119  0007              #pragma debug variable 8 6 _e_DataRAM_2+2 "Length"
 119  0000  0700     R  	mov a,_e_DataRAM_2[0]
 119  0001  0080     R  	mov _e_DataRAM_2[3],a
 119  0002  0700     R  	mov a,_e_DataRAM_2[1]
 119  0003  0080     R  	mov _e_DataRAM_2[4],a
 119  0004  0700     R  	mov a,_e_DataRAM_2[2]
 119  0005  0300     R  	add a,_e_DataRAM_2[3]
 119  0006  0080     R  	mov _e_DataRAM_2[5],a
 119  0007  1F05        	clr acc
 119  0008  1300     R  	adc a,_e_DataRAM_2[4]
 119  0009  0080     R  	mov _e_DataRAM_2[6],a
 120  000A              #line 120 "C:\Users\YVTC\Desktop\單晶片微控制器(一)\0522\ADCWithCal.c"
 120  000A  2800     R  	jmp _L11
 120  000B              _L12:
 121  000B              #line 121 "C:\Users\YVTC\Desktop\單晶片微控制器(一)\0522\ADCWithCal.c"
 121  000B  0700     R  	mov a,_e_DataRAM_2[3]
 121  000C  0083        	mov mp,a
 121  000D  0700     R  	mov a,_e_DataRAM_2[4]
 121  000E  0084        	mov sbp,a
 121  000F              	fcall _Crom2Prom
 121  0016              	fcall _WriteByte
 121  001D              	fcall _CheckACK
 121  0024  1480     R  	inc _e_DataRAM_2[3]
 121  0025  3D0A        	sz z
 121  0026  1480     R  	inc _e_DataRAM_2[4]
 121  0027              _L11:
 120  0027              #line 120 "C:\Users\YVTC\Desktop\單晶片微控制器(一)\0522\ADCWithCal.c"
 120  0027  0700     R  	mov a,_e_DataRAM_2[3]
 120  0028  0200     R  	sub a,_e_DataRAM_2[5]
 120  0029  0700     R  	mov a,_e_DataRAM_2[4]
 120  002A  1200     R  	sbc a,_e_DataRAM_2[6]
 120  002B  3B0A        	snz cz
 120  002C  2800     R  	jmp _L12
 120  002D  0003        	ret
 120  002E              _e_DataRAM endp
 120  002E              #line 120 "C:\Users\YVTC\Desktop\單晶片微控制器(一)\0522\ADCWithCal.c"
 120  002E              #pragma debug scope 1 1
 120  002E              public _ReadByte
 120  002E              #pragma debug scope 7 1
 164  002E              #line 164 "C:\Users\YVTC\Desktop\單晶片微控制器(一)\0522\ADCWithCal.c"
 164  0000              _ReadByte .section 'code'
 164  0000              _ReadByte proc
 165  0000              #line 165 "C:\Users\YVTC\Desktop\單晶片微控制器(一)\0522\ADCWithCal.c"
 165  0000  30AF        	set [47].1
 165  0001  1F00     E  	clr rb
 164  0002              #line 164 "C:\Users\YVTC\Desktop\單晶片微控制器(一)\0522\ADCWithCal.c"
"File: ADCWithCal.c  Assembler  Version HGASM0202      Page 10

 164  0002  0F80        	mov a,128
 164  0003  0080     E  	mov rc,a
 164  0004  1F00     E  	clr ra
 164  0005              _L16:
 167  0005              #line 167 "C:\Users\YVTC\Desktop\單晶片微控制器(一)\0522\ADCWithCal.c"
 167  0005  302E        	set [46].0
 167  0006              ;# 167 "C:\Users\YVTC\Desktop\單晶片微控制器(一)\0522\ADCWithCal.c" 1
 167  0006              	IF 25>263690
 167  0006              ;# 167 "C:\Users\YVTC\Desktop\單晶片微控制器(一)\0522\ADCWithCal.c" 1
 167  0006              	ERRMESSAGE 'the value 25of the argument exceeds the maxinum 263690'
 167  0006              	ENDIF
 167  0006              ;# 167 "C:\Users\YVTC\Desktop\單晶片微控制器(一)\0522\ADCWithCal.c" 1
 167  0006              	IF 25<0
 167  0006              ;# 167 "C:\Users\YVTC\Desktop\單晶片微控制器(一)\0522\ADCWithCal.c" 1
 167  0006              	ERRMESSAGE 'the value 25 of the argument exceeds the mininum 0'
 167  0006              	ENDIF
 167  0006              ;# 167 "C:\Users\YVTC\Desktop\單晶片微控制器(一)\0522\ADCWithCal.c" 1
 167  0006              	IF 25==0
 167  0006              ;# 167 "C:\Users\YVTC\Desktop\單晶片微控制器(一)\0522\ADCWithCal.c" 1
 167  0006              	JMP $
 167  0006              	ENDIF
 167  0006              ;# 167 "C:\Users\YVTC\Desktop\單晶片微控制器(一)\0522\ADCWithCal.c" 1
 167  0006              	IF (25>=1) AND (25<( 4 + __PBP__ * 2))
 167  0006              ;# 167 "C:\Users\YVTC\Desktop\單晶片微控制器(一)\0522\ADCWithCal.c" 1
 167  0006              	NOP
 167  0006              	ENDIF
 167  0006              ;# 167 "C:\Users\YVTC\Desktop\單晶片微控制器(一)\0522\ADCWithCal.c" 1
 167  0006              	IF (25>=2) AND (25<( 4 + __PBP__ * 2))
 167  0006              ;# 167 "C:\Users\YVTC\Desktop\單晶片微控制器(一)\0522\ADCWithCal.c" 1
 167  0006              	NOP
 167  0006              	ENDIF
 167  0006              ;# 167 "C:\Users\YVTC\Desktop\單晶片微控制器(一)\0522\ADCWithCal.c" 1
 167  0006              	IF (25>=3) AND (25<( 4 + __PBP__ * 2))
 167  0006              ;# 167 "C:\Users\YVTC\Desktop\單晶片微控制器(一)\0522\ADCWithCal.c" 1
 167  0006              	NOP
 167  0006              	ENDIF
 167  0006              ;# 167 "C:\Users\YVTC\Desktop\單晶片微控制器(一)\0522\ADCWithCal.c" 1
 167  0006              	IF (25>=4) AND (25<( 4 + __PBP__ * 2)) AND ( __PBP__ > 0 )
 167  0006              ;# 167 "C:\Users\YVTC\Desktop\單晶片微控制器(一)\0522\ADCWithCal.c" 1
 167  0006              	NOP
 167  0006              	ENDIF
 167  0006              ;# 167 "C:\Users\YVTC\Desktop\單晶片微控制器(一)\0522\ADCWithCal.c" 1
 167  0006              	IF (25>=5) AND (25<( 4 + __PBP__ * 2)) AND ( __PBP__ > 0 )
 167  0006              ;# 167 "C:\Users\YVTC\Desktop\單晶片微控制器(一)\0522\ADCWithCal.c" 1
 167  0006              	NOP
 167  0006              	ENDIF
 167  0006              ;# 167 "C:\Users\YVTC\Desktop\單晶片微控制器(一)\0522\ADCWithCal.c" 1
 167  0006              	IF (25>=6) AND (25<( 4 + __PBP__ * 2))  AND ( __PBP__ > 1 )
 167  0006              ;# 167 "C:\Users\YVTC\Desktop\單晶片微控制器(一)\0522\ADCWithCal.c" 1
 167  0006              	NOP
 167  0006              	ENDIF
 167  0006              ;# 167 "C:\Users\YVTC\Desktop\單晶片微控制器(一)\0522\ADCWithCal.c" 1
 167  0006              	IF (25>=7) AND (25<( 4 + __PBP__ * 2))  AND ( __PBP__ > 1 )
 167  0006              ;# 167 "C:\Users\YVTC\Desktop\單晶片微控制器(一)\0522\ADCWithCal.c" 1
 167  0006              	NOP
 167  0006              	ENDIF
 167  0006              ;# 167 "C:\Users\YVTC\Desktop\單晶片微控制器(一)\0522\ADCWithCal.c" 1
 167  0006              	IF (25>=8) AND (25<( 4 + __PBP__ * 2))  AND ( __PBP__ > 2 )
 167  0006              ;# 167 "C:\Users\YVTC\Desktop\單晶片微控制器(一)\0522\ADCWithCal.c" 1
 167  0006              	NOP
"File: ADCWithCal.c  Assembler  Version HGASM0202      Page 11

 167  0006              	ENDIF
 167  0006              ;# 167 "C:\Users\YVTC\Desktop\單晶片微控制器(一)\0522\ADCWithCal.c" 1
 167  0006              	IF (25==9)  AND ( __PBP__ > 2 )
 167  0006              ;# 167 "C:\Users\YVTC\Desktop\單晶片微控制器(一)\0522\ADCWithCal.c" 1
 167  0006              	NOP
 167  0006              	ENDIF
 167  0006              ;# 167 "C:\Users\YVTC\Desktop\單晶片微控制器(一)\0522\ADCWithCal.c" 1
 167  0006              	IF (25< ( 8 + __PBP__ * 2)) AND (25>( 3 + __PBP__ * 2))
 167  0006              ;# 167 "C:\Users\YVTC\Desktop\單晶片微控制器(一)\0522\ADCWithCal.c" 1
 167  0006              	fcall __DELAY3 + ( 7 + __PBP__ * 2) -25
 167  0006              	ENDIF
 167  0006              ;# 167 "C:\Users\YVTC\Desktop\單晶片微控制器(一)\0522\ADCWithCal.c" 1
 167  0006              	IF (25< ( 0404h + __PBP__ * 2)) AND (25>( 7 + __PBP__ * 2))
 167  0006              ;# 167 "C:\Users\YVTC\Desktop\單晶片微控制器(一)\0522\ADCWithCal.c" 1
 167  0006  0F04        	MOV A,(25-( 4 + __PBP__ * 2))/4
 167  0007              ;# 167 "C:\Users\YVTC\Desktop\單晶片微控制器(一)\0522\ADCWithCal.c" 1
 167  0007              	fcall __DELAYX3 + 3 -((25-( 4 + __PBP__ * 2)) MOD 4) 
 167  000E              	ENDIF
 167  000E              ;# 167 "C:\Users\YVTC\Desktop\單晶片微控制器(一)\0522\ADCWithCal.c" 1
 167  000E              	IF (25< ( 040bh + __PBP__ * 2)) AND (25> ( 0403h + __PBP__ * 2))
 167  000E              ;# 167 "C:\Users\YVTC\Desktop\單晶片微控制器(一)\0522\ADCWithCal.c" 1
 167  000E              	MOV A,0 
 167  000E              ;# 167 "C:\Users\YVTC\Desktop\單晶片微控制器(一)\0522\ADCWithCal.c" 1
 167  000E              	fcall __DELAYX6 + ( 040ah + __PBP__ * 2) -25
 167  000E              	ENDIF
 167  000E              ;# 167 "C:\Users\YVTC\Desktop\單晶片微控制器(一)\0522\ADCWithCal.c" 1
 167  000E              	IF (25 >= ( 040bh + __PBP__ * 2)) AND ((((25-( 9 + __PBP__ * 2))%0402h)/4+1)>256)
 167  000E              ;# 167 "C:\Users\YVTC\Desktop\單晶片微控制器(一)\0522\ADCWithCal.c" 1
 167  000E              	MOV A,(25-( 9 + __PBP__ * 2))/0402h
 167  000E              ;# 167 "C:\Users\YVTC\Desktop\單晶片微控制器(一)\0522\ADCWithCal.c" 1
 167  000E              	MOV _builtin_holtek_delay_2,A
 167  000E              ;# 167 "C:\Users\YVTC\Desktop\單晶片微控制器(一)\0522\ADCWithCal.c" 1
 167  000E              	MOV A,0
 167  000E              ;# 167 "C:\Users\YVTC\Desktop\單晶片微控制器(一)\0522\ADCWithCal.c" 1
 167  000E              	fcall __DELAYY5 +5- (((25-( 9 + __PBP__ * 2))%0402h)%6) 
 167  000E              	ENDIF
 167  000E              ;# 167 "C:\Users\YVTC\Desktop\單晶片微控制器(一)\0522\ADCWithCal.c" 1
 167  000E              	IF (25 >= ( 040bh + __PBP__ * 2)) AND ((((25-( 9 + __PBP__ * 2))%0402h)/4+1)<=256)
 167  000E              ;# 167 "C:\Users\YVTC\Desktop\單晶片微控制器(一)\0522\ADCWithCal.c" 1
 167  000E              	MOV A,(25-( 9 + __PBP__ * 2))/0402h
 167  000E              ;# 167 "C:\Users\YVTC\Desktop\單晶片微控制器(一)\0522\ADCWithCal.c" 1
 167  000E              	MOV _builtin_holtek_delay_2,A
 167  000E              ;# 167 "C:\Users\YVTC\Desktop\單晶片微控制器(一)\0522\ADCWithCal.c" 1
 167  000E              	MOV A,((25-( 9 + __PBP__ * 2))%0402h)/4+1
 167  000E              ;# 167 "C:\Users\YVTC\Desktop\單晶片微控制器(一)\0522\ADCWithCal.c" 1
 167  000E              	fcall __DELAYY3 +3-(((25-( 9 + __PBP__ * 2))%0402h)%4) 
 167  000E              	ENDIF
 168  000E              #line 168 "C:\Users\YVTC\Desktop\單晶片微控制器(一)\0522\ADCWithCal.c"
 168  000E  38AE        	snz [46].1
 168  000F  2800     R  	jmp _L14
 168  0010  0700     E  	mov a,rc
 168  0011  0580     E  	orm a,ra
 168  0012              _L14:
 169  0012              #line 169 "C:\Users\YVTC\Desktop\單晶片微控制器(一)\0522\ADCWithCal.c"
 169  0012  342E        	clr [46].0
 170  0013              #line 170 "C:\Users\YVTC\Desktop\單晶片微控制器(一)\0522\ADCWithCal.c"
 170  0013  340A        	clr c
 170  0014  1B80     E  	rrc rc
 170  0015  1480     E  	inc rb
 171  0016              #line 171 "C:\Users\YVTC\Desktop\單晶片微控制器(一)\0522\ADCWithCal.c"
"File: ADCWithCal.c  Assembler  Version HGASM0202      Page 12

 171  0016  0700     E  	mov a,rb
 171  0017  0A08        	sub a,8
 171  0018  390A        	snz z
 171  0019  2800     R  	jmp _L16
 173  001A              #line 173 "C:\Users\YVTC\Desktop\單晶片微控制器(一)\0522\ADCWithCal.c"
 173  001A  0700     E  	mov a,ra
 173  001B  0003        	ret
 173  001C              _ReadByte endp
 173  001C              #line 173 "C:\Users\YVTC\Desktop\單晶片微控制器(一)\0522\ADCWithCal.c"
 173  001C              #pragma debug scope 1 1
 173  001C              public _e_Read
 173  001C              #pragma debug scope 8 1
 125  001C              #line 125 "C:\Users\YVTC\Desktop\單晶片微控制器(一)\0522\ADCWithCal.c"
 125  0000              _e_Read .section 'code'
 125  0000              _e_Read proc
 125  0000  00              local _e_Read_2 db 1 dup(?)	; 0,1
 125  0001              #pragma debug variable 8 8 _e_Read_2+0 "retval"
 126  0001              #line 126 "C:\Users\YVTC\Desktop\單晶片微控制器(一)\0522\ADCWithCal.c"
 126  0000              	fcall _I2C_START
 127  0007              #line 127 "C:\Users\YVTC\Desktop\單晶片微控制器(一)\0522\ADCWithCal.c"
 127  0007  0F5B        	mov a,91
 127  0008              	fcall _WriteByte
 127  000F              	fcall _CheckACK
 128  0016              #line 128 "C:\Users\YVTC\Desktop\單晶片微控制器(一)\0522\ADCWithCal.c"
 128  0016              	fcall _ReadByte
 128  001D  0080     R  	mov _e_Read_2[0],a
 129  001E              #line 129 "C:\Users\YVTC\Desktop\單晶片微控制器(一)\0522\ADCWithCal.c"
 129  001E  30AE        	set [46].1
 129  001F  34AF        	clr [47].1
 130  0020              #line 130 "C:\Users\YVTC\Desktop\單晶片微控制器(一)\0522\ADCWithCal.c"
 130  0020  302E        	set [46].0
 130  0021              ;# 130 "C:\Users\YVTC\Desktop\單晶片微控制器(一)\0522\ADCWithCal.c" 1
 130  0021              	IF 25>263690
 130  0021              ;# 130 "C:\Users\YVTC\Desktop\單晶片微控制器(一)\0522\ADCWithCal.c" 1
 130  0021              	ERRMESSAGE 'the value 25of the argument exceeds the maxinum 263690'
 130  0021              	ENDIF
 130  0021              ;# 130 "C:\Users\YVTC\Desktop\單晶片微控制器(一)\0522\ADCWithCal.c" 1
 130  0021              	IF 25<0
 130  0021              ;# 130 "C:\Users\YVTC\Desktop\單晶片微控制器(一)\0522\ADCWithCal.c" 1
 130  0021              	ERRMESSAGE 'the value 25 of the argument exceeds the mininum 0'
 130  0021              	ENDIF
 130  0021              ;# 130 "C:\Users\YVTC\Desktop\單晶片微控制器(一)\0522\ADCWithCal.c" 1
 130  0021              	IF 25==0
 130  0021              ;# 130 "C:\Users\YVTC\Desktop\單晶片微控制器(一)\0522\ADCWithCal.c" 1
 130  0021              	JMP $
 130  0021              	ENDIF
 130  0021              ;# 130 "C:\Users\YVTC\Desktop\單晶片微控制器(一)\0522\ADCWithCal.c" 1
 130  0021              	IF (25>=1) AND (25<( 4 + __PBP__ * 2))
 130  0021              ;# 130 "C:\Users\YVTC\Desktop\單晶片微控制器(一)\0522\ADCWithCal.c" 1
 130  0021              	NOP
 130  0021              	ENDIF
 130  0021              ;# 130 "C:\Users\YVTC\Desktop\單晶片微控制器(一)\0522\ADCWithCal.c" 1
 130  0021              	IF (25>=2) AND (25<( 4 + __PBP__ * 2))
 130  0021              ;# 130 "C:\Users\YVTC\Desktop\單晶片微控制器(一)\0522\ADCWithCal.c" 1
 130  0021              	NOP
 130  0021              	ENDIF
 130  0021              ;# 130 "C:\Users\YVTC\Desktop\單晶片微控制器(一)\0522\ADCWithCal.c" 1
 130  0021              	IF (25>=3) AND (25<( 4 + __PBP__ * 2))
 130  0021              ;# 130 "C:\Users\YVTC\Desktop\單晶片微控制器(一)\0522\ADCWithCal.c" 1
 130  0021              	NOP
"File: ADCWithCal.c  Assembler  Version HGASM0202      Page 13

 130  0021              	ENDIF
 130  0021              ;# 130 "C:\Users\YVTC\Desktop\單晶片微控制器(一)\0522\ADCWithCal.c" 1
 130  0021              	IF (25>=4) AND (25<( 4 + __PBP__ * 2)) AND ( __PBP__ > 0 )
 130  0021              ;# 130 "C:\Users\YVTC\Desktop\單晶片微控制器(一)\0522\ADCWithCal.c" 1
 130  0021              	NOP
 130  0021              	ENDIF
 130  0021              ;# 130 "C:\Users\YVTC\Desktop\單晶片微控制器(一)\0522\ADCWithCal.c" 1
 130  0021              	IF (25>=5) AND (25<( 4 + __PBP__ * 2)) AND ( __PBP__ > 0 )
 130  0021              ;# 130 "C:\Users\YVTC\Desktop\單晶片微控制器(一)\0522\ADCWithCal.c" 1
 130  0021              	NOP
 130  0021              	ENDIF
 130  0021              ;# 130 "C:\Users\YVTC\Desktop\單晶片微控制器(一)\0522\ADCWithCal.c" 1
 130  0021              	IF (25>=6) AND (25<( 4 + __PBP__ * 2))  AND ( __PBP__ > 1 )
 130  0021              ;# 130 "C:\Users\YVTC\Desktop\單晶片微控制器(一)\0522\ADCWithCal.c" 1
 130  0021              	NOP
 130  0021              	ENDIF
 130  0021              ;# 130 "C:\Users\YVTC\Desktop\單晶片微控制器(一)\0522\ADCWithCal.c" 1
 130  0021              	IF (25>=7) AND (25<( 4 + __PBP__ * 2))  AND ( __PBP__ > 1 )
 130  0021              ;# 130 "C:\Users\YVTC\Desktop\單晶片微控制器(一)\0522\ADCWithCal.c" 1
 130  0021              	NOP
 130  0021              	ENDIF
 130  0021              ;# 130 "C:\Users\YVTC\Desktop\單晶片微控制器(一)\0522\ADCWithCal.c" 1
 130  0021              	IF (25>=8) AND (25<( 4 + __PBP__ * 2))  AND ( __PBP__ > 2 )
 130  0021              ;# 130 "C:\Users\YVTC\Desktop\單晶片微控制器(一)\0522\ADCWithCal.c" 1
 130  0021              	NOP
 130  0021              	ENDIF
 130  0021              ;# 130 "C:\Users\YVTC\Desktop\單晶片微控制器(一)\0522\ADCWithCal.c" 1
 130  0021              	IF (25==9)  AND ( __PBP__ > 2 )
 130  0021              ;# 130 "C:\Users\YVTC\Desktop\單晶片微控制器(一)\0522\ADCWithCal.c" 1
 130  0021              	NOP
 130  0021              	ENDIF
 130  0021              ;# 130 "C:\Users\YVTC\Desktop\單晶片微控制器(一)\0522\ADCWithCal.c" 1
 130  0021              	IF (25< ( 8 + __PBP__ * 2)) AND (25>( 3 + __PBP__ * 2))
 130  0021              ;# 130 "C:\Users\YVTC\Desktop\單晶片微控制器(一)\0522\ADCWithCal.c" 1
 130  0021              	fcall __DELAY3 + ( 7 + __PBP__ * 2) -25
 130  0021              	ENDIF
 130  0021              ;# 130 "C:\Users\YVTC\Desktop\單晶片微控制器(一)\0522\ADCWithCal.c" 1
 130  0021              	IF (25< ( 0404h + __PBP__ * 2)) AND (25>( 7 + __PBP__ * 2))
 130  0021              ;# 130 "C:\Users\YVTC\Desktop\單晶片微控制器(一)\0522\ADCWithCal.c" 1
 130  0021  0F04        	MOV A,(25-( 4 + __PBP__ * 2))/4
 130  0022              ;# 130 "C:\Users\YVTC\Desktop\單晶片微控制器(一)\0522\ADCWithCal.c" 1
 130  0022              	fcall __DELAYX3 + 3 -((25-( 4 + __PBP__ * 2)) MOD 4) 
 130  0029              	ENDIF
 130  0029              ;# 130 "C:\Users\YVTC\Desktop\單晶片微控制器(一)\0522\ADCWithCal.c" 1
 130  0029              	IF (25< ( 040bh + __PBP__ * 2)) AND (25> ( 0403h + __PBP__ * 2))
 130  0029              ;# 130 "C:\Users\YVTC\Desktop\單晶片微控制器(一)\0522\ADCWithCal.c" 1
 130  0029              	MOV A,0 
 130  0029              ;# 130 "C:\Users\YVTC\Desktop\單晶片微控制器(一)\0522\ADCWithCal.c" 1
 130  0029              	fcall __DELAYX6 + ( 040ah + __PBP__ * 2) -25
 130  0029              	ENDIF
 130  0029              ;# 130 "C:\Users\YVTC\Desktop\單晶片微控制器(一)\0522\ADCWithCal.c" 1
 130  0029              	IF (25 >= ( 040bh + __PBP__ * 2)) AND ((((25-( 9 + __PBP__ * 2))%0402h)/4+1)>256)
 130  0029              ;# 130 "C:\Users\YVTC\Desktop\單晶片微控制器(一)\0522\ADCWithCal.c" 1
 130  0029              	MOV A,(25-( 9 + __PBP__ * 2))/0402h
 130  0029              ;# 130 "C:\Users\YVTC\Desktop\單晶片微控制器(一)\0522\ADCWithCal.c" 1
 130  0029              	MOV _builtin_holtek_delay_2,A
 130  0029              ;# 130 "C:\Users\YVTC\Desktop\單晶片微控制器(一)\0522\ADCWithCal.c" 1
 130  0029              	MOV A,0
 130  0029              ;# 130 "C:\Users\YVTC\Desktop\單晶片微控制器(一)\0522\ADCWithCal.c" 1
 130  0029              	fcall __DELAYY5 +5- (((25-( 9 + __PBP__ * 2))%0402h)%6) 
"File: ADCWithCal.c  Assembler  Version HGASM0202      Page 14

 130  0029              	ENDIF
 130  0029              ;# 130 "C:\Users\YVTC\Desktop\單晶片微控制器(一)\0522\ADCWithCal.c" 1
 130  0029              	IF (25 >= ( 040bh + __PBP__ * 2)) AND ((((25-( 9 + __PBP__ * 2))%0402h)/4+1)<=256)
 130  0029              ;# 130 "C:\Users\YVTC\Desktop\單晶片微控制器(一)\0522\ADCWithCal.c" 1
 130  0029              	MOV A,(25-( 9 + __PBP__ * 2))/0402h
 130  0029              ;# 130 "C:\Users\YVTC\Desktop\單晶片微控制器(一)\0522\ADCWithCal.c" 1
 130  0029              	MOV _builtin_holtek_delay_2,A
 130  0029              ;# 130 "C:\Users\YVTC\Desktop\單晶片微控制器(一)\0522\ADCWithCal.c" 1
 130  0029              	MOV A,((25-( 9 + __PBP__ * 2))%0402h)/4+1
 130  0029              ;# 130 "C:\Users\YVTC\Desktop\單晶片微控制器(一)\0522\ADCWithCal.c" 1
 130  0029              	fcall __DELAYY3 +3-(((25-( 9 + __PBP__ * 2))%0402h)%4) 
 130  0029              	ENDIF
 130  0029  342E        	clr [46].0
 131  002A              #line 131 "C:\Users\YVTC\Desktop\單晶片微控制器(一)\0522\ADCWithCal.c"
 131  002A              	fcall _I2C_STOP
 133  0031              #line 133 "C:\Users\YVTC\Desktop\單晶片微控制器(一)\0522\ADCWithCal.c"
 133  0031  0700     R  	mov a,_e_Read_2[0]
 133  0032  0003        	ret
 133  0033              _e_Read endp
 133  0033              #line 133 "C:\Users\YVTC\Desktop\單晶片微控制器(一)\0522\ADCWithCal.c"
 133  0033              #pragma debug scope 1 1
 133  0033              public _e_Command
 133  0033              #pragma debug scope 9 1
 110  0033              #line 110 "C:\Users\YVTC\Desktop\單晶片微控制器(一)\0522\ADCWithCal.c"
 110  0000              _e_Command .section 'code'
 110  0000              _e_Command proc
 110  0000              public _e_Command_2
 110  0000  0006[           local _e_Command_2 db 6 dup(?)	; 2,4
            00
            ]
 110  0006              #pragma debug pointer 43 8 9
 110  0006              #pragma debug pointer 43 8 9
 110  0006              #pragma debug variable 43 9 _e_Command_2+0 "ptr"
 110  0000              _L23:
 111  0000              #line 111 "C:\Users\YVTC\Desktop\單晶片微控制器(一)\0522\ADCWithCal.c"
 111  0000              	fcall _e_Read
 111  0007  0080     E  	mov ra,a
 111  0008  0700     E  	mov a,ra
 111  0009  0A55        	sub a,85
 111  000A  3D0A        	sz z
 111  000B  2800     R  	jmp _L23
 112  000C              #line 112 "C:\Users\YVTC\Desktop\單晶片微控制器(一)\0522\ADCWithCal.c"
 112  000C              	fcall _I2C_START
 113  0013              #line 113 "C:\Users\YVTC\Desktop\單晶片微控制器(一)\0522\ADCWithCal.c"
 113  0013  0F5A        	mov a,90
 113  0014              	fcall _WriteByte
 113  001B              	fcall _CheckACK
 113  0022  0700     R  	mov a,_e_Command_2[0]
 113  0023  0080     R  	mov _e_Command_2[2],a
 113  0024  0700     R  	mov a,_e_Command_2[1]
 113  0025  0080     R  	mov _e_Command_2[3],a
 113  0026  0F08        	mov a,8
 113  0027  0300     R  	add a,_e_Command_2[2]
 113  0028  0080     R  	mov _e_Command_2[4],a
 113  0029  0F00        	mov a,0
 113  002A  1300     R  	adc a,_e_Command_2[3]
 113  002B  0080     R  	mov _e_Command_2[5],a
 113  002C              _L25:
 115  002C              #line 115 "C:\Users\YVTC\Desktop\單晶片微控制器(一)\0522\ADCWithCal.c"
 115  002C  0700     R  	mov a,_e_Command_2[2]
"File: ADCWithCal.c  Assembler  Version HGASM0202      Page 15

 115  002D  0083        	mov mp,a
 115  002E  0700     R  	mov a,_e_Command_2[3]
 115  002F  0084        	mov sbp,a
 115  0030              	fcall _Crom2Prom
 115  0037              	fcall _WriteByte
 115  003E              	fcall _CheckACK
 115  0045  1480     R  	inc _e_Command_2[2]
 115  0046  3D0A        	sz z
 115  0047  1480     R  	inc _e_Command_2[3]
 114  0048              #line 114 "C:\Users\YVTC\Desktop\單晶片微控制器(一)\0522\ADCWithCal.c"
 114  0048  0700     R  	mov a,_e_Command_2[2]
 114  0049  0200     R  	sub a,_e_Command_2[4]
 114  004A  0700     R  	mov a,_e_Command_2[3]
 114  004B  1200     R  	sbc a,_e_Command_2[5]
 114  004C  3B0A        	snz cz
 114  004D  2800     R  	jmp _L25
 114  004E  0003        	ret
 114  004F              _e_Command endp
 114  004F              #line 114 "C:\Users\YVTC\Desktop\單晶片微控制器(一)\0522\ADCWithCal.c"
 114  004F              #pragma debug scope 1 1
 114  004F              public _eDisplayClear
 114  004F              #pragma debug scope 10 1
  82  004F              #line 82 "C:\Users\YVTC\Desktop\單晶片微控制器(一)\0522\ADCWithCal.c"
  82  0000              _eDisplayClear .section 'code'
  82  0000              _eDisplayClear proc
  82  0000              public _eDisplayClear_2
  82  0000  000C[           local _eDisplayClear_2 db 12 dup(?)	; 3,9
            00
            ]
  82  0000  0080     R  	mov _eDisplayClear_2[11],a
  82  0001              #pragma debug variable 8 10 _eDisplayClear_2+11 "x"
  82  0001              #pragma debug variable 8 10 _eDisplayClear_2+0 "xSize"
  82  0001              #pragma debug variable 8 10 _eDisplayClear_2+1 "y"
  82  0001              #pragma debug variable 8 10 _eDisplayClear_2+2 "ySize"
  82  0001              #pragma debug array 44 8 8 10
  82  0001              #pragma debug array 44 8 8 10
  82  0001              #pragma debug variable 44 10 _eDisplayClear_2+3 "Buffer"
  82  0001  0F04        	mov a,4
  82  0002  0080     R  	mov _eDisplayClear_2[3],a
  82  0003  1F00     R  	clr _eDisplayClear_2[4]
  82  0004  0F04        	mov a,4
  82  0005  0080     R  	mov _eDisplayClear_2[5],a
  82  0006  1F00     R  	clr _eDisplayClear_2[6]
  82  0007  1F00     R  	clr _eDisplayClear_2[7]
  82  0008  1F00     R  	clr _eDisplayClear_2[8]
  82  0009  1F00     R  	clr _eDisplayClear_2[9]
  82  000A  1F00     R  	clr _eDisplayClear_2[10]
  83  000B              #line 83 "C:\Users\YVTC\Desktop\單晶片微控制器(一)\0522\ADCWithCal.c"
  83  000B  0F00     R  	mov a,low offset _eDisplayClear_2
  83  000C  0080     E  	mov ra,a
  83  000D  0F00     R  	mov a,high offset _eDisplayClear_2
  83  000E  0080     E  	mov rb,a
  83  000F  0F03        	mov a,3
  83  0010  0300     E  	add a,ra
  83  0011  0080     R  	mov _e_Command_2[0],a
  83  0012  0F00        	mov a,0
  83  0013  1300     E  	adc a,rb
  83  0014  0080     R  	mov _e_Command_2[1],a
  83  0015              	fcall _e_Command
  84  001C              #line 84 "C:\Users\YVTC\Desktop\單晶片微控制器(一)\0522\ADCWithCal.c"
"File: ADCWithCal.c  Assembler  Version HGASM0202      Page 16

  84  001C  0700     R  	mov a,_eDisplayClear_2[11]
  84  001D  0080     R  	mov _eDisplayClear_2[3],a
  84  001E  0700     R  	mov a,_eDisplayClear_2[0]
  84  001F  0080     R  	mov _eDisplayClear_2[4],a
  85  0020              #line 85 "C:\Users\YVTC\Desktop\單晶片微控制器(一)\0522\ADCWithCal.c"
  85  0020  0700     R  	mov a,_eDisplayClear_2[1]
  85  0021  0080     R  	mov _eDisplayClear_2[5],a
  85  0022  0700     R  	mov a,_eDisplayClear_2[2]
  85  0023  0080     R  	mov _eDisplayClear_2[6],a
  86  0024              #line 86 "C:\Users\YVTC\Desktop\單晶片微控制器(一)\0522\ADCWithCal.c"
  86  0024  0F04        	mov a,4
  86  0025  0080     R  	mov _e_DataRAM_2[2],a
  86  0026  0F00     R  	mov a,low offset _eDisplayClear_2
  86  0027  0080     E  	mov ra,a
  86  0028  0F00     R  	mov a,high offset _eDisplayClear_2
  86  0029  0080     E  	mov rb,a
  86  002A  0F03        	mov a,3
  86  002B  0300     E  	add a,ra
  86  002C  0080     R  	mov _e_DataRAM_2[0],a
  86  002D  0F00        	mov a,0
  86  002E  1300     E  	adc a,rb
  86  002F  0080     R  	mov _e_DataRAM_2[1],a
  86  0030              	fcall _e_DataRAM
  87  0037              #line 87 "C:\Users\YVTC\Desktop\單晶片微控制器(一)\0522\ADCWithCal.c"
  87  0037              	fcall _I2C_STOP
  87  003E  0003        	ret
  87  003F              _eDisplayClear endp
  87  003F              #line 87 "C:\Users\YVTC\Desktop\單晶片微控制器(一)\0522\ADCWithCal.c"
  87  003F              #pragma debug scope 1 1
  87  003F              public _eDisplayASC
  87  003F              #pragma debug scope 11 1
  90  003F              #line 90 "C:\Users\YVTC\Desktop\單晶片微控制器(一)\0522\ADCWithCal.c"
  90  0000              _eDisplayASC .section 'code'
  90  0000              _eDisplayASC proc
  90  0000              public _eDisplayASC_2
  90  0000  001D[           local _eDisplayASC_2 db 29 dup(?)	; 5,24
            00
            ]
  90  0000  0080     R  	mov _eDisplayASC_2[27],a
  90  0001              #pragma debug variable 8 11 _eDisplayASC_2+27 "x"
  90  0001              #pragma debug variable 8 11 _eDisplayASC_2+0 "y"
  90  0001              #pragma debug pointer 45 8 11
  90  0001              #pragma debug pointer 45 8 11
  90  0001              #pragma debug variable 45 11 _eDisplayASC_2+1 "ptr"
  90  0001              #pragma debug variable 10 11 _eDisplayASC_2+3 "color"
  90  0001              #pragma debug variable 8 11 _eDisplayASC_2+28 "i"
  90  0001              #pragma debug array 46 8 22 11
  90  0001              #pragma debug array 46 8 22 11
  90  0001              #pragma debug variable 46 11 _eDisplayASC_2+5 "Buffer"
  90  0001  0F06        	mov a,6
  90  0002  0080     R  	mov _eDisplayASC_2[28],a
  91  0003              #line 91 "C:\Users\YVTC\Desktop\單晶片微控制器(一)\0522\ADCWithCal.c"
  91  0003  0F00     R  	mov a,low offset _eDisplayASC_2
  91  0004  0080     E  	mov rb,a
  91  0005  0F00     R  	mov a,high offset _eDisplayASC_2
  91  0006  0080     E  	mov rc,a
  91  0007  0F05        	mov a,5
  91  0008  0380     E  	addm a,rb
  91  0009  0F00        	mov a,0
  91  000A  1380     E  	adcm a,rc
"File: ADCWithCal.c  Assembler  Version HGASM0202      Page 17

  91  000B              _L28:
  91  000B              #line 91 "C:\Users\YVTC\Desktop\單晶片微控制器(一)\0522\ADCWithCal.c"
  91  000B  0700     R  	mov a,_eDisplayASC_2[1]
  91  000C  0083        	mov mp,a
  91  000D  0700     R  	mov a,_eDisplayASC_2[2]
  91  000E  0084        	mov sbp,a
  91  000F              	fcall _Crom2Prom
  91  0016  0080     E  	mov ra,a
  91  0017  1E00     E  	snz ra
  91  0018  2800     R  	jmp _L30
  91  0019  1480     R  	inc _eDisplayASC_2[1]
  91  001A  3D0A        	sz z
  91  001B  1480     R  	inc _eDisplayASC_2[2]
  91  001C  0700     R  	mov a,_eDisplayASC_2[28]
  91  001D  0300     E  	add a,rb
  91  001E  0083        	mov mp,a
  91  001F  1F05        	clr acc
  91  0020  1300     E  	adc a,rc
  91  0021  0084        	mov sbp,a
  91  0022  0700     E  	mov a,ra
  91  0023  0082        	mov ir,a
  91  0024  1480     R  	inc _eDisplayASC_2[28]
  91  0025  2800     R  	jmp _L28
  91  0026              _L30:
  92  0026              #line 92 "C:\Users\YVTC\Desktop\單晶片微控制器(一)\0522\ADCWithCal.c"
  92  0026  0F01        	mov a,1
  92  0027  0080     R  	mov _eDisplayASC_2[5],a
  92  0028  1F00     R  	clr _eDisplayASC_2[6]
  92  0029  0700     R  	mov a,_eDisplayASC_2[28]
  92  002A  0080     R  	mov _eDisplayASC_2[7],a
  93  002B              #line 93 "C:\Users\YVTC\Desktop\單晶片微控制器(一)\0522\ADCWithCal.c"
  93  002B  0F00     R  	mov a,low offset _eDisplayASC_2
  93  002C  0080     E  	mov ra,a
  93  002D  0F00     R  	mov a,high offset _eDisplayASC_2
  93  002E  0080     E  	mov rb,a
  93  002F  0F05        	mov a,5
  93  0030  0300     E  	add a,ra
  93  0031  0080     R  	mov _e_Command_2[0],a
  93  0032  0F00        	mov a,0
  93  0033  1300     E  	adc a,rb
  93  0034  0080     R  	mov _e_Command_2[1],a
  93  0035              	fcall _e_Command
  94  003C              #line 94 "C:\Users\YVTC\Desktop\單晶片微控制器(一)\0522\ADCWithCal.c"
  94  003C  0700     R  	mov a,_eDisplayASC_2[27]
  94  003D  0080     R  	mov _eDisplayASC_2[5],a
  94  003E  0700     R  	mov a,_eDisplayASC_2[0]
  94  003F  0080     R  	mov _eDisplayASC_2[6],a
  95  0040              #line 95 "C:\Users\YVTC\Desktop\單晶片微控制器(一)\0522\ADCWithCal.c"
  95  0040  0700     R  	mov a,_eDisplayASC_2[4]
  95  0041  0080     R  	mov _eDisplayASC_2[7],a
  95  0042  0700     R  	mov a,_eDisplayASC_2[3]
  95  0043  0080     R  	mov _eDisplayASC_2[8],a
  96  0044              #line 96 "C:\Users\YVTC\Desktop\單晶片微控制器(一)\0522\ADCWithCal.c"
  96  0044  1F80     R  	set _eDisplayASC_2[9]
  96  0045  1F80     R  	set _eDisplayASC_2[10]
  97  0046              #line 97 "C:\Users\YVTC\Desktop\單晶片微控制器(一)\0522\ADCWithCal.c"
  97  0046  0700     R  	mov a,_eDisplayASC_2[28]
  97  0047  0080     R  	mov _e_DataRAM_2[2],a
  97  0048  0F00     R  	mov a,low offset _eDisplayASC_2
  97  0049  0080     E  	mov ra,a
"File: ADCWithCal.c  Assembler  Version HGASM0202      Page 18

  97  004A  0F00     R  	mov a,high offset _eDisplayASC_2
  97  004B  0080     E  	mov rb,a
  97  004C  0F05        	mov a,5
  97  004D  0300     E  	add a,ra
  97  004E  0080     R  	mov _e_DataRAM_2[0],a
  97  004F  0F00        	mov a,0
  97  0050  1300     E  	adc a,rb
  97  0051  0080     R  	mov _e_DataRAM_2[1],a
  97  0052              	fcall _e_DataRAM
  98  0059              #line 98 "C:\Users\YVTC\Desktop\單晶片微控制器(一)\0522\ADCWithCal.c"
  98  0059              	fcall _I2C_STOP
  98  0060  0003        	ret
  98  0061              _eDisplayASC endp
  98  0061              #line 98 "C:\Users\YVTC\Desktop\單晶片微控制器(一)\0522\ADCWithCal.c"
  98  0061              #pragma debug scope 1 1
  98  0000              @crom	.section 'crom'
  98  0000              _LC0:
  98  0000              	db 020h,076h,06fh,06ch,074h,00h
  98  0003              public _VoltDisplay
  98  0003              #pragma debug scope 12 1
  63  0003              #line 63 "C:\Users\YVTC\Desktop\單晶片微控制器(一)\0522\ADCWithCal.c"
  63  0000              _VoltDisplay .section 'code'
  63  0000              _VoltDisplay proc
  63  0000              public _VoltDisplay_2
  63  0000  0013[           local _VoltDisplay_2 db 19 dup(?)	; 6,13
            00
            ]
  63  0000  0080     R  	mov _VoltDisplay_2[16],a
  63  0001              #pragma debug variable 8 12 _VoltDisplay_2+16 "x"
  63  0001              #pragma debug variable 8 12 _VoltDisplay_2+0 "y"
  63  0001              #pragma debug variable 10 12 _VoltDisplay_2+1 "ADR"
  63  0001              #pragma debug variable 10 12 _VoltDisplay_2+3 "color"
  63  0001              #pragma debug variable 8 12 _VoltDisplay_2+5 "fg"
  63  0001              #pragma debug array 47 8 10 12
  63  0001              #pragma debug array 47 8 10 12
  63  0001              #pragma debug variable 47 12 _VoltDisplay_2+6 "temp"
  65  0001              #line 65 "C:\Users\YVTC\Desktop\單晶片微控制器(一)\0522\ADCWithCal.c"
  65  0001  0700     R  	mov a,_VoltDisplay_2[1]
  65  0002  0080     E  	mov rb,a
  65  0003  0700     R  	mov a,_VoltDisplay_2[2]
  65  0004  0080     E  	mov rc,a
  65  0005  1F00     E  	clr _builtin_holtek_udivmodhi4_2[6]
  65  0006  0700     E  	mov a,rb  
  65  0007  0080     E  	mov _builtin_holtek_udivmodhi4_2[0],a  
  65  0008  0700     E  	mov a,rc  
  65  0009  0080     E  	mov _builtin_holtek_udivmodhi4_2[1],a
  65  000A  0FE8        	mov a,232  
  65  000B  0080     E  	mov _builtin_holtek_udivmodhi4_2[2],a  
  65  000C  0F03        	mov a,3  
  65  000D  0080     E  	mov _builtin_holtek_udivmodhi4_2[3],a
  65  000E              	fcall _builtin_holtek_udivmodhi4
  65  0015  0700     E  	mov a,_builtin_holtek_udivmodhi4_2[0]  
  65  0016  0080     E  	mov rd,a  
  65  0017  0700     E  	mov a,_builtin_holtek_udivmodhi4_2[1]  
  65  0018  0080     E  	mov re,a
  65  0019  0700     E  	mov a,rd
  65  001A  0B30        	add a,48
  65  001B  0080     R  	mov _VoltDisplay_2[6],a
  65  001C  1F00     E  	clr _builtin_holtek_udivmodhi4_2[6]
  65  001D  0700     E  	mov a,rb  
"File: ADCWithCal.c  Assembler  Version HGASM0202      Page 19

  65  001E  0080     E  	mov _builtin_holtek_udivmodhi4_2[0],a  
  65  001F  0700     E  	mov a,rc  
  65  0020  0080     E  	mov _builtin_holtek_udivmodhi4_2[1],a
  65  0021  0FE8        	mov a,232  
  65  0022  0080     E  	mov _builtin_holtek_udivmodhi4_2[2],a  
  65  0023  0F03        	mov a,3  
  65  0024  0080     E  	mov _builtin_holtek_udivmodhi4_2[3],a
  65  0025              	fcall _builtin_holtek_udivmodhi4
  65  002C  0700     E  	mov a,_builtin_holtek_udivmodhi4_2[4]  
  65  002D  0080     R  	mov _VoltDisplay_2[17],a  
  65  002E  0700     E  	mov a,_builtin_holtek_udivmodhi4_2[5]  
  65  002F  0080     R  	mov _VoltDisplay_2[18],a
  66  0030              #line 66 "C:\Users\YVTC\Desktop\單晶片微控制器(一)\0522\ADCWithCal.c"
  66  0030  1E00     R  	snz _VoltDisplay_2[5]
  66  0031  2800     R  	jmp _L33
  67  0032              #line 67 "C:\Users\YVTC\Desktop\單晶片微控制器(一)\0522\ADCWithCal.c"
  67  0032  0F2E        	mov a,46
  67  0033  0080     R  	mov _VoltDisplay_2[7],a
  68  0034              #line 68 "C:\Users\YVTC\Desktop\單晶片微控制器(一)\0522\ADCWithCal.c"
  68  0034  0700     R  	mov a,_VoltDisplay_2[16]
  68  0035  0B28        	add a,40
  68  0036  0080     E  	mov ra,a
  68  0037  0700     R  	mov a,_VoltDisplay_2[3]
  68  0038  0080     R  	mov _eDisplayASC_2[3],a
  68  0039  0700     R  	mov a,_VoltDisplay_2[4]
  68  003A  0080     R  	mov _eDisplayASC_2[4],a
  68  003B  0F00     R  	mov a,low offset _LC0
  68  003C  0080     R  	mov _eDisplayASC_2[1],a
  68  003D  0F00     R  	mov a,high offset _LC0
  68  003E  0080     R  	mov _eDisplayASC_2[2],a
  68  003F  0700     R  	mov a,_VoltDisplay_2[0]
  68  0040  0080     R  	mov _eDisplayASC_2[0],a
  68  0041  0700     E  	mov a,ra
  68  0042              	fcall _eDisplayASC
  67  0049              #line 67 "C:\Users\YVTC\Desktop\單晶片微控制器(一)\0522\ADCWithCal.c"
  67  0049  0F00     R  	mov a,low offset _VoltDisplay_2
  67  004A  0080     E  	mov rb,a
  67  004B  0F00     R  	mov a,high offset _VoltDisplay_2
  67  004C  0080     E  	mov rc,a
  67  004D  0F08        	mov a,8
  67  004E  0380     E  	addm a,rb
  67  004F  0F00        	mov a,0
  67  0050  1380     E  	adcm a,rc
  67  0051  2800     R  	jmp _L32
  67  0052              _L33:
  65  0052              #line 65 "C:\Users\YVTC\Desktop\單晶片微控制器(一)\0522\ADCWithCal.c"
  65  0052  0F00     R  	mov a,low offset _VoltDisplay_2
  65  0053  0080     E  	mov rb,a
  65  0054  0F00     R  	mov a,high offset _VoltDisplay_2
  65  0055  0080     E  	mov rc,a
  65  0056  0F07        	mov a,7
  65  0057  0380     E  	addm a,rb
  65  0058  0F00        	mov a,0
  65  0059  1380     E  	adcm a,rc
  65  005A              _L32:
  70  005A              #line 70 "C:\Users\YVTC\Desktop\單晶片微控制器(一)\0522\ADCWithCal.c"
  70  005A  1F00     E  	clr _builtin_holtek_udivmodhi4_2[6]
  70  005B  0700     R  	mov a,_VoltDisplay_2[17]  
  70  005C  0080     E  	mov _builtin_holtek_udivmodhi4_2[0],a  
  70  005D  0700     R  	mov a,_VoltDisplay_2[18]  
"File: ADCWithCal.c  Assembler  Version HGASM0202      Page 20

  70  005E  0080     E  	mov _builtin_holtek_udivmodhi4_2[1],a
  70  005F  0F64        	mov a,100  
  70  0060  0080     E  	mov _builtin_holtek_udivmodhi4_2[2],a  
  70  0061  1F00     E  	clr _builtin_holtek_udivmodhi4_2[3]
  70  0062              	fcall _builtin_holtek_udivmodhi4
  70  0069  0700     E  	mov a,_builtin_holtek_udivmodhi4_2[0]  
  70  006A  0080     E  	mov rd,a  
  70  006B  0700     E  	mov a,_builtin_holtek_udivmodhi4_2[1]  
  70  006C  0080     E  	mov re,a
  70  006D  0F30        	mov a,48
  70  006E  0380     E  	addm a,rd
  70  006F  0700     E  	mov a,rb
  70  0070  0083        	mov mp,a
  70  0071  0700     E  	mov a,rc
  70  0072  0084        	mov sbp,a
  70  0073  0700     E  	mov a,rd
  70  0074  0082        	mov ir,a
  70  0075  1F00     E  	clr _builtin_holtek_udivmodhi4_2[6]
  70  0076  0700     R  	mov a,_VoltDisplay_2[17]  
  70  0077  0080     E  	mov _builtin_holtek_udivmodhi4_2[0],a  
  70  0078  0700     R  	mov a,_VoltDisplay_2[18]  
  70  0079  0080     E  	mov _builtin_holtek_udivmodhi4_2[1],a
  70  007A  0F64        	mov a,100  
  70  007B  0080     E  	mov _builtin_holtek_udivmodhi4_2[2],a  
  70  007C  1F00     E  	clr _builtin_holtek_udivmodhi4_2[3]
  70  007D              	fcall _builtin_holtek_udivmodhi4
  70  0084  0700     E  	mov a,_builtin_holtek_udivmodhi4_2[4]  
  70  0085  0080     E  	mov rd,a  
  70  0086  0700     E  	mov a,_builtin_holtek_udivmodhi4_2[5]  
  70  0087  0080     E  	mov re,a
  71  0088              #line 71 "C:\Users\YVTC\Desktop\單晶片微控制器(一)\0522\ADCWithCal.c"
  71  0088  1F00     E  	clr _builtin_holtek_udivmodhi4_2[6]
  71  0089  0700     E  	mov a,rd  
  71  008A  0080     E  	mov _builtin_holtek_udivmodhi4_2[0],a  
  71  008B  0700     E  	mov a,re  
  71  008C  0080     E  	mov _builtin_holtek_udivmodhi4_2[1],a
  71  008D  0F0A        	mov a,10  
  71  008E  0080     E  	mov _builtin_holtek_udivmodhi4_2[2],a  
  71  008F  1F00     E  	clr _builtin_holtek_udivmodhi4_2[3]
  71  0090              	fcall _builtin_holtek_udivmodhi4
  71  0097  0700     E  	mov a,_builtin_holtek_udivmodhi4_2[0]  
  71  0098  0080     E  	mov rf,a  
  71  0099  0700     E  	mov a,_builtin_holtek_udivmodhi4_2[1]  
  71  009A  0080     E  	mov rg,a
  71  009B  0F30        	mov a,48
  71  009C  0380     E  	addm a,rf
  71  009D  0F01        	mov a,1
  71  009E  0300     E  	add a,rb
  71  009F  0083        	mov mp,a
  71  00A0  0F00        	mov a,0
  71  00A1  1300     E  	adc a,rc
  71  00A2  0084        	mov sbp,a
  71  00A3  0700     E  	mov a,rf
  71  00A4  0082        	mov ir,a
  71  00A5  1F00     E  	clr _builtin_holtek_udivmodhi4_2[6]
  71  00A6  0700     E  	mov a,rd  
  71  00A7  0080     E  	mov _builtin_holtek_udivmodhi4_2[0],a  
  71  00A8  0700     E  	mov a,re  
  71  00A9  0080     E  	mov _builtin_holtek_udivmodhi4_2[1],a
  71  00AA  0F0A        	mov a,10  
"File: ADCWithCal.c  Assembler  Version HGASM0202      Page 21

  71  00AB  0080     E  	mov _builtin_holtek_udivmodhi4_2[2],a  
  71  00AC  1F00     E  	clr _builtin_holtek_udivmodhi4_2[3]
  71  00AD              	fcall _builtin_holtek_udivmodhi4
  71  00B4  0700     E  	mov a,_builtin_holtek_udivmodhi4_2[4]  
  71  00B5  0080     E  	mov rd,a  
  71  00B6  0700     E  	mov a,_builtin_holtek_udivmodhi4_2[5]  
  71  00B7  0080     E  	mov re,a
  71  00B8  0F30        	mov a,48
  71  00B9  0380     E  	addm a,rd
  71  00BA  0F02        	mov a,2
  71  00BB  0300     E  	add a,rb
  71  00BC  0083        	mov mp,a
  71  00BD  0F00        	mov a,0
  71  00BE  1300     E  	adc a,rc
  71  00BF  0084        	mov sbp,a
  71  00C0  0700     E  	mov a,rd
  71  00C1  0082        	mov ir,a
  72  00C2              #line 72 "C:\Users\YVTC\Desktop\單晶片微控制器(一)\0522\ADCWithCal.c"
  72  00C2  0F03        	mov a,3
  72  00C3  0300     E  	add a,rb
  72  00C4  0083        	mov mp,a
  72  00C5  0F00        	mov a,0
  72  00C6  1300     E  	adc a,rc
  72  00C7  0084        	mov sbp,a
  72  00C8  0F00        	mov a,0
  72  00C9  0082        	mov ir,a
  73  00CA              #line 73 "C:\Users\YVTC\Desktop\單晶片微控制器(一)\0522\ADCWithCal.c"
  73  00CA  0700     R  	mov a,_VoltDisplay_2[16]
  73  00CB  0080     E  	mov ra,a
  73  00CC  0700     R  	mov a,_VoltDisplay_2[3]
  73  00CD  0080     R  	mov _eDisplayASC_2[3],a
  73  00CE  0700     R  	mov a,_VoltDisplay_2[4]
  73  00CF  0080     R  	mov _eDisplayASC_2[4],a
  73  00D0  0F00     R  	mov a,low offset _VoltDisplay_2
  73  00D1  0080     E  	mov rb,a
  73  00D2  0F00     R  	mov a,high offset _VoltDisplay_2
  73  00D3  0080     E  	mov rc,a
  73  00D4  0F06        	mov a,6
  73  00D5  0300     E  	add a,rb
  73  00D6  0080     R  	mov _eDisplayASC_2[1],a
  73  00D7  0F00        	mov a,0
  73  00D8  1300     E  	adc a,rc
  73  00D9  0080     R  	mov _eDisplayASC_2[2],a
  73  00DA  0700     R  	mov a,_VoltDisplay_2[0]
  73  00DB  0080     R  	mov _eDisplayASC_2[0],a
  73  00DC  0700     E  	mov a,ra
  73  00DD              	fcall _eDisplayASC
  73  00E4  0003        	ret
  73  00E5              _VoltDisplay endp
  73  00E5              #line 73 "C:\Users\YVTC\Desktop\單晶片微控制器(一)\0522\ADCWithCal.c"
  73  00E5              #pragma debug scope 1 1
  73  00E5              public _eDisplayRet
  73  00E5              #pragma debug scope 13 1
 101  00E5              #line 101 "C:\Users\YVTC\Desktop\單晶片微控制器(一)\0522\ADCWithCal.c"
 101  0000              _eDisplayRet .section 'code'
 101  0000              _eDisplayRet proc
 101  0000              public _eDisplayRet_2
 101  0000  000E[           local _eDisplayRet_2 db 14 dup(?)	; 5,9
            00
            ]
"File: ADCWithCal.c  Assembler  Version HGASM0202      Page 22

 101  0000  0080     R  	mov _eDisplayRet_2[13],a
 101  0001              #pragma debug variable 8 13 _eDisplayRet_2+13 "x"
 101  0001              #pragma debug variable 8 13 _eDisplayRet_2+0 "xSize"
 101  0001              #pragma debug variable 8 13 _eDisplayRet_2+1 "y"
 101  0001              #pragma debug variable 8 13 _eDisplayRet_2+2 "ySize"
 101  0001              #pragma debug variable 10 13 _eDisplayRet_2+3 "color"
 101  0001              #pragma debug array 48 8 8 13
 101  0001              #pragma debug array 48 8 8 13
 101  0001              #pragma debug variable 48 13 _eDisplayRet_2+5 "Buffer"
 101  0001  0F02        	mov a,2
 101  0002  0080     R  	mov _eDisplayRet_2[5],a
 101  0003  1F00     R  	clr _eDisplayRet_2[6]
 101  0004  0F06        	mov a,6
 101  0005  0080     R  	mov _eDisplayRet_2[7],a
 101  0006  1F00     R  	clr _eDisplayRet_2[8]
 101  0007  1F00     R  	clr _eDisplayRet_2[9]
 101  0008  1F00     R  	clr _eDisplayRet_2[10]
 101  0009  1F00     R  	clr _eDisplayRet_2[11]
 101  000A  1F00     R  	clr _eDisplayRet_2[12]
 102  000B              #line 102 "C:\Users\YVTC\Desktop\單晶片微控制器(一)\0522\ADCWithCal.c"
 102  000B  0F00     R  	mov a,low offset _eDisplayRet_2
 102  000C  0080     E  	mov ra,a
 102  000D  0F00     R  	mov a,high offset _eDisplayRet_2
 102  000E  0080     E  	mov rb,a
 102  000F  0F05        	mov a,5
 102  0010  0300     E  	add a,ra
 102  0011  0080     R  	mov _e_Command_2[0],a
 102  0012  0F00        	mov a,0
 102  0013  1300     E  	adc a,rb
 102  0014  0080     R  	mov _e_Command_2[1],a
 102  0015              	fcall _e_Command
 103  001C              #line 103 "C:\Users\YVTC\Desktop\單晶片微控制器(一)\0522\ADCWithCal.c"
 103  001C  0700     R  	mov a,_eDisplayRet_2[13]
 103  001D  0080     R  	mov _eDisplayRet_2[5],a
 103  001E  0700     R  	mov a,_eDisplayRet_2[0]
 103  001F  0080     R  	mov _eDisplayRet_2[6],a
 104  0020              #line 104 "C:\Users\YVTC\Desktop\單晶片微控制器(一)\0522\ADCWithCal.c"
 104  0020  0700     R  	mov a,_eDisplayRet_2[1]
 104  0021  0080     R  	mov _eDisplayRet_2[7],a
 104  0022  0700     R  	mov a,_eDisplayRet_2[2]
 104  0023  0080     R  	mov _eDisplayRet_2[8],a
 105  0024              #line 105 "C:\Users\YVTC\Desktop\單晶片微控制器(一)\0522\ADCWithCal.c"
 105  0024  0700     R  	mov a,_eDisplayRet_2[4]
 105  0025  0080     R  	mov _eDisplayRet_2[9],a
 105  0026  0700     R  	mov a,_eDisplayRet_2[3]
 105  0027  0080     R  	mov _eDisplayRet_2[10],a
 106  0028              #line 106 "C:\Users\YVTC\Desktop\單晶片微控制器(一)\0522\ADCWithCal.c"
 106  0028  0F06        	mov a,6
 106  0029  0080     R  	mov _e_DataRAM_2[2],a
 106  002A  0F00     R  	mov a,low offset _eDisplayRet_2
 106  002B  0080     E  	mov ra,a
 106  002C  0F00     R  	mov a,high offset _eDisplayRet_2
 106  002D  0080     E  	mov rb,a
 106  002E  0F05        	mov a,5
 106  002F  0300     E  	add a,ra
 106  0030  0080     R  	mov _e_DataRAM_2[0],a
 106  0031  0F00        	mov a,0
 106  0032  1300     E  	adc a,rb
 106  0033  0080     R  	mov _e_DataRAM_2[1],a
 106  0034              	fcall _e_DataRAM
"File: ADCWithCal.c  Assembler  Version HGASM0202      Page 23

 107  003B              #line 107 "C:\Users\YVTC\Desktop\單晶片微控制器(一)\0522\ADCWithCal.c"
 107  003B              	fcall _I2C_STOP
 107  0042  0003        	ret
 107  0043              _eDisplayRet endp
 107  0043              #line 107 "C:\Users\YVTC\Desktop\單晶片微控制器(一)\0522\ADCWithCal.c"
 107  0043              #pragma debug scope 1 1
 107  0043              public _Delayms
 107  0043              #pragma debug scope 14 1
 175  0043              #line 175 "C:\Users\YVTC\Desktop\單晶片微控制器(一)\0522\ADCWithCal.c"
 175  0000              _Delayms .section 'code'
 175  0000              _Delayms proc
 175  0000              public _Delayms_2
 175  0000  0002[           local _Delayms_2 db 2 dup(?)	; 2,0
            00
            ]
 175  0002              #pragma debug variable 10 14 _Delayms_2+0 "del"
 176  0002              #line 176 "C:\Users\YVTC\Desktop\單晶片微控制器(一)\0522\ADCWithCal.c"
 176  0000  1F00     E  	clr rb
 176  0001  1F00     E  	clr rc
 176  0002  2800     R  	jmp _L36
 176  0003              _L37:
 176  0003              #line 176 "C:\Users\YVTC\Desktop\單晶片微控制器(一)\0522\ADCWithCal.c"
 176  0003              ;# 176 "C:\Users\YVTC\Desktop\單晶片微控制器(一)\0522\ADCWithCal.c" 1
 176  0003              	IF 2000>263690
 176  0003              ;# 176 "C:\Users\YVTC\Desktop\單晶片微控制器(一)\0522\ADCWithCal.c" 1
 176  0003              	ERRMESSAGE 'the value 2000of the argument exceeds the maxinum 263690'
 176  0003              	ENDIF
 176  0003              ;# 176 "C:\Users\YVTC\Desktop\單晶片微控制器(一)\0522\ADCWithCal.c" 1
 176  0003              	IF 2000<0
 176  0003              ;# 176 "C:\Users\YVTC\Desktop\單晶片微控制器(一)\0522\ADCWithCal.c" 1
 176  0003              	ERRMESSAGE 'the value 2000 of the argument exceeds the mininum 0'
 176  0003              	ENDIF
 176  0003              ;# 176 "C:\Users\YVTC\Desktop\單晶片微控制器(一)\0522\ADCWithCal.c" 1
 176  0003              	IF 2000==0
 176  0003              ;# 176 "C:\Users\YVTC\Desktop\單晶片微控制器(一)\0522\ADCWithCal.c" 1
 176  0003              	JMP $
 176  0003              	ENDIF
 176  0003              ;# 176 "C:\Users\YVTC\Desktop\單晶片微控制器(一)\0522\ADCWithCal.c" 1
 176  0003              	IF (2000>=1) AND (2000<( 4 + __PBP__ * 2))
 176  0003              ;# 176 "C:\Users\YVTC\Desktop\單晶片微控制器(一)\0522\ADCWithCal.c" 1
 176  0003              	NOP
 176  0003              	ENDIF
 176  0003              ;# 176 "C:\Users\YVTC\Desktop\單晶片微控制器(一)\0522\ADCWithCal.c" 1
 176  0003              	IF (2000>=2) AND (2000<( 4 + __PBP__ * 2))
 176  0003              ;# 176 "C:\Users\YVTC\Desktop\單晶片微控制器(一)\0522\ADCWithCal.c" 1
 176  0003              	NOP
 176  0003              	ENDIF
 176  0003              ;# 176 "C:\Users\YVTC\Desktop\單晶片微控制器(一)\0522\ADCWithCal.c" 1
 176  0003              	IF (2000>=3) AND (2000<( 4 + __PBP__ * 2))
 176  0003              ;# 176 "C:\Users\YVTC\Desktop\單晶片微控制器(一)\0522\ADCWithCal.c" 1
 176  0003              	NOP
 176  0003              	ENDIF
 176  0003              ;# 176 "C:\Users\YVTC\Desktop\單晶片微控制器(一)\0522\ADCWithCal.c" 1
 176  0003              	IF (2000>=4) AND (2000<( 4 + __PBP__ * 2)) AND ( __PBP__ > 0 )
 176  0003              ;# 176 "C:\Users\YVTC\Desktop\單晶片微控制器(一)\0522\ADCWithCal.c" 1
 176  0003              	NOP
 176  0003              	ENDIF
 176  0003              ;# 176 "C:\Users\YVTC\Desktop\單晶片微控制器(一)\0522\ADCWithCal.c" 1
 176  0003              	IF (2000>=5) AND (2000<( 4 + __PBP__ * 2)) AND ( __PBP__ > 0 )
 176  0003              ;# 176 "C:\Users\YVTC\Desktop\單晶片微控制器(一)\0522\ADCWithCal.c" 1
"File: ADCWithCal.c  Assembler  Version HGASM0202      Page 24

 176  0003              	NOP
 176  0003              	ENDIF
 176  0003              ;# 176 "C:\Users\YVTC\Desktop\單晶片微控制器(一)\0522\ADCWithCal.c" 1
 176  0003              	IF (2000>=6) AND (2000<( 4 + __PBP__ * 2))  AND ( __PBP__ > 1 )
 176  0003              ;# 176 "C:\Users\YVTC\Desktop\單晶片微控制器(一)\0522\ADCWithCal.c" 1
 176  0003              	NOP
 176  0003              	ENDIF
 176  0003              ;# 176 "C:\Users\YVTC\Desktop\單晶片微控制器(一)\0522\ADCWithCal.c" 1
 176  0003              	IF (2000>=7) AND (2000<( 4 + __PBP__ * 2))  AND ( __PBP__ > 1 )
 176  0003              ;# 176 "C:\Users\YVTC\Desktop\單晶片微控制器(一)\0522\ADCWithCal.c" 1
 176  0003              	NOP
 176  0003              	ENDIF
 176  0003              ;# 176 "C:\Users\YVTC\Desktop\單晶片微控制器(一)\0522\ADCWithCal.c" 1
 176  0003              	IF (2000>=8) AND (2000<( 4 + __PBP__ * 2))  AND ( __PBP__ > 2 )
 176  0003              ;# 176 "C:\Users\YVTC\Desktop\單晶片微控制器(一)\0522\ADCWithCal.c" 1
 176  0003              	NOP
 176  0003              	ENDIF
 176  0003              ;# 176 "C:\Users\YVTC\Desktop\單晶片微控制器(一)\0522\ADCWithCal.c" 1
 176  0003              	IF (2000==9)  AND ( __PBP__ > 2 )
 176  0003              ;# 176 "C:\Users\YVTC\Desktop\單晶片微控制器(一)\0522\ADCWithCal.c" 1
 176  0003              	NOP
 176  0003              	ENDIF
 176  0003              ;# 176 "C:\Users\YVTC\Desktop\單晶片微控制器(一)\0522\ADCWithCal.c" 1
 176  0003              	IF (2000< ( 8 + __PBP__ * 2)) AND (2000>( 3 + __PBP__ * 2))
 176  0003              ;# 176 "C:\Users\YVTC\Desktop\單晶片微控制器(一)\0522\ADCWithCal.c" 1
 176  0003              	fcall __DELAY3 + ( 7 + __PBP__ * 2) -2000
 176  0003              	ENDIF
 176  0003              ;# 176 "C:\Users\YVTC\Desktop\單晶片微控制器(一)\0522\ADCWithCal.c" 1
 176  0003              	IF (2000< ( 0404h + __PBP__ * 2)) AND (2000>( 7 + __PBP__ * 2))
 176  0003              ;# 176 "C:\Users\YVTC\Desktop\單晶片微控制器(一)\0522\ADCWithCal.c" 1
 176  0003              	MOV A,(2000-( 4 + __PBP__ * 2))/4
 176  0003              ;# 176 "C:\Users\YVTC\Desktop\單晶片微控制器(一)\0522\ADCWithCal.c" 1
 176  0003              	fcall __DELAYX3 + 3 -((2000-( 4 + __PBP__ * 2)) MOD 4) 
 176  0003              	ENDIF
 176  0003              ;# 176 "C:\Users\YVTC\Desktop\單晶片微控制器(一)\0522\ADCWithCal.c" 1
 176  0003              	IF (2000< ( 040bh + __PBP__ * 2)) AND (2000> ( 0403h + __PBP__ * 2))
 176  0003              ;# 176 "C:\Users\YVTC\Desktop\單晶片微控制器(一)\0522\ADCWithCal.c" 1
 176  0003              	MOV A,0 
 176  0003              ;# 176 "C:\Users\YVTC\Desktop\單晶片微控制器(一)\0522\ADCWithCal.c" 1
 176  0003              	fcall __DELAYX6 + ( 040ah + __PBP__ * 2) -2000
 176  0003              	ENDIF
 176  0003              ;# 176 "C:\Users\YVTC\Desktop\單晶片微控制器(一)\0522\ADCWithCal.c" 1
 176  0003              	IF (2000 >= ( 040bh + __PBP__ * 2)) AND ((((2000-( 9 + __PBP__ * 2))%0402h)/4+1)>256)
 176  0003              ;# 176 "C:\Users\YVTC\Desktop\單晶片微控制器(一)\0522\ADCWithCal.c" 1
 176  0003              	MOV A,(2000-( 9 + __PBP__ * 2))/0402h
 176  0003              ;# 176 "C:\Users\YVTC\Desktop\單晶片微控制器(一)\0522\ADCWithCal.c" 1
 176  0003              	MOV _builtin_holtek_delay_2,A
 176  0003              ;# 176 "C:\Users\YVTC\Desktop\單晶片微控制器(一)\0522\ADCWithCal.c" 1
 176  0003              	MOV A,0
 176  0003              ;# 176 "C:\Users\YVTC\Desktop\單晶片微控制器(一)\0522\ADCWithCal.c" 1
 176  0003              	fcall __DELAYY5 +5- (((2000-( 9 + __PBP__ * 2))%0402h)%6) 
 176  0003              	ENDIF
 176  0003              ;# 176 "C:\Users\YVTC\Desktop\單晶片微控制器(一)\0522\ADCWithCal.c" 1
 176  0003              	IF (2000 >= ( 040bh + __PBP__ * 2)) AND ((((2000-( 9 + __PBP__ * 2))%0402h)/4+1)<=256)
 176  0003              ;# 176 "C:\Users\YVTC\Desktop\單晶片微控制器(一)\0522\ADCWithCal.c" 1
 176  0003  0F01        	MOV A,(2000-( 9 + __PBP__ * 2))/0402h
 176  0004              ;# 176 "C:\Users\YVTC\Desktop\單晶片微控制器(一)\0522\ADCWithCal.c" 1
 176  0004  0080     E  	MOV _builtin_holtek_delay_2,A
 176  0005              ;# 176 "C:\Users\YVTC\Desktop\單晶片微控制器(一)\0522\ADCWithCal.c" 1
 176  0005  0FF1        	MOV A,((2000-( 9 + __PBP__ * 2))%0402h)/4+1
"File: ADCWithCal.c  Assembler  Version HGASM0202      Page 25

 176  0006              ;# 176 "C:\Users\YVTC\Desktop\單晶片微控制器(一)\0522\ADCWithCal.c" 1
 176  0006              	fcall __DELAYY3 +3-(((2000-( 9 + __PBP__ * 2))%0402h)%4) 
 176  000D              	ENDIF
 176  000D  1480     E  	inc rb
 176  000E  3D0A        	sz z
 176  000F  1480     E  	inc rc
 176  0010              _L36:
 176  0010  0700     E  	mov a,rb
 176  0011  0200     R  	sub a,_Delayms_2[0]
 176  0012  0700     E  	mov a,rc
 176  0013  1200     R  	sbc a,_Delayms_2[1]
 176  0014  3B0A        	snz cz
 176  0015  2800     R  	jmp _L37
 176  0016  0003        	ret
 176  0017              _Delayms endp
 176  0017              #line 176 "C:\Users\YVTC\Desktop\單晶片微控制器(一)\0522\ADCWithCal.c"
 176  0017              #pragma debug scope 1 1
 176  0017              public _eDisplayReset
 176  0017              #pragma debug scope 15 1
  76  0017              #line 76 "C:\Users\YVTC\Desktop\單晶片微控制器(一)\0522\ADCWithCal.c"
  76  0000              _eDisplayReset .section 'code'
  76  0000              _eDisplayReset proc
  76  0000  352E        	clr [46].2
  76  0001  352F        	clr [47].2
  77  0002              #line 77 "C:\Users\YVTC\Desktop\單晶片微控制器(一)\0522\ADCWithCal.c"
  77  0002  0F0A        	mov a,10
  77  0003  0080     R  	mov _Delayms_2[0],a
  77  0004  1F00     R  	clr _Delayms_2[1]
  77  0005              	fcall _Delayms
  78  000C              #line 78 "C:\Users\YVTC\Desktop\單晶片微控制器(一)\0522\ADCWithCal.c"
  78  000C  312E        	set [46].2
  79  000D              #line 79 "C:\Users\YVTC\Desktop\單晶片微控制器(一)\0522\ADCWithCal.c"
  79  000D  0FB8        	mov a,-72
  79  000E  0080     R  	mov _Delayms_2[0],a
  79  000F  0F0B        	mov a,11
  79  0010  0080     R  	mov _Delayms_2[1],a
  79  0011              	fcall _Delayms
  79  0018  0003        	ret
  79  0019              _eDisplayReset endp
  79  0019              #line 79 "C:\Users\YVTC\Desktop\單晶片微控制器(一)\0522\ADCWithCal.c"
  79  0019              #pragma debug scope 1 1
  79  0019              ___wdtc equ [62]
  79  0003              @crom	.section 'crom'
  79  0003              _LC1:
  79  0003              	db 041h,044h,043h,020h,056h,042h,047h,020h,054h,065h
  79  0008              	db 073h,074h,00h
  79  000A              ___adcr1 equ [105]
  79  000A              ___pas2 equ [354]
  79  000A              ___adcr0 equ [104]
  79  000A              ___adrh equ [107]
  79  000A              ___adrl equ [106]
  79  000A              public _main
  79  000A              #pragma debug scope 16 1
  35  000A              #line 35 "C:\Users\YVTC\Desktop\單晶片微控制器(一)\0522\ADCWithCal.c"
  35  000A              IFDEF WITH_DEFAULT_STARTUP
  35  000A              extern _main_initial0:near
  35  000A              extern _main_startup:near
  35  000A              ENDIF
  35  000A              
  35  000A              ROMBANK 0 @start
"File: ADCWithCal.c  Assembler  Version HGASM0202      Page 26

  35  0000              @start .section com_l 'code'
  35  0000              _main_startup1:
  35  0000              @start .section com_e 'code'
  35  0000  0F00     R  	mov a,bank _main
  35  0001  008B        	mov bp,a
  35  0002  2800     R  	jmp _main
  35  0003              
  35  0000              _main .section 'code'
  35  0000              _main proc
  35  0000  000B[           local _main_2 db 11 dup(?)
            00
            ]
  35  000B              #pragma debug variable 10 16 _main_2+0 "ADR"
  35  000B              #pragma debug variable 10 16 _main_2+9 "ADRVBG"
  37  000B              #line 37 "C:\Users\YVTC\Desktop\單晶片微控制器(一)\0522\ADCWithCal.c"
  37  0000  0FAF        	mov a,175
  37  0001  00BE        	mov [62],a
  38  0002              #line 38 "C:\Users\YVTC\Desktop\單晶片微控制器(一)\0522\ADCWithCal.c"
  38  0002              	fcall _eDisplayReset
  39  0009              #line 39 "C:\Users\YVTC\Desktop\單晶片微控制器(一)\0522\ADCWithCal.c"
  39  0009  0F1F        	mov a,31
  39  000A  0080     R  	mov _eDisplayRet_2[3],a
  39  000B  1F00     R  	clr _eDisplayRet_2[4]
  39  000C  0F80        	mov a,128
  39  000D  0080     R  	mov _eDisplayRet_2[2],a
  39  000E  1F00     R  	clr _eDisplayRet_2[1]
  39  000F  0F80        	mov a,128
  39  0010  0080     R  	mov _eDisplayRet_2[0],a
  39  0011  0F00        	mov a,0
  39  0012              	fcall _eDisplayRet
  40  0019              #line 40 "C:\Users\YVTC\Desktop\單晶片微控制器(一)\0522\ADCWithCal.c"
  40  0019  1F00     R  	clr _eDisplayASC_2[3]
  40  001A  1F00     R  	clr _eDisplayASC_2[4]
  40  001B  0F00     R  	mov a,low offset _LC1
  40  001C  0080     R  	mov _eDisplayASC_2[1],a
  40  001D  0F00     R  	mov a,high offset _LC1
  40  001E  0080     R  	mov _eDisplayASC_2[2],a
  40  001F  0F05        	mov a,5
  40  0020  0080     R  	mov _eDisplayASC_2[0],a
  40  0021  0F0F        	mov a,15
  40  0022              	fcall _eDisplayASC
  41  0029              #line 41 "C:\Users\YVTC\Desktop\單晶片微控制器(一)\0522\ADCWithCal.c"
  41  0029  0F66        	mov a,102
  41  002A  00E9        	mov [105],a
  42  002B              #line 42 "C:\Users\YVTC\Desktop\單晶片微控制器(一)\0522\ADCWithCal.c"
  42  002B  0F03        	mov a,3
  42  002C  80E2 0001   	lmov [354],a
  42  002E              _L45:
  44  002E              #line 44 "C:\Users\YVTC\Desktop\單晶片微控制器(一)\0522\ADCWithCal.c"
  44  002E  0F10        	mov a,16
  44  002F  00E8        	mov [104],a
  45  0030              #line 45 "C:\Users\YVTC\Desktop\單晶片微控制器(一)\0522\ADCWithCal.c"
  45  0030  33E8        	set [104].7
  45  0031  37E8        	clr [104].7
  45  0032              _L41:
  46  0032              #line 46 "C:\Users\YVTC\Desktop\單晶片微控制器(一)\0522\ADCWithCal.c"
  46  0032  3F68        	sz [104].6
  46  0033  2800     R  	jmp _L41
  47  0034              #line 47 "C:\Users\YVTC\Desktop\單晶片微控制器(一)\0522\ADCWithCal.c"
  47  0034  076B        	mov a,[107]
"File: ADCWithCal.c  Assembler  Version HGASM0202      Page 27

  47  0035  0080     R  	mov _main_2[6],a
  47  0036  1F00     R  	clr _main_2[5]
  47  0037  076A        	mov a,[106]
  47  0038  0300     R  	add a,_main_2[5]
  47  0039  0080     R  	mov _main_2[9],a
  47  003A  1F05        	clr acc
  47  003B  1300     R  	adc a,_main_2[6]
  47  003C  0080     R  	mov _main_2[10],a
  48  003D              #line 48 "C:\Users\YVTC\Desktop\單晶片微控制器(一)\0522\ADCWithCal.c"
  48  003D  0F04        	mov a,4
  48  003E  00E8        	mov [104],a
  48  003F  0FC8        	mov a,200
  48  0040  0080     R  	mov _main_2[4],a
  48  0041              _L46:
  50  0041              #line 50 "C:\Users\YVTC\Desktop\單晶片微控制器(一)\0522\ADCWithCal.c"
  50  0041  33E8        	set [104].7
  50  0042  37E8        	clr [104].7
  50  0043              _L43:
  51  0043              #line 51 "C:\Users\YVTC\Desktop\單晶片微控制器(一)\0522\ADCWithCal.c"
  51  0043  3F68        	sz [104].6
  51  0044  2800     R  	jmp _L43
  52  0045              #line 52 "C:\Users\YVTC\Desktop\單晶片微控制器(一)\0522\ADCWithCal.c"
  52  0045  076B        	mov a,[107]
  52  0046  0080     R  	mov _main_2[8],a
  52  0047  1F00     R  	clr _main_2[7]
  52  0048  076A        	mov a,[106]
  52  0049  0300     R  	add a,_main_2[7]
  52  004A  0080     R  	mov _main_2[0],a
  52  004B  1F05        	clr acc
  52  004C  1300     R  	adc a,_main_2[8]
  52  004D  0080     R  	mov _main_2[1],a
  53  004E              #line 53 "C:\Users\YVTC\Desktop\單晶片微控制器(一)\0522\ADCWithCal.c"
  53  004E  1F00     R  	clr _VoltDisplay_2[5]
  53  004F  0F1F        	mov a,31
  53  0050  0080     R  	mov _VoltDisplay_2[3],a
  53  0051  1F00     R  	clr _VoltDisplay_2[4]
  53  0052  0700     R  	mov a,_main_2[0]
  53  0053  0080     R  	mov _VoltDisplay_2[1],a
  53  0054  0700     R  	mov a,_main_2[1]
  53  0055  0080     R  	mov _VoltDisplay_2[2],a
  53  0056  0F1E        	mov a,30
  53  0057  0080     R  	mov _VoltDisplay_2[0],a
  53  0058  0F14        	mov a,20
  53  0059              	fcall _VoltDisplay
  54  0060              #line 54 "C:\Users\YVTC\Desktop\單晶片微控制器(一)\0522\ADCWithCal.c"
  54  0060  0700     R  	mov a,_main_2[0]
  54  0061  0080     R  	mov _main_2[0],a
  54  0062  0700     R  	mov a,_main_2[1]
  54  0063  0080     R  	mov _main_2[1],a
  54  0064  1F00     R  	clr _main_2[2]
  54  0065  1F00     R  	clr _main_2[3]
  55  0066              #line 55 "C:\Users\YVTC\Desktop\單晶片微控制器(一)\0522\ADCWithCal.c"
  55  0066  0F01        	mov a,1
  55  0067  0080     R  	mov _VoltDisplay_2[5],a
  55  0068  1F00     R  	clr _VoltDisplay_2[3]
  55  0069  0FF8        	mov a,-8
  55  006A  0080     R  	mov _VoltDisplay_2[4],a
  54  006B              #line 54 "C:\Users\YVTC\Desktop\單晶片微控制器(一)\0522\ADCWithCal.c"
  54  006B  0700     R  	mov a,_main_2[0]
  54  006C  0080     E  	mov _builtin_holtek_mulsi3_2[0],a
"File: ADCWithCal.c  Assembler  Version HGASM0202      Page 28

  54  006D  0700     R  	mov a,_main_2[1]
  54  006E  0080     E  	mov _builtin_holtek_mulsi3_2[1],a
  54  006F  0700     R  	mov a,_main_2[2]
  54  0070  0080     E  	mov _builtin_holtek_mulsi3_2[2],a
  54  0071  0700     R  	mov a,_main_2[3]
  54  0072  0080     E  	mov _builtin_holtek_mulsi3_2[3],a
  54  0073  0F88        	mov a,136
  54  0074  0080     E  	mov _builtin_holtek_mulsi3_2[4],a
  54  0075  0F13        	mov a,19
  54  0076  0080     E  	mov _builtin_holtek_mulsi3_2[5],a
  54  0077  0F00        	mov a,0
  54  0078  0080     E  	mov _builtin_holtek_mulsi3_2[6],a
  54  0079  0F00        	mov a,0
  54  007A  0080     E  	mov _builtin_holtek_mulsi3_2[7],a
  54  007B              	fcall _builtin_holtek_mulsi3
  54  0082  0700     E  	mov a,_builtin_holtek_mulsi3_2[8]
  54  0083  0080     E  	mov rd,a
  54  0084  0700     E  	mov a,_builtin_holtek_mulsi3_2[9]
  54  0085  0080     E  	mov re,a
  54  0086  0700     E  	mov a,_builtin_holtek_mulsi3_2[10]
  54  0087  0080     E  	mov rf,a
  54  0088  0700     E  	mov a,_builtin_holtek_mulsi3_2[11]
  54  0089  0080     E  	mov rg,a
  54  008A  0F0C        	mov a,12
  54  008B              _LI1:
  54  008B  340A        	clr c
  54  008C  1B80     E  	rrc rg
  54  008D  1B80     E  	rrc rf
  54  008E  1B80     E  	rrc re
  54  008F  1B80     E  	rrc rd
  54  0090  1785        	sdz acc
  54  0091  2800     R  	jmp _LI1
  54  0092  0700     E  	mov a,rd
  54  0093  0080     R  	mov _VoltDisplay_2[1],a
  54  0094  0700     E  	mov a,re
  54  0095  0080     R  	mov _VoltDisplay_2[2],a
  55  0096              #line 55 "C:\Users\YVTC\Desktop\單晶片微控制器(一)\0522\ADCWithCal.c"
  55  0096  0F32        	mov a,50
  55  0097  0080     R  	mov _VoltDisplay_2[0],a
  55  0098  0F14        	mov a,20
  55  0099              	fcall _VoltDisplay
  58  00A0              #line 58 "C:\Users\YVTC\Desktop\單晶片微控制器(一)\0522\ADCWithCal.c"
  58  00A0  0F01        	mov a,1
  58  00A1  0080     R  	mov _VoltDisplay_2[5],a
  58  00A2  0F1F        	mov a,31
  58  00A3  0080     R  	mov _VoltDisplay_2[3],a
  58  00A4  1F00     R  	clr _VoltDisplay_2[4]
  57  00A5              #line 57 "C:\Users\YVTC\Desktop\單晶片微控制器(一)\0522\ADCWithCal.c"
  57  00A5  0700     R  	mov a,_main_2[0]
  57  00A6  0080     E  	mov _builtin_holtek_mulsi3_2[0],a
  57  00A7  0700     R  	mov a,_main_2[1]
  57  00A8  0080     E  	mov _builtin_holtek_mulsi3_2[1],a
  57  00A9  0700     R  	mov a,_main_2[2]
  57  00AA  0080     E  	mov _builtin_holtek_mulsi3_2[2],a
  57  00AB  0700     R  	mov a,_main_2[3]
  57  00AC  0080     E  	mov _builtin_holtek_mulsi3_2[3],a
  57  00AD  0FE2        	mov a,226
  57  00AE  0080     E  	mov _builtin_holtek_mulsi3_2[4],a
  57  00AF  0F04        	mov a,4
  57  00B0  0080     E  	mov _builtin_holtek_mulsi3_2[5],a
"File: ADCWithCal.c  Assembler  Version HGASM0202      Page 29

  57  00B1  0F00        	mov a,0
  57  00B2  0080     E  	mov _builtin_holtek_mulsi3_2[6],a
  57  00B3  0F00        	mov a,0
  57  00B4  0080     E  	mov _builtin_holtek_mulsi3_2[7],a
  57  00B5              	fcall _builtin_holtek_mulsi3
  57  00BC  0700     E  	mov a,_builtin_holtek_mulsi3_2[8]
  57  00BD  0080     E  	mov rd,a
  57  00BE  0700     E  	mov a,_builtin_holtek_mulsi3_2[9]
  57  00BF  0080     E  	mov re,a
  57  00C0  0700     E  	mov a,_builtin_holtek_mulsi3_2[10]
  57  00C1  0080     E  	mov rf,a
  57  00C2  0700     E  	mov a,_builtin_holtek_mulsi3_2[11]
  57  00C3  0080     E  	mov rg,a
  57  00C4  1F00     E  	clr _builtin_holtek_udivmodsi4_2[12]
  57  00C5  0700     E  	mov a,rd  
  57  00C6  0080     E  	mov _builtin_holtek_udivmodsi4_2[0],a  
  57  00C7  0700     E  	mov a,re  
  57  00C8  0080     E  	mov _builtin_holtek_udivmodsi4_2[1],a
  57  00C9  0700     E  	mov a,rf  
  57  00CA  0080     E  	mov _builtin_holtek_udivmodsi4_2[2],a  
  57  00CB  0700     E  	mov a,rg  
  57  00CC  0080     E  	mov _builtin_holtek_udivmodsi4_2[3],a
  57  00CD  0700     R  	mov a,_main_2[9]  
  57  00CE  0080     E  	mov _builtin_holtek_udivmodsi4_2[4],a  
  57  00CF  0700     R  	mov a,_main_2[10]  
  57  00D0  0080     E  	mov _builtin_holtek_udivmodsi4_2[5],a
  57  00D1  1F00     E  	clr _builtin_holtek_udivmodsi4_2[6]
  57  00D2  1F00     E  	clr _builtin_holtek_udivmodsi4_2[7]
  57  00D3              	fcall _builtin_holtek_udivmodsi4
  57  00DA  0700     E  	mov a,_builtin_holtek_udivmodsi4_2[0]  
  57  00DB  0080     E  	mov rd,a  
  57  00DC  0700     E  	mov a,_builtin_holtek_udivmodsi4_2[1]  
  57  00DD  0080     E  	mov re,a
  57  00DE  0700     E  	mov a,_builtin_holtek_udivmodsi4_2[2]  
  57  00DF  0080     E  	mov rf,a  
  57  00E0  0700     E  	mov a,_builtin_holtek_udivmodsi4_2[3]  
  57  00E1  0080     E  	mov rg,a
  57  00E2  0700     E  	mov a,rd
  57  00E3  0080     R  	mov _VoltDisplay_2[1],a
  57  00E4  0700     E  	mov a,re
  57  00E5  0080     R  	mov _VoltDisplay_2[2],a
  58  00E6              #line 58 "C:\Users\YVTC\Desktop\單晶片微控制器(一)\0522\ADCWithCal.c"
  58  00E6  0F46        	mov a,70
  58  00E7  0080     R  	mov _VoltDisplay_2[0],a
  58  00E8  0F14        	mov a,20
  58  00E9              	fcall _VoltDisplay
  58  00F0  1780     R  	sdz _main_2[4]
  58  00F1  2800     R  	jmp _L46
  58  00F2  2800     R  	jmp _L45
  58  00F3  2800     R  	jmp $
  58  00F4              _main endp
  58  00F4              
  58  00F4              @dummy endp
  58  00F4              
  58  00F4              #line 58 "C:\Users\YVTC\Desktop\單晶片微控制器(一)\0522\ADCWithCal.c"
  58  00F4              #pragma debug scope 1 1
  58  00F4              public _VDD
  58  000A              @crom	.section 'crom'
   6  000A              #line 6 "C:\Users\YVTC\Desktop\單晶片微控制器(一)\0522\ADCWithCal.c"
   6  000A              @crom	.section	'crom'
"File: ADCWithCal.c  Assembler  Version HGASM0202      Page 30

   6  000A              _VDD:
   6  000A              #pragma debug variable 10 1 _VDD "VDD"
   6  000A  1388        	dc 5000
   6  000B              public _VBG
   5  000B              #line 5 "C:\Users\YVTC\Desktop\單晶片微控制器(一)\0522\ADCWithCal.c"
   5  000B              @crom	.section	'crom'
   5  000B              _VBG:
   5  000B              #pragma debug variable 10 1 _VBG "VBG"
   5  000B  04E2        	dc 1250
   5  000C              #pragma debug struct_end
   5  000C              #pragma debug struct_end
   5  000C              #pragma debug union_end
   5  000C              #pragma debug union_end
   5  000C              #pragma debug variable 50 1 ___ph "__ph" 1
   5  000C              #pragma debug struct_end
   5  000C              #pragma debug struct_end
   5  000C              #pragma debug union_end
   5  000C              #pragma debug union_end
   5  000C              #pragma debug variable 52 1 ___phc "__phc" 1
   5  000C              #pragma debug struct_end
   5  000C              #pragma debug struct_end
   5  000C              #pragma debug union_end
   5  000C              #pragma debug union_end
   5  000C              #pragma debug variable 54 1 ___wdtc "__wdtc" 1
   5  000C              #pragma debug struct_end
   5  000C              #pragma debug struct_end
   5  000C              #pragma debug union_end
   5  000C              #pragma debug union_end
   5  000C              #pragma debug variable 56 1 ___adcr0 "__adcr0" 1
   5  000C              #pragma debug struct_end
   5  000C              #pragma debug struct_end
   5  000C              #pragma debug union_end
   5  000C              #pragma debug union_end
   5  000C              #pragma debug variable 58 1 ___adcr1 "__adcr1" 1
   5  000C              #pragma debug variable 8 1 ___adrl "__adrl" 1
   5  000C              #pragma debug variable 8 1 ___adrh "__adrh" 1
   5  000C              #pragma debug struct_end
   5  000C              #pragma debug struct_end
   5  000C              #pragma debug union_end
   5  000C              #pragma debug union_end
   5  000C              #pragma debug variable 60 1 ___pas2 "__pas2" 1
  35  000C              #line 35 "C:\Users\YVTC\Desktop\單晶片微控制器(一)\0522\ADCWithCal.c"
  35  0000              @code .section at 0 'code'
  35  0000  1F0B        	clr bp
  35  0001  2800     R  	jmp _main_startup1
  35  0002              
  35  0002              extern _builtin_holtek_udivmodhi4_2:byte
  35  0002              extern _builtin_holtek_udivmodhi4:near
  35  0002              extern _builtin_holtek_mulsi3_2:byte
  35  0002              extern _builtin_holtek_mulsi3:near
  35  0002              extern _builtin_holtek_udivmodsi4_2:byte
  35  0002              extern _builtin_holtek_udivmodsi4:near
  35  0002              
  35  0002              ; 
  35  0002              ; Generated by holtek-gcc v3.18, Tue May 22 16:05:17 2018
  35  0002              ; Rebuild 126
  35  0002              ; end of file


        0 Errors, 0