"File: Bluetooth_ADC12.c  Assembler  Version HGASM0202      Page 1


   1  0000              ; Generated by holtek-gcc v3.18, Tue Apr 24 10:13:25 2018
   2  0000              ; 
   3  0000              ; Configuration:
   4  0000              ;       with long instruction
   5  0000              ;       Multi-ROM, Multi-RAM
   6  0000              ;       bits_per_rom_unit:16
   7  0000              ;       with mp1
   8  0000              ;       with tbhp, address(0x9)
   9  0000              ;          Use tabrd-const
  10  0000              ;       
  11  0000              ; SFR address of long-instruction arch:
  12  0000              ;    mp0 = -1,1,0
  13  0000              ;    mp1 = 4,3,2
  14  0000              ;    mp2 = 14,13,12
  15  0000              ;    tbp = 9,7,8
  16  0000              ;    acc = 5
  17  0000              ;    pcl = 6
  18  0000              ;    status = 10
  19  0000              ;    bp = 11
  20  0000              ;    intc = 48
  21  0000              ;       
  22  0000              ;       
  23  0000              ; use 'tabrdc' instead of 'tabrd'
  24  0000              ;       
  25  0000              
  26  0000              #pragma translator "holtek-gcc 4.6.4" "3.18" "build 20130711"
  27  0000              ; Rebuild 126
  28  0000              
  29  0000              ir equ [2]
  30  0000              mp equ [3]
  31  0000              sbp equ [4]
  32  0000              acc equ [5]
  33  0000              bp equ [11]
  34  0000              tblp equ [7]
  35  0000              tbhp equ [9]
  36  0000              status equ [10]
  37  0000              c equ [10].0
  38  0000              ac equ [10].1
  39  0000              z equ [10].2
  40  0000              ov equ [10].3
  41  0000              cz equ [10].6
  42  0000              sc equ [10].7
  43  0000              intc equ [48]
  44  0000              
  45  0000              extern ra:byte
  46  0000              extern rb:byte
  47  0000              extern rc:byte
  48  0000              extern rd:byte
  49  0000              extern re:byte
  50  0000              extern rf:byte
  51  0000              extern rg:byte
  52  0000              extern rh:byte
  53  0000              extern _Crom2Prom:near
  54  0000              extern _Crom2PromNext:near
  55  0000              
  56  0000              RAMBANK 0 @BITDATASEC, @BITDATASEC1
  57  0000              @HCCINIT	.section 'data'
  58  0000              @HCCINIT0	.section 'data'
  59  0000              @BITDATASEC	 .section 'data'
"File: Bluetooth_ADC12.ASM  Assembler  Version HGASM0202      Page 2

  60  0000              @BITDATASEC1	 .section 'data'
  61  0000              
  62  0000              #pragma debug scope 1 1
  63  0000              	extern __DELAY3:near
  64  0000              	extern __DELAYX3:near
  65  0000              	extern __DELAYX6:near
  66  0000              	extern __DELAYY5:near
  67  0000              	extern __DELAYY3:near
  68  0000              	extern _builtin_holtek_delay_2:byte
  69  0000              ___tm0al equ [98]
  70  0000              ___tm0ah equ [99]
  71  0000              ___mfi0 equ [52]
  72  0000              ___pa equ [18]
  73  0000              ___tm0c0 equ [94]
  74  0000              public _UARTTXData
  75  0000              #pragma debug scope 2 1

  39  0000              #line 39 "C:\Users\YVTC\Desktop\單晶片微控制器(一)\0417\Bluetooth_ADC12.c"
  39  0000              _UARTTXData .section 'code'
  39  0000              _UARTTXData proc
  39  0000  00              local _UARTTXData_2 db 1 dup(?)	; 0,1
  39  0000  0080     R  	mov _UARTTXData_2[0],a
  39  0001              #pragma debug variable 8 2 _UARTTXData_2+0 "data"
  40  0001              #line 40 "C:\Users\YVTC\Desktop\單晶片微控制器(一)\0417\Bluetooth_ADC12.c"
  40  0001  0FA0        	mov a,160
  40  0002  00E2        	mov [98],a
  40  0003  0F01        	mov a,1
  40  0004  00E3        	mov [99],a
  41  0005              #line 41 "C:\Users\YVTC\Desktop\單晶片微控制器(一)\0417\Bluetooth_ADC12.c"
  41  0005  36B4        	clr [52].5
  42  0006              #line 42 "C:\Users\YVTC\Desktop\單晶片微控制器(一)\0417\Bluetooth_ADC12.c"
  42  0006  3492        	clr [18].1
  43  0007              #line 43 "C:\Users\YVTC\Desktop\單晶片微控制器(一)\0417\Bluetooth_ADC12.c"
  43  0007  31DE        	set [94].3
  43  0008              _L3:
  44  0008              #line 44 "C:\Users\YVTC\Desktop\單晶片微控制器(一)\0417\Bluetooth_ADC12.c"
  44  0008  3AB4        	snz [52].5
  44  0009  2800     R  	jmp _L3
  45  000A              #line 45 "C:\Users\YVTC\Desktop\單晶片微控制器(一)\0417\Bluetooth_ADC12.c"
  45  000A  36B4        	clr [52].5
  45  000B  1F00     E  	clr rb
  39  000C              #line 39 "C:\Users\YVTC\Desktop\單晶片微控制器(一)\0417\Bluetooth_ADC12.c"
  39  000C  0F01        	mov a,1
  39  000D  0080     E  	mov ra,a
  39  000E              _L9:
  47  000E              #line 47 "C:\Users\YVTC\Desktop\單晶片微控制器(一)\0417\Bluetooth_ADC12.c"
  47  000E  0700     E  	mov a,ra
  47  000F  0600     R  	and a,_UARTTXData_2[0]
  47  0010  0080     E  	mov rc,a
  47  0011  1E00     E  	snz rc
  47  0012  2800     R  	jmp _L4
  47  0013  3092        	set [18].1
  47  0014  2800     R  	jmp _L7
  47  0015              _L4:
  47  0015  3492        	clr [18].1
  47  0016              _L7:
  48  0016              #line 48 "C:\Users\YVTC\Desktop\單晶片微控制器(一)\0417\Bluetooth_ADC12.c"
  48  0016  3AB4        	snz [52].5
  48  0017  2800     R  	jmp _L7
  49  0018              #line 49 "C:\Users\YVTC\Desktop\單晶片微控制器(一)\0417\Bluetooth_ADC12.c"
"File: Bluetooth_ADC12.c  Assembler  Version HGASM0202      Page 3

  49  0018  36B4        	clr [52].5
  50  0019              #line 50 "C:\Users\YVTC\Desktop\單晶片微控制器(一)\0417\Bluetooth_ADC12.c"
  50  0019  0700     E  	mov a,ra
  50  001A  0380     E  	addm a,ra
  50  001B  1480     E  	inc rb
  51  001C              #line 51 "C:\Users\YVTC\Desktop\單晶片微控制器(一)\0417\Bluetooth_ADC12.c"
  51  001C  0700     E  	mov a,rb
  51  001D  0A08        	sub a,8
  51  001E  390A        	snz z
  51  001F  2800     R  	jmp _L9
  52  0020              #line 52 "C:\Users\YVTC\Desktop\單晶片微控制器(一)\0417\Bluetooth_ADC12.c"
  52  0020  3092        	set [18].1
  52  0021              _L11:
  53  0021              #line 53 "C:\Users\YVTC\Desktop\單晶片微控制器(一)\0417\Bluetooth_ADC12.c"
  53  0021  3AB4        	snz [52].5
  53  0022  2800     R  	jmp _L11
  54  0023              #line 54 "C:\Users\YVTC\Desktop\單晶片微控制器(一)\0417\Bluetooth_ADC12.c"
  54  0023  35DE        	clr [94].3
  54  0024  0003        	ret
  54  0025              _UARTTXData endp
  54  0025              #line 54 "C:\Users\YVTC\Desktop\單晶片微控制器(一)\0417\Bluetooth_ADC12.c"
  54  0025              #pragma debug scope 1 1
  54  0025              public _Delayms
  54  0025              #pragma debug scope 3 1
  57  0025              #line 57 "C:\Users\YVTC\Desktop\單晶片微控制器(一)\0417\Bluetooth_ADC12.c"
  57  0000              _Delayms .section 'code'
  57  0000              _Delayms proc
  57  0000              public _Delayms_2
  57  0000  0002[           local _Delayms_2 db 2 dup(?)	; 2,0
            00
            ]
  57  0002              #pragma debug variable 10 3 _Delayms_2+0 "del"
  58  0002              #line 58 "C:\Users\YVTC\Desktop\單晶片微控制器(一)\0417\Bluetooth_ADC12.c"
  58  0000  1F00     E  	clr rb
  58  0001  1F00     E  	clr rc
  58  0002  2800     R  	jmp _L14
  58  0003              _L15:
  58  0003              #line 58 "C:\Users\YVTC\Desktop\單晶片微控制器(一)\0417\Bluetooth_ADC12.c"
  58  0003              ;# 58 "C:\Users\YVTC\Desktop\單晶片微控制器(一)\0417\Bluetooth_ADC12.c" 1
  58  0003              	IF 2000>263690
  58  0003              ;# 58 "C:\Users\YVTC\Desktop\單晶片微控制器(一)\0417\Bluetooth_ADC12.c" 1
  58  0003              	ERRMESSAGE 'the value 2000of the argument exceeds the maxinum 263690'
  58  0003              	ENDIF
  58  0003              ;# 58 "C:\Users\YVTC\Desktop\單晶片微控制器(一)\0417\Bluetooth_ADC12.c" 1
  58  0003              	IF 2000<0
  58  0003              ;# 58 "C:\Users\YVTC\Desktop\單晶片微控制器(一)\0417\Bluetooth_ADC12.c" 1
  58  0003              	ERRMESSAGE 'the value 2000 of the argument exceeds the mininum 0'
  58  0003              	ENDIF
  58  0003              ;# 58 "C:\Users\YVTC\Desktop\單晶片微控制器(一)\0417\Bluetooth_ADC12.c" 1
  58  0003              	IF 2000==0
  58  0003              ;# 58 "C:\Users\YVTC\Desktop\單晶片微控制器(一)\0417\Bluetooth_ADC12.c" 1
  58  0003              	JMP $
  58  0003              	ENDIF
  58  0003              ;# 58 "C:\Users\YVTC\Desktop\單晶片微控制器(一)\0417\Bluetooth_ADC12.c" 1
  58  0003              	IF (2000>=1) AND (2000<( 4 + __PBP__ * 2))
  58  0003              ;# 58 "C:\Users\YVTC\Desktop\單晶片微控制器(一)\0417\Bluetooth_ADC12.c" 1
  58  0003              	NOP
  58  0003              	ENDIF
  58  0003              ;# 58 "C:\Users\YVTC\Desktop\單晶片微控制器(一)\0417\Bluetooth_ADC12.c" 1
  58  0003              	IF (2000>=2) AND (2000<( 4 + __PBP__ * 2))
"File: Bluetooth_ADC12.c  Assembler  Version HGASM0202      Page 4

  58  0003              ;# 58 "C:\Users\YVTC\Desktop\單晶片微控制器(一)\0417\Bluetooth_ADC12.c" 1
  58  0003              	NOP
  58  0003              	ENDIF
  58  0003              ;# 58 "C:\Users\YVTC\Desktop\單晶片微控制器(一)\0417\Bluetooth_ADC12.c" 1
  58  0003              	IF (2000>=3) AND (2000<( 4 + __PBP__ * 2))
  58  0003              ;# 58 "C:\Users\YVTC\Desktop\單晶片微控制器(一)\0417\Bluetooth_ADC12.c" 1
  58  0003              	NOP
  58  0003              	ENDIF
  58  0003              ;# 58 "C:\Users\YVTC\Desktop\單晶片微控制器(一)\0417\Bluetooth_ADC12.c" 1
  58  0003              	IF (2000>=4) AND (2000<( 4 + __PBP__ * 2)) AND ( __PBP__ > 0 )
  58  0003              ;# 58 "C:\Users\YVTC\Desktop\單晶片微控制器(一)\0417\Bluetooth_ADC12.c" 1
  58  0003              	NOP
  58  0003              	ENDIF
  58  0003              ;# 58 "C:\Users\YVTC\Desktop\單晶片微控制器(一)\0417\Bluetooth_ADC12.c" 1
  58  0003              	IF (2000>=5) AND (2000<( 4 + __PBP__ * 2)) AND ( __PBP__ > 0 )
  58  0003              ;# 58 "C:\Users\YVTC\Desktop\單晶片微控制器(一)\0417\Bluetooth_ADC12.c" 1
  58  0003              	NOP
  58  0003              	ENDIF
  58  0003              ;# 58 "C:\Users\YVTC\Desktop\單晶片微控制器(一)\0417\Bluetooth_ADC12.c" 1
  58  0003              	IF (2000>=6) AND (2000<( 4 + __PBP__ * 2))  AND ( __PBP__ > 1 )
  58  0003              ;# 58 "C:\Users\YVTC\Desktop\單晶片微控制器(一)\0417\Bluetooth_ADC12.c" 1
  58  0003              	NOP
  58  0003              	ENDIF
  58  0003              ;# 58 "C:\Users\YVTC\Desktop\單晶片微控制器(一)\0417\Bluetooth_ADC12.c" 1
  58  0003              	IF (2000>=7) AND (2000<( 4 + __PBP__ * 2))  AND ( __PBP__ > 1 )
  58  0003              ;# 58 "C:\Users\YVTC\Desktop\單晶片微控制器(一)\0417\Bluetooth_ADC12.c" 1
  58  0003              	NOP
  58  0003              	ENDIF
  58  0003              ;# 58 "C:\Users\YVTC\Desktop\單晶片微控制器(一)\0417\Bluetooth_ADC12.c" 1
  58  0003              	IF (2000>=8) AND (2000<( 4 + __PBP__ * 2))  AND ( __PBP__ > 2 )
  58  0003              ;# 58 "C:\Users\YVTC\Desktop\單晶片微控制器(一)\0417\Bluetooth_ADC12.c" 1
  58  0003              	NOP
  58  0003              	ENDIF
  58  0003              ;# 58 "C:\Users\YVTC\Desktop\單晶片微控制器(一)\0417\Bluetooth_ADC12.c" 1
  58  0003              	IF (2000==9)  AND ( __PBP__ > 2 )
  58  0003              ;# 58 "C:\Users\YVTC\Desktop\單晶片微控制器(一)\0417\Bluetooth_ADC12.c" 1
  58  0003              	NOP
  58  0003              	ENDIF
  58  0003              ;# 58 "C:\Users\YVTC\Desktop\單晶片微控制器(一)\0417\Bluetooth_ADC12.c" 1
  58  0003              	IF (2000< ( 8 + __PBP__ * 2)) AND (2000>( 3 + __PBP__ * 2))
  58  0003              ;# 58 "C:\Users\YVTC\Desktop\單晶片微控制器(一)\0417\Bluetooth_ADC12.c" 1
  58  0003              	fcall __DELAY3 + ( 7 + __PBP__ * 2) -2000
  58  0003              	ENDIF
  58  0003              ;# 58 "C:\Users\YVTC\Desktop\單晶片微控制器(一)\0417\Bluetooth_ADC12.c" 1
  58  0003              	IF (2000< ( 0404h + __PBP__ * 2)) AND (2000>( 7 + __PBP__ * 2))
  58  0003              ;# 58 "C:\Users\YVTC\Desktop\單晶片微控制器(一)\0417\Bluetooth_ADC12.c" 1
  58  0003              	MOV A,(2000-( 4 + __PBP__ * 2))/4
  58  0003              ;# 58 "C:\Users\YVTC\Desktop\單晶片微控制器(一)\0417\Bluetooth_ADC12.c" 1
  58  0003              	fcall __DELAYX3 + 3 -((2000-( 4 + __PBP__ * 2)) MOD 4) 
  58  0003              	ENDIF
  58  0003              ;# 58 "C:\Users\YVTC\Desktop\單晶片微控制器(一)\0417\Bluetooth_ADC12.c" 1
  58  0003              	IF (2000< ( 040bh + __PBP__ * 2)) AND (2000> ( 0403h + __PBP__ * 2))
  58  0003              ;# 58 "C:\Users\YVTC\Desktop\單晶片微控制器(一)\0417\Bluetooth_ADC12.c" 1
  58  0003              	MOV A,0 
  58  0003              ;# 58 "C:\Users\YVTC\Desktop\單晶片微控制器(一)\0417\Bluetooth_ADC12.c" 1
  58  0003              	fcall __DELAYX6 + ( 040ah + __PBP__ * 2) -2000
  58  0003              	ENDIF
  58  0003              ;# 58 "C:\Users\YVTC\Desktop\單晶片微控制器(一)\0417\Bluetooth_ADC12.c" 1
  58  0003              	IF (2000 >= ( 040bh + __PBP__ * 2)) AND ((((2000-( 9 + __PBP__ * 2))%0402h)/4+1)>256)
  58  0003              ;# 58 "C:\Users\YVTC\Desktop\單晶片微控制器(一)\0417\Bluetooth_ADC12.c" 1
"File: Bluetooth_ADC12.c  Assembler  Version HGASM0202      Page 5

  58  0003              	MOV A,(2000-( 9 + __PBP__ * 2))/0402h
  58  0003              ;# 58 "C:\Users\YVTC\Desktop\單晶片微控制器(一)\0417\Bluetooth_ADC12.c" 1
  58  0003              	MOV _builtin_holtek_delay_2,A
  58  0003              ;# 58 "C:\Users\YVTC\Desktop\單晶片微控制器(一)\0417\Bluetooth_ADC12.c" 1
  58  0003              	MOV A,0
  58  0003              ;# 58 "C:\Users\YVTC\Desktop\單晶片微控制器(一)\0417\Bluetooth_ADC12.c" 1
  58  0003              	fcall __DELAYY5 +5- (((2000-( 9 + __PBP__ * 2))%0402h)%6) 
  58  0003              	ENDIF
  58  0003              ;# 58 "C:\Users\YVTC\Desktop\單晶片微控制器(一)\0417\Bluetooth_ADC12.c" 1
  58  0003              	IF (2000 >= ( 040bh + __PBP__ * 2)) AND ((((2000-( 9 + __PBP__ * 2))%0402h)/4+1)<=256)
  58  0003              ;# 58 "C:\Users\YVTC\Desktop\單晶片微控制器(一)\0417\Bluetooth_ADC12.c" 1
  58  0003  0F01        	MOV A,(2000-( 9 + __PBP__ * 2))/0402h
  58  0004              ;# 58 "C:\Users\YVTC\Desktop\單晶片微控制器(一)\0417\Bluetooth_ADC12.c" 1
  58  0004  0080     E  	MOV _builtin_holtek_delay_2,A
  58  0005              ;# 58 "C:\Users\YVTC\Desktop\單晶片微控制器(一)\0417\Bluetooth_ADC12.c" 1
  58  0005  0FF1        	MOV A,((2000-( 9 + __PBP__ * 2))%0402h)/4+1
  58  0006              ;# 58 "C:\Users\YVTC\Desktop\單晶片微控制器(一)\0417\Bluetooth_ADC12.c" 1
  58  0006              	fcall __DELAYY3 +3-(((2000-( 9 + __PBP__ * 2))%0402h)%4) 
  58  000D              	ENDIF
  58  000D  1480     E  	inc rb
  58  000E  3D0A        	sz z
  58  000F  1480     E  	inc rc
  58  0010              _L14:
  58  0010  0700     E  	mov a,rb
  58  0011  0200     R  	sub a,_Delayms_2[0]
  58  0012  0700     E  	mov a,rc
  58  0013  1200     R  	sbc a,_Delayms_2[1]
  58  0014  3B0A        	snz cz
  58  0015  2800     R  	jmp _L15
  58  0016  0003        	ret
  58  0017              _Delayms endp
  58  0017              #line 58 "C:\Users\YVTC\Desktop\單晶片微控制器(一)\0417\Bluetooth_ADC12.c"
  58  0017              #pragma debug scope 1 1
  58  0017              ___wdtc equ [62]
  58  0017              ___pac equ [19]
  58  0017              ___integ equ [57]
  58  0017              ___papu equ [17]
  58  0017              ___ifs0 equ [328]
  58  0017              ___tm0c1 equ [95]
  58  0017              ___intc0 equ [48]
  58  0017              ___adcr0 equ [104]
  58  0017              ___adcr1 equ [105]
  58  0017              ___pas2 equ [354]
  58  0017              ___adrl equ [106]
  58  0017              ___adrh equ [107]
  58  0017              public _main
  58  0017              #pragma debug scope 4 1
  20  0017              #line 20 "C:\Users\YVTC\Desktop\單晶片微控制器(一)\0417\Bluetooth_ADC12.c"
  20  0017              IFDEF WITH_DEFAULT_STARTUP
  20  0017              extern _main_initial0:near
  20  0017              extern _main_startup:near
  20  0017              ENDIF
  20  0017              
  20  0017              ROMBANK 0 @start
  20  0000              @start .section com_l 'code'
  20  0000              _main_startup1:
  20  0000              @start .section com_e 'code'
  20  0000  0F00     R  	mov a,bank _main
  20  0001  008B        	mov bp,a
  20  0002  2800     R  	jmp _main
"File: Bluetooth_ADC12.c  Assembler  Version HGASM0202      Page 6

  20  0003              
  20  0000              _main .section 'code'
  20  0000              _main proc
  20  0000  0FAF        	mov a,175
  20  0001  00BE        	mov [62],a
  21  0002              #line 21 "C:\Users\YVTC\Desktop\單晶片微控制器(一)\0417\Bluetooth_ADC12.c"
  21  0002  3193        	set [19].3
  21  0003  3092        	set [18].1
  21  0004  3493        	clr [19].1
  22  0005              #line 22 "C:\Users\YVTC\Desktop\單晶片微控制器(一)\0417\Bluetooth_ADC12.c"
  22  0005  0F02        	mov a,2
  22  0006  00B9        	mov [57],a
  22  0007  3191        	set [17].3
  23  0008              #line 23 "C:\Users\YVTC\Desktop\單晶片微控制器(一)\0417\Bluetooth_ADC12.c"
  23  0008  9F48 0001   	lclr [328]
  24  000A              #line 24 "C:\Users\YVTC\Desktop\單晶片微控制器(一)\0417\Bluetooth_ADC12.c"
  24  000A  0F10        	mov a,16
  24  000B  00DE        	mov [94],a
  25  000C              #line 25 "C:\Users\YVTC\Desktop\單晶片微控制器(一)\0417\Bluetooth_ADC12.c"
  25  000C  0FC1        	mov a,193
  25  000D  00DF        	mov [95],a
  26  000E              #line 26 "C:\Users\YVTC\Desktop\單晶片微控制器(一)\0417\Bluetooth_ADC12.c"
  26  000E  30B0        	set [48].1
  26  000F  3030        	set [48].0
  27  0010              #line 27 "C:\Users\YVTC\Desktop\單晶片微控制器(一)\0417\Bluetooth_ADC12.c"
  27  0010  0F04        	mov a,4
  27  0011  00E8        	mov [104],a
  28  0012              #line 28 "C:\Users\YVTC\Desktop\單晶片微控制器(一)\0417\Bluetooth_ADC12.c"
  28  0012  0F26        	mov a,38
  28  0013  00E9        	mov [105],a
  29  0014              #line 29 "C:\Users\YVTC\Desktop\單晶片微控制器(一)\0417\Bluetooth_ADC12.c"
  29  0014  0F03        	mov a,3
  29  0015  80E2 0001   	lmov [354],a
  29  0017              _L19:
  31  0017              #line 31 "C:\Users\YVTC\Desktop\單晶片微控制器(一)\0417\Bluetooth_ADC12.c"
  31  0017  33E8        	set [104].7
  31  0018  37E8        	clr [104].7
  31  0019              _L18:
  32  0019              #line 32 "C:\Users\YVTC\Desktop\單晶片微控制器(一)\0417\Bluetooth_ADC12.c"
  32  0019  3F68        	sz [104].6
  32  001A  2800     R  	jmp _L18
  33  001B              #line 33 "C:\Users\YVTC\Desktop\單晶片微控制器(一)\0417\Bluetooth_ADC12.c"
  33  001B  076A        	mov a,[106]
  33  001C  0080     E  	mov ra,a
  33  001D  0700     E  	mov a,ra
  33  001E              	fcall _UARTTXData
  34  0025              #line 34 "C:\Users\YVTC\Desktop\單晶片微控制器(一)\0417\Bluetooth_ADC12.c"
  34  0025  076B        	mov a,[107]
  34  0026  0080     E  	mov ra,a
  34  0027  0700     E  	mov a,ra
  34  0028              	fcall _UARTTXData
  35  002F              #line 35 "C:\Users\YVTC\Desktop\單晶片微控制器(一)\0417\Bluetooth_ADC12.c"
  35  002F  0FC8        	mov a,-56
  35  0030  0080     R  	mov _Delayms_2[0],a
  35  0031  1F00     R  	clr _Delayms_2[1]
  35  0032              	fcall _Delayms
  36  0039              #line 36 "C:\Users\YVTC\Desktop\單晶片微控制器(一)\0417\Bluetooth_ADC12.c"
  36  0039  2800     R  	jmp _L19
  36  003A  2800     R  	jmp $
  36  003B              _main endp
"File: Bluetooth_ADC12.c  Assembler  Version HGASM0202      Page 7

  36  003B              
  36  003B              @dummy endp
  36  003B              
  36  003B              #line 36 "C:\Users\YVTC\Desktop\單晶片微控制器(一)\0417\Bluetooth_ADC12.c"
  36  003B              #pragma debug scope 1 1
  18  003B              #line 18 "C:\Users\YVTC\Desktop\單晶片微控制器(一)\0417\Bluetooth_ADC12.c"
  18  003B              public _RxData
  18  0000              @HCCINIT0_RxData .section 'data'
  18  0000              _RxData	db 0
  18  0001              #pragma debug variable 8 1 _RxData "RxData"
  18  0001              
  18  0000              @HCCINIT .section 'data'
  18  0000              public _b_RX
  18  0000              @HCCINIT	.section 'data'
  17  0000              #line 17 "C:\Users\YVTC\Desktop\單晶片微控制器(一)\0417\Bluetooth_ADC12.c"
  17  0000              @HCCINIT_b_RX .section 'data'
  17  0000              _b_RX label byte
  17  0000              #pragma debug variable 8 1 _b_RX "b_RX"
  17  0000              	db 0
  17  0000              @ROMDATA_BASE .section inpage 'code'
  17  0000              	db 0
  17  0001              @HCCINIT_b_RX .section 'data'
  17  0001              #pragma debug struct_end
  17  0001              #pragma debug struct_end
  17  0001              #pragma debug union_end
  17  0001              #pragma debug union_end
  17  0001              #pragma debug variable 43 1 ___papu "__papu" 1
  17  0001              #pragma debug struct_end
  17  0001              #pragma debug struct_end
  17  0001              #pragma debug union_end
  17  0001              #pragma debug union_end
  17  0001              #pragma debug variable 45 1 ___pa "__pa" 1
  17  0001              #pragma debug struct_end
  17  0001              #pragma debug struct_end
  17  0001              #pragma debug union_end
  17  0001              #pragma debug union_end
  17  0001              #pragma debug variable 47 1 ___pac "__pac" 1
  17  0001              #pragma debug struct_end
  17  0001              #pragma debug struct_end
  17  0001              #pragma debug union_end
  17  0001              #pragma debug union_end
  17  0001              #pragma debug variable 49 1 ___intc0 "__intc0" 1
  17  0001              #pragma debug struct_end
  17  0001              #pragma debug struct_end
  17  0001              #pragma debug union_end
  17  0001              #pragma debug union_end
  17  0001              #pragma debug variable 51 1 ___mfi0 "__mfi0" 1
  17  0001              #pragma debug struct_end
  17  0001              #pragma debug struct_end
  17  0001              #pragma debug union_end
  17  0001              #pragma debug union_end
  17  0001              #pragma debug variable 53 1 ___integ "__integ" 1
  17  0001              #pragma debug struct_end
  17  0001              #pragma debug struct_end
  17  0001              #pragma debug union_end
  17  0001              #pragma debug union_end
  17  0001              #pragma debug variable 55 1 ___wdtc "__wdtc" 1
  17  0001              #pragma debug struct_end
  17  0001              #pragma debug struct_end
  17  0001              #pragma debug union_end
"File: Bluetooth_ADC12.c  Assembler  Version HGASM0202      Page 8

  17  0001              #pragma debug union_end
  17  0001              #pragma debug variable 57 1 ___tm0c0 "__tm0c0" 1
  17  0001              #pragma debug struct_end
  17  0001              #pragma debug struct_end
  17  0001              #pragma debug union_end
  17  0001              #pragma debug union_end
  17  0001              #pragma debug variable 59 1 ___tm0c1 "__tm0c1" 1
  17  0001              #pragma debug variable 8 1 ___tm0al "__tm0al" 1
  17  0001              #pragma debug variable 8 1 ___tm0ah "__tm0ah" 1
  17  0001              #pragma debug struct_end
  17  0001              #pragma debug struct_end
  17  0001              #pragma debug union_end
  17  0001              #pragma debug union_end
  17  0001              #pragma debug variable 61 1 ___adcr0 "__adcr0" 1
  17  0001              #pragma debug struct_end
  17  0001              #pragma debug struct_end
  17  0001              #pragma debug union_end
  17  0001              #pragma debug union_end
  17  0001              #pragma debug variable 63 1 ___adcr1 "__adcr1" 1
  17  0001              #pragma debug variable 8 1 ___adrl "__adrl" 1
  17  0001              #pragma debug variable 8 1 ___adrh "__adrh" 1
  17  0001              #pragma debug struct_end
  17  0001              #pragma debug struct_end
  17  0001              #pragma debug union_end
  17  0001              #pragma debug union_end
  17  0001              #pragma debug variable 65 1 ___ifs0 "__ifs0" 1
  17  0001              #pragma debug struct_end
  17  0001              #pragma debug struct_end
  17  0001              #pragma debug union_end
  17  0001              #pragma debug union_end
  17  0001              #pragma debug variable 67 1 ___pas2 "__pas2" 1
  20  0001              #line 20 "C:\Users\YVTC\Desktop\單晶片微控制器(一)\0417\Bluetooth_ADC12.c"
  20  0000              @code .section at 0 'code'
  20  0000  1F0B        	clr bp
  20  0001  2800     R  	jmp _main_startup1
  20  0002              
  20  0002              
  20  0002              ; 
  20  0002              ; Generated by holtek-gcc v3.18, Tue Apr 24 10:13:25 2018
  20  0002              ; Rebuild 126
  20  0002              ; end of file


        0 Errors, 0