"File: Buzzer.c      Assembler  Version HGASM0202      Page 1


   1  0000              ; Generated by holtek-gcc v3.18, Tue Apr 24 14:27:48 2018
   2  0000              ; 
   3  0000              ; Configuration:
   4  0000              ;       with long instruction
   5  0000              ;       Multi-ROM, Multi-RAM
   6  0000              ;       bits_per_rom_unit:16
   7  0000              ;       with mp1
   8  0000              ;       with tbhp, address(0x9)
   9  0000              ;          Use tabrd-const
  10  0000              ;       
  11  0000              ; SFR address of long-instruction arch:
  12  0000              ;    mp0 = -1,1,0
  13  0000              ;    mp1 = 4,3,2
  14  0000              ;    mp2 = 14,13,12
  15  0000              ;    tbp = 9,7,8
  16  0000              ;    acc = 5
  17  0000              ;    pcl = 6
  18  0000              ;    status = 10
  19  0000              ;    bp = 11
  20  0000              ;    intc = 48
  21  0000              ;       
  22  0000              ;       
  23  0000              ; use 'tabrdc' instead of 'tabrd'
  24  0000              ;       
  25  0000              
  26  0000              #pragma translator "holtek-gcc 4.6.4" "3.18" "build 20130711"
  27  0000              ; Rebuild 126
  28  0000              
  29  0000              ir equ [2]
  30  0000              mp equ [3]
  31  0000              sbp equ [4]
  32  0000              acc equ [5]
  33  0000              bp equ [11]
  34  0000              tblp equ [7]
  35  0000              tbhp equ [9]
  36  0000              status equ [10]
  37  0000              c equ [10].0
  38  0000              ac equ [10].1
  39  0000              z equ [10].2
  40  0000              ov equ [10].3
  41  0000              cz equ [10].6
  42  0000              sc equ [10].7
  43  0000              intc equ [48]
  44  0000              
  45  0000              extern ra:byte
  46  0000              extern rb:byte
  47  0000              extern rc:byte
  48  0000              extern rd:byte
  49  0000              extern re:byte
  50  0000              extern rf:byte
  51  0000              extern rg:byte
  52  0000              extern rh:byte
  53  0000              extern _Crom2Prom:near
  54  0000              extern _Crom2PromNext:near
  55  0000              
  56  0000              RAMBANK 0 @BITDATASEC, @BITDATASEC1
  57  0000              @HCCINIT	.section 'data'
  58  0000              @HCCINIT0	.section 'data'
  59  0000              @BITDATASEC	 .section 'data'
"File: Buzzer.ASM    Assembler  Version HGASM0202      Page 2

  60  0000              @BITDATASEC1	 .section 'data'
  61  0000              
  62  0000              #pragma debug scope 1 1
  63  0000              	extern __DELAY3:near
  64  0000              	extern __DELAYX3:near
  65  0000              	extern __DELAYX6:near
  66  0000              	extern __DELAYY5:near
  67  0000              	extern __DELAYY3:near
  68  0000              	extern _builtin_holtek_delay_2:byte
  69  0000              ___tm0al equ [98]
  70  0000              ___tm0ah equ [99]
  71  0000              ___mfi0 equ [52]
  72  0000              ___tm0c0 equ [94]
  73  0000              ___pa equ [18]
  74  0000              ___intc0 equ [48]
  75  0000              public _ISR_ExtINT0
  76  0000              #pragma debug scope 2 1

  56  0000              #line 56 "C:\Users\YVTC\Desktop\單晶片微控制器(一)\0424\Buzzer.c"
  56  0000              rombank 0 @ISR_ExtINT0_code
  56  0000              @ISR_ExtINT0_code .section at 4 'code'
  56  0000  0080     E  	mov r1,a
  56  0001  070B        	mov a,bp
  56  0002  1F0B        	clr bp
  56  0003  2800     R  	jmp _ISR_ExtINT0
  56  0004              ROMBANK 0 _ISR_ExtINT0
  56  0004              #pragma debug scope 1 1
  56  0004              @dummy4 endp
  56  0004              #pragma debug scope 3 1
  56  0000              _ISR_ExtINT0 .section 'code'
  56  0000              _ISR_ExtINT0 proc
  56  0000  0080     E  	mov r2,a
  56  0001  070A        	mov a, status
  56  0002  0080     E  	mov r3,a
  57  0003              #line 57 "C:\Users\YVTC\Desktop\單晶片微控制器(一)\0424\Buzzer.c"
  57  0003  0FD0        	mov a,208
  57  0004  00E2        	mov [98],a
  57  0005  1F63        	clr [99]
  58  0006              #line 58 "C:\Users\YVTC\Desktop\單晶片微控制器(一)\0424\Buzzer.c"
  58  0006  36B4        	clr [52].5
  58  0007  31DE        	set [94].3
  59  0008              #line 59 "C:\Users\YVTC\Desktop\單晶片微控制器(一)\0424\Buzzer.c"
  59  0008  1F00     R  	clr _RxData[0]
  59  0009              _L3:
  60  0009              #line 60 "C:\Users\YVTC\Desktop\單晶片微控制器(一)\0424\Buzzer.c"
  60  0009  3AB4        	snz [52].5
  60  000A  2800     R  	jmp _L3
  61  000B              #line 61 "C:\Users\YVTC\Desktop\單晶片微控制器(一)\0424\Buzzer.c"
  61  000B  0FA0        	mov a,160
  61  000C  00E2        	mov [98],a
  61  000D  0F01        	mov a,1
  61  000E  00E3        	mov [99],a
  61  000F  1F00     E  	clr rb
  56  0010              #line 56 "C:\Users\YVTC\Desktop\單晶片微控制器(一)\0424\Buzzer.c"
  56  0010  0F01        	mov a,1
  56  0011  0080     E  	mov ra,a
  56  0012              _L8:
  63  0012              #line 63 "C:\Users\YVTC\Desktop\單晶片微控制器(一)\0424\Buzzer.c"
  63  0012  36B4        	clr [52].5
  63  0013              _L5:
"File: Buzzer.c      Assembler  Version HGASM0202      Page 3

  64  0013              #line 64 "C:\Users\YVTC\Desktop\單晶片微控制器(一)\0424\Buzzer.c"
  64  0013  3AB4        	snz [52].5
  64  0014  2800     R  	jmp _L5
  65  0015              #line 65 "C:\Users\YVTC\Desktop\單晶片微控制器(一)\0424\Buzzer.c"
  65  0015  3992        	snz [18].3
  65  0016  2800     R  	jmp _L6
  65  0017  0700     E  	mov a,ra
  65  0018  0580     R  	orm a,_RxData[0]
  65  0019              _L6:
  66  0019              #line 66 "C:\Users\YVTC\Desktop\單晶片微控制器(一)\0424\Buzzer.c"
  66  0019  0700     E  	mov a,ra
  66  001A  0380     E  	addm a,ra
  66  001B  1480     E  	inc rb
  67  001C              #line 67 "C:\Users\YVTC\Desktop\單晶片微控制器(一)\0424\Buzzer.c"
  67  001C  0700     E  	mov a,rb
  67  001D  0A08        	sub a,8
  67  001E  390A        	snz z
  67  001F  2800     R  	jmp _L8
  68  0020              #line 68 "C:\Users\YVTC\Desktop\單晶片微控制器(一)\0424\Buzzer.c"
  68  0020  35DE        	clr [94].3
  69  0021              #line 69 "C:\Users\YVTC\Desktop\單晶片微控制器(一)\0424\Buzzer.c"
  69  0021  0F01        	mov a,1
  69  0022  0080     R  	mov _b_RX[0],a
  70  0023              #line 70 "C:\Users\YVTC\Desktop\單晶片微控制器(一)\0424\Buzzer.c"
  70  0023  3630        	clr [48].4
  70  0024  0700     E  	mov a,r2
  70  0025  008B        	mov bp,a
  70  0026  0700     E  	mov a,r3
  70  0027  008A        	mov status,a
  70  0028  0700     E  	mov a,r1
  70  0029  0004        	reti
  70  002A              _ISR_ExtINT0 endp
  70  002A              
  70  002A              #line 70 "C:\Users\YVTC\Desktop\單晶片微控制器(一)\0424\Buzzer.c"
  70  002A              #pragma debug scope 1 1
  70  002A              public _UARTTXData
  70  002A              #pragma debug scope 4 1
  73  002A              #line 73 "C:\Users\YVTC\Desktop\單晶片微控制器(一)\0424\Buzzer.c"
  73  0000              _UARTTXData .section 'code'
  73  0000              _UARTTXData proc
  73  0000  00              local _UARTTXData_2 db 1 dup(?)	; 0,1
  73  0000  0080     R  	mov _UARTTXData_2[0],a
  73  0001              #pragma debug variable 8 4 _UARTTXData_2+0 "data"
  74  0001              #line 74 "C:\Users\YVTC\Desktop\單晶片微控制器(一)\0424\Buzzer.c"
  74  0001  0FA0        	mov a,160
  74  0002  00E2        	mov [98],a
  74  0003  0F01        	mov a,1
  74  0004  00E3        	mov [99],a
  75  0005              #line 75 "C:\Users\YVTC\Desktop\單晶片微控制器(一)\0424\Buzzer.c"
  75  0005  36B4        	clr [52].5
  76  0006              #line 76 "C:\Users\YVTC\Desktop\單晶片微控制器(一)\0424\Buzzer.c"
  76  0006  3492        	clr [18].1
  77  0007              #line 77 "C:\Users\YVTC\Desktop\單晶片微控制器(一)\0424\Buzzer.c"
  77  0007  31DE        	set [94].3
  77  0008              _L15:
  78  0008              #line 78 "C:\Users\YVTC\Desktop\單晶片微控制器(一)\0424\Buzzer.c"
  78  0008  3AB4        	snz [52].5
  78  0009  2800     R  	jmp _L15
  79  000A              #line 79 "C:\Users\YVTC\Desktop\單晶片微控制器(一)\0424\Buzzer.c"
  79  000A  36B4        	clr [52].5
"File: Buzzer.c      Assembler  Version HGASM0202      Page 4

  79  000B  1F00     E  	clr rb
  73  000C              #line 73 "C:\Users\YVTC\Desktop\單晶片微控制器(一)\0424\Buzzer.c"
  73  000C  0F01        	mov a,1
  73  000D  0080     E  	mov ra,a
  73  000E              _L21:
  81  000E              #line 81 "C:\Users\YVTC\Desktop\單晶片微控制器(一)\0424\Buzzer.c"
  81  000E  0700     E  	mov a,ra
  81  000F  0600     R  	and a,_UARTTXData_2[0]
  81  0010  0080     E  	mov rc,a
  81  0011  1E00     E  	snz rc
  81  0012  2800     R  	jmp _L16
  81  0013  3092        	set [18].1
  81  0014  2800     R  	jmp _L19
  81  0015              _L16:
  81  0015  3492        	clr [18].1
  81  0016              _L19:
  82  0016              #line 82 "C:\Users\YVTC\Desktop\單晶片微控制器(一)\0424\Buzzer.c"
  82  0016  3AB4        	snz [52].5
  82  0017  2800     R  	jmp _L19
  83  0018              #line 83 "C:\Users\YVTC\Desktop\單晶片微控制器(一)\0424\Buzzer.c"
  83  0018  36B4        	clr [52].5
  84  0019              #line 84 "C:\Users\YVTC\Desktop\單晶片微控制器(一)\0424\Buzzer.c"
  84  0019  0700     E  	mov a,ra
  84  001A  0380     E  	addm a,ra
  84  001B  1480     E  	inc rb
  85  001C              #line 85 "C:\Users\YVTC\Desktop\單晶片微控制器(一)\0424\Buzzer.c"
  85  001C  0700     E  	mov a,rb
  85  001D  0A08        	sub a,8
  85  001E  390A        	snz z
  85  001F  2800     R  	jmp _L21
  86  0020              #line 86 "C:\Users\YVTC\Desktop\單晶片微控制器(一)\0424\Buzzer.c"
  86  0020  3092        	set [18].1
  86  0021              _L23:
  87  0021              #line 87 "C:\Users\YVTC\Desktop\單晶片微控制器(一)\0424\Buzzer.c"
  87  0021  3AB4        	snz [52].5
  87  0022  2800     R  	jmp _L23
  88  0023              #line 88 "C:\Users\YVTC\Desktop\單晶片微控制器(一)\0424\Buzzer.c"
  88  0023  35DE        	clr [94].3
  88  0024  0003        	ret
  88  0025              _UARTTXData endp
  88  0025              #line 88 "C:\Users\YVTC\Desktop\單晶片微控制器(一)\0424\Buzzer.c"
  88  0025              #pragma debug scope 1 1
  88  0025              ___pec equ [35]
  88  0025              ___pepu equ [33]
  88  0025              ___pe equ [34]
  88  0025              public _ScanKey
  88  0025              #pragma debug scope 5 1
  91  0025              #line 91 "C:\Users\YVTC\Desktop\單晶片微控制器(一)\0424\Buzzer.c"
  91  0000              _ScanKey .section 'code'
  91  0000              _ScanKey proc
  92  0000              #line 92 "C:\Users\YVTC\Desktop\單晶片微控制器(一)\0424\Buzzer.c"
  92  0000  0FF0        	mov a,240
  92  0001  00A3        	mov [35],a
  92  0002  0FF0        	mov a,240
  92  0003  00A1        	mov [33],a
  93  0004              #line 93 "C:\Users\YVTC\Desktop\單晶片微控制器(一)\0424\Buzzer.c"
  93  0004  0FFE        	mov a,254
  93  0005  00A2        	mov [34],a
  91  0006              #line 91 "C:\Users\YVTC\Desktop\單晶片微控制器(一)\0424\Buzzer.c"
  91  0006  1F00     E  	clr ra
"File: Buzzer.c      Assembler  Version HGASM0202      Page 5

  91  0007              _L29:
  95  0007              #line 95 "C:\Users\YVTC\Desktop\單晶片微控制器(一)\0424\Buzzer.c"
  95  0007  3BA2        	snz [34].7
  95  0008  2800     R  	jmp _L25
  97  0009              #line 97 "C:\Users\YVTC\Desktop\單晶片微控制器(一)\0424\Buzzer.c"
  97  0009  3F22        	sz [34].6
  97  000A  2800     R  	jmp _L26
  96  000B              #line 96 "C:\Users\YVTC\Desktop\單晶片微控制器(一)\0424\Buzzer.c"
  96  000B  1480     E  	inc ra
  96  000C  2800     R  	jmp _L25
  96  000D              _L26:
  99  000D              #line 99 "C:\Users\YVTC\Desktop\單晶片微控制器(一)\0424\Buzzer.c"
  99  000D  3EA2        	sz [34].5
  99  000E  2800     R  	jmp _L27
  98  000F              #line 98 "C:\Users\YVTC\Desktop\單晶片微控制器(一)\0424\Buzzer.c"
  98  000F  0F02        	mov a,2
  98  0010  0380     E  	addm a,ra
  98  0011  2800     R  	jmp _L25
  98  0012              _L27:
 101  0012              #line 101 "C:\Users\YVTC\Desktop\單晶片微控制器(一)\0424\Buzzer.c"
 101  0012  3E22        	sz [34].4
 101  0013  2800     R  	jmp _L28
 100  0014              #line 100 "C:\Users\YVTC\Desktop\單晶片微控制器(一)\0424\Buzzer.c"
 100  0014  0F03        	mov a,3
 100  0015  0380     E  	addm a,ra
 100  0016  2800     R  	jmp _L25
 100  0017              _L28:
 102  0017              #line 102 "C:\Users\YVTC\Desktop\單晶片微控制器(一)\0424\Buzzer.c"
 102  0017  0F04        	mov a,4
 102  0018  0380     E  	addm a,ra
 103  0019              #line 103 "C:\Users\YVTC\Desktop\單晶片微控制器(一)\0424\Buzzer.c"
 103  0019  0722        	mov a,[34]
 103  001A  03A2        	addm a,[34]
 103  001B  3022        	set [34].0
  94  001C              #line 94 "C:\Users\YVTC\Desktop\單晶片微控制器(一)\0424\Buzzer.c"
  94  001C  0700     E  	mov a,ra
  94  001D  0A10        	sub a,16
  94  001E  390A        	snz z
  94  001F  2800     R  	jmp _L29
  94  0020              _L25:
 106  0020              #line 106 "C:\Users\YVTC\Desktop\單晶片微控制器(一)\0424\Buzzer.c"
 106  0020  0700     E  	mov a,ra
 106  0021  0003        	ret
 106  0022              _ScanKey endp
 106  0022              #line 106 "C:\Users\YVTC\Desktop\單晶片微控制器(一)\0424\Buzzer.c"
 106  0022              #pragma debug scope 1 1
 106  0022              public _Delayms
 106  0022              #pragma debug scope 6 1
 108  0022              #line 108 "C:\Users\YVTC\Desktop\單晶片微控制器(一)\0424\Buzzer.c"
 108  0000              _Delayms .section 'code'
 108  0000              _Delayms proc
 108  0000              public _Delayms_2
 108  0000  0002[           local _Delayms_2 db 2 dup(?)	; 2,0
            00
            ]
 108  0002              #pragma debug variable 10 6 _Delayms_2+0 "del"
 109  0002              #line 109 "C:\Users\YVTC\Desktop\單晶片微控制器(一)\0424\Buzzer.c"
 109  0000  1F00     E  	clr rb
 109  0001  1F00     E  	clr rc
 109  0002  2800     R  	jmp _L34
"File: Buzzer.c      Assembler  Version HGASM0202      Page 6

 109  0003              _L35:
 109  0003              #line 109 "C:\Users\YVTC\Desktop\單晶片微控制器(一)\0424\Buzzer.c"
 109  0003              ;# 109 "C:\Users\YVTC\Desktop\單晶片微控制器(一)\0424\Buzzer.c" 1
 109  0003              	IF 2000>263690
 109  0003              ;# 109 "C:\Users\YVTC\Desktop\單晶片微控制器(一)\0424\Buzzer.c" 1
 109  0003              	ERRMESSAGE 'the value 2000of the argument exceeds the maxinum 263690'
 109  0003              	ENDIF
 109  0003              ;# 109 "C:\Users\YVTC\Desktop\單晶片微控制器(一)\0424\Buzzer.c" 1
 109  0003              	IF 2000<0
 109  0003              ;# 109 "C:\Users\YVTC\Desktop\單晶片微控制器(一)\0424\Buzzer.c" 1
 109  0003              	ERRMESSAGE 'the value 2000 of the argument exceeds the mininum 0'
 109  0003              	ENDIF
 109  0003              ;# 109 "C:\Users\YVTC\Desktop\單晶片微控制器(一)\0424\Buzzer.c" 1
 109  0003              	IF 2000==0
 109  0003              ;# 109 "C:\Users\YVTC\Desktop\單晶片微控制器(一)\0424\Buzzer.c" 1
 109  0003              	JMP $
 109  0003              	ENDIF
 109  0003              ;# 109 "C:\Users\YVTC\Desktop\單晶片微控制器(一)\0424\Buzzer.c" 1
 109  0003              	IF (2000>=1) AND (2000<( 4 + __PBP__ * 2))
 109  0003              ;# 109 "C:\Users\YVTC\Desktop\單晶片微控制器(一)\0424\Buzzer.c" 1
 109  0003              	NOP
 109  0003              	ENDIF
 109  0003              ;# 109 "C:\Users\YVTC\Desktop\單晶片微控制器(一)\0424\Buzzer.c" 1
 109  0003              	IF (2000>=2) AND (2000<( 4 + __PBP__ * 2))
 109  0003              ;# 109 "C:\Users\YVTC\Desktop\單晶片微控制器(一)\0424\Buzzer.c" 1
 109  0003              	NOP
 109  0003              	ENDIF
 109  0003              ;# 109 "C:\Users\YVTC\Desktop\單晶片微控制器(一)\0424\Buzzer.c" 1
 109  0003              	IF (2000>=3) AND (2000<( 4 + __PBP__ * 2))
 109  0003              ;# 109 "C:\Users\YVTC\Desktop\單晶片微控制器(一)\0424\Buzzer.c" 1
 109  0003              	NOP
 109  0003              	ENDIF
 109  0003              ;# 109 "C:\Users\YVTC\Desktop\單晶片微控制器(一)\0424\Buzzer.c" 1
 109  0003              	IF (2000>=4) AND (2000<( 4 + __PBP__ * 2)) AND ( __PBP__ > 0 )
 109  0003              ;# 109 "C:\Users\YVTC\Desktop\單晶片微控制器(一)\0424\Buzzer.c" 1
 109  0003              	NOP
 109  0003              	ENDIF
 109  0003              ;# 109 "C:\Users\YVTC\Desktop\單晶片微控制器(一)\0424\Buzzer.c" 1
 109  0003              	IF (2000>=5) AND (2000<( 4 + __PBP__ * 2)) AND ( __PBP__ > 0 )
 109  0003              ;# 109 "C:\Users\YVTC\Desktop\單晶片微控制器(一)\0424\Buzzer.c" 1
 109  0003              	NOP
 109  0003              	ENDIF
 109  0003              ;# 109 "C:\Users\YVTC\Desktop\單晶片微控制器(一)\0424\Buzzer.c" 1
 109  0003              	IF (2000>=6) AND (2000<( 4 + __PBP__ * 2))  AND ( __PBP__ > 1 )
 109  0003              ;# 109 "C:\Users\YVTC\Desktop\單晶片微控制器(一)\0424\Buzzer.c" 1
 109  0003              	NOP
 109  0003              	ENDIF
 109  0003              ;# 109 "C:\Users\YVTC\Desktop\單晶片微控制器(一)\0424\Buzzer.c" 1
 109  0003              	IF (2000>=7) AND (2000<( 4 + __PBP__ * 2))  AND ( __PBP__ > 1 )
 109  0003              ;# 109 "C:\Users\YVTC\Desktop\單晶片微控制器(一)\0424\Buzzer.c" 1
 109  0003              	NOP
 109  0003              	ENDIF
 109  0003              ;# 109 "C:\Users\YVTC\Desktop\單晶片微控制器(一)\0424\Buzzer.c" 1
 109  0003              	IF (2000>=8) AND (2000<( 4 + __PBP__ * 2))  AND ( __PBP__ > 2 )
 109  0003              ;# 109 "C:\Users\YVTC\Desktop\單晶片微控制器(一)\0424\Buzzer.c" 1
 109  0003              	NOP
 109  0003              	ENDIF
 109  0003              ;# 109 "C:\Users\YVTC\Desktop\單晶片微控制器(一)\0424\Buzzer.c" 1
 109  0003              	IF (2000==9)  AND ( __PBP__ > 2 )
 109  0003              ;# 109 "C:\Users\YVTC\Desktop\單晶片微控制器(一)\0424\Buzzer.c" 1
"File: Buzzer.c      Assembler  Version HGASM0202      Page 7

 109  0003              	NOP
 109  0003              	ENDIF
 109  0003              ;# 109 "C:\Users\YVTC\Desktop\單晶片微控制器(一)\0424\Buzzer.c" 1
 109  0003              	IF (2000< ( 8 + __PBP__ * 2)) AND (2000>( 3 + __PBP__ * 2))
 109  0003              ;# 109 "C:\Users\YVTC\Desktop\單晶片微控制器(一)\0424\Buzzer.c" 1
 109  0003              	fcall __DELAY3 + ( 7 + __PBP__ * 2) -2000
 109  0003              	ENDIF
 109  0003              ;# 109 "C:\Users\YVTC\Desktop\單晶片微控制器(一)\0424\Buzzer.c" 1
 109  0003              	IF (2000< ( 0404h + __PBP__ * 2)) AND (2000>( 7 + __PBP__ * 2))
 109  0003              ;# 109 "C:\Users\YVTC\Desktop\單晶片微控制器(一)\0424\Buzzer.c" 1
 109  0003              	MOV A,(2000-( 4 + __PBP__ * 2))/4
 109  0003              ;# 109 "C:\Users\YVTC\Desktop\單晶片微控制器(一)\0424\Buzzer.c" 1
 109  0003              	fcall __DELAYX3 + 3 -((2000-( 4 + __PBP__ * 2)) MOD 4) 
 109  0003              	ENDIF
 109  0003              ;# 109 "C:\Users\YVTC\Desktop\單晶片微控制器(一)\0424\Buzzer.c" 1
 109  0003              	IF (2000< ( 040bh + __PBP__ * 2)) AND (2000> ( 0403h + __PBP__ * 2))
 109  0003              ;# 109 "C:\Users\YVTC\Desktop\單晶片微控制器(一)\0424\Buzzer.c" 1
 109  0003              	MOV A,0 
 109  0003              ;# 109 "C:\Users\YVTC\Desktop\單晶片微控制器(一)\0424\Buzzer.c" 1
 109  0003              	fcall __DELAYX6 + ( 040ah + __PBP__ * 2) -2000
 109  0003              	ENDIF
 109  0003              ;# 109 "C:\Users\YVTC\Desktop\單晶片微控制器(一)\0424\Buzzer.c" 1
 109  0003              	IF (2000 >= ( 040bh + __PBP__ * 2)) AND ((((2000-( 9 + __PBP__ * 2))%0402h)/4+1)>256)
 109  0003              ;# 109 "C:\Users\YVTC\Desktop\單晶片微控制器(一)\0424\Buzzer.c" 1
 109  0003              	MOV A,(2000-( 9 + __PBP__ * 2))/0402h
 109  0003              ;# 109 "C:\Users\YVTC\Desktop\單晶片微控制器(一)\0424\Buzzer.c" 1
 109  0003              	MOV _builtin_holtek_delay_2,A
 109  0003              ;# 109 "C:\Users\YVTC\Desktop\單晶片微控制器(一)\0424\Buzzer.c" 1
 109  0003              	MOV A,0
 109  0003              ;# 109 "C:\Users\YVTC\Desktop\單晶片微控制器(一)\0424\Buzzer.c" 1
 109  0003              	fcall __DELAYY5 +5- (((2000-( 9 + __PBP__ * 2))%0402h)%6) 
 109  0003              	ENDIF
 109  0003              ;# 109 "C:\Users\YVTC\Desktop\單晶片微控制器(一)\0424\Buzzer.c" 1
 109  0003              	IF (2000 >= ( 040bh + __PBP__ * 2)) AND ((((2000-( 9 + __PBP__ * 2))%0402h)/4+1)<=256)
 109  0003              ;# 109 "C:\Users\YVTC\Desktop\單晶片微控制器(一)\0424\Buzzer.c" 1
 109  0003  0F01        	MOV A,(2000-( 9 + __PBP__ * 2))/0402h
 109  0004              ;# 109 "C:\Users\YVTC\Desktop\單晶片微控制器(一)\0424\Buzzer.c" 1
 109  0004  0080     E  	MOV _builtin_holtek_delay_2,A
 109  0005              ;# 109 "C:\Users\YVTC\Desktop\單晶片微控制器(一)\0424\Buzzer.c" 1
 109  0005  0FF1        	MOV A,((2000-( 9 + __PBP__ * 2))%0402h)/4+1
 109  0006              ;# 109 "C:\Users\YVTC\Desktop\單晶片微控制器(一)\0424\Buzzer.c" 1
 109  0006              	fcall __DELAYY3 +3-(((2000-( 9 + __PBP__ * 2))%0402h)%4) 
 109  000D              	ENDIF
 109  000D  1480     E  	inc rb
 109  000E  3D0A        	sz z
 109  000F  1480     E  	inc rc
 109  0010              _L34:
 109  0010  0700     E  	mov a,rb
 109  0011  0200     R  	sub a,_Delayms_2[0]
 109  0012  0700     E  	mov a,rc
 109  0013  1200     R  	sbc a,_Delayms_2[1]
 109  0014  3B0A        	snz cz
 109  0015  2800     R  	jmp _L35
 109  0016  0003        	ret
 109  0017              _Delayms endp
 109  0017              #line 109 "C:\Users\YVTC\Desktop\單晶片微控制器(一)\0424\Buzzer.c"
 109  0017              #pragma debug scope 1 1
 109  0017              ___wdtc equ [62]
 109  0017              ___pac equ [19]
 109  0017              ___pcs2 equ [362]
"File: Buzzer.c      Assembler  Version HGASM0202      Page 8

 109  0017              ___tm2c0 equ [81]
 109  0017              ___tm2c1 equ [82]
 109  0017              ___integ equ [57]
 109  0017              ___ifs0 equ [328]
 109  0017              ___tm0c1 equ [95]
 109  0017              ___tm2al equ [85]
 109  0017              ___tm2ah equ [86]
 109  0017              public _main
 109  0017              #pragma debug scope 7 1
  28  0017              #line 28 "C:\Users\YVTC\Desktop\單晶片微控制器(一)\0424\Buzzer.c"
  28  0017              IFDEF WITH_DEFAULT_STARTUP
  28  0017              extern _main_initial0:near
  28  0017              extern _main_startup:near
  28  0017              ENDIF
  28  0017              
  28  0017              ROMBANK 0 @start
  28  0000              @start .section com_l 'code'
  28  0000              _main_startup1:
  28  0000              @start .section com_e 'code'
  28  0000  0F00     R  	mov a,bank _main
  28  0001  008B        	mov bp,a
  28  0002  2800     R  	jmp _main
  28  0003              
  28  0000              _main .section 'code'
  28  0000              _main proc
  28  0000  00              local _main_2 db 1 dup(?)
  29  0001              #line 29 "C:\Users\YVTC\Desktop\單晶片微控制器(一)\0424\Buzzer.c"
  29  0000  0FAF        	mov a,175
  29  0001  00BE        	mov [62],a
  30  0002              #line 30 "C:\Users\YVTC\Desktop\單晶片微控制器(一)\0424\Buzzer.c"
  30  0002  3193        	set [19].3
  30  0003  3092        	set [18].1
  30  0004  3493        	clr [19].1
  31  0005              #line 31 "C:\Users\YVTC\Desktop\單晶片微控制器(一)\0424\Buzzer.c"
  31  0005  0F01        	mov a,1
  31  0006  80EA 0001   	lmov [362],a
  32  0008              #line 32 "C:\Users\YVTC\Desktop\單晶片微控制器(一)\0424\Buzzer.c"
  32  0008  1F51        	clr [81]
  32  0009  0F31        	mov a,49
  32  000A  00D2        	mov [82],a
  33  000B              #line 33 "C:\Users\YVTC\Desktop\單晶片微控制器(一)\0424\Buzzer.c"
  33  000B  0F02        	mov a,2
  33  000C  00B9        	mov [57],a
  34  000D              #line 34 "C:\Users\YVTC\Desktop\單晶片微控制器(一)\0424\Buzzer.c"
  34  000D  9F48 0001   	lclr [328]
  35  000F              #line 35 "C:\Users\YVTC\Desktop\單晶片微控制器(一)\0424\Buzzer.c"
  35  000F  0F10        	mov a,16
  35  0010  00DE        	mov [94],a
  36  0011              #line 36 "C:\Users\YVTC\Desktop\單晶片微控制器(一)\0424\Buzzer.c"
  36  0011  0FC1        	mov a,193
  36  0012  00DF        	mov [95],a
  37  0013              #line 37 "C:\Users\YVTC\Desktop\單晶片微控制器(一)\0424\Buzzer.c"
  37  0013  30B0        	set [48].1
  37  0014  3030        	set [48].0
  37  0015              _L40:
  39  0015              #line 39 "C:\Users\YVTC\Desktop\單晶片微控制器(一)\0424\Buzzer.c"
  39  0015  1E00     R  	snz _b_RX[0]
  39  0016  2800     R  	jmp _L37
  40  0017              #line 40 "C:\Users\YVTC\Desktop\單晶片微控制器(一)\0424\Buzzer.c"
  40  0017  1F00     R  	clr _b_RX[0]
"File: Buzzer.c      Assembler  Version HGASM0202      Page 9

  41  0018              #line 41 "C:\Users\YVTC\Desktop\單晶片微控制器(一)\0424\Buzzer.c"
  41  0018  0700     R  	mov a,_RxData[0]
  41  0019  0080     E  	mov rb,a
  41  001A  0F40        	mov a,64
  41  001B  0200     R  	sub a,_RxData[0]
  41  001C  380A        	snz c
  41  001D  2800     R  	jmp _L43
  41  001E  0F30        	mov a,48
  41  001F  0080     E  	mov ra,a
  41  0020  2800     R  	jmp _L38
  41  0021              _L43:
  41  0021  0F37        	mov a,55
  41  0022  0080     E  	mov ra,a
  41  0023              _L38:
  41  0023  0700     E  	mov a,rb
  41  0024  0200     E  	sub a,ra
  41  0025  0080     R  	mov _RxData[0],a
  42  0026              #line 42 "C:\Users\YVTC\Desktop\單晶片微控制器(一)\0424\Buzzer.c"
  42  0026  0700     R  	mov a,_RxData[0]
  42  0027  0080     E  	mov rb,a
  42  0028  1F00     E  	clr rc
  42  0029  340A        	clr c
  42  002A  1A80     E  	rlc rb
  42  002B  1A80     E  	rlc rc
  42  002C  0F00     R  	mov a,low offset _Pitch_TAB
  42  002D  0300     E  	add a,rb
  42  002E  0083        	mov mp,a
  42  002F  0F00     R  	mov a,high offset _Pitch_TAB
  42  0030  1300     E  	adc a,rc
  42  0031  0084        	mov sbp,a
  42  0032              	fcall _Crom2Prom
  42  0039  00D5        	mov [85],a
  43  003A              #line 43 "C:\Users\YVTC\Desktop\單晶片微控制器(一)\0424\Buzzer.c"
  43  003A  0700     R  	mov a,_RxData[0]
  43  003B  0080     E  	mov rb,a
  43  003C  1F00     E  	clr rc
  43  003D  340A        	clr c
  43  003E  1A80     E  	rlc rb
  43  003F  1A80     E  	rlc rc
  43  0040  0F00     R  	mov a,low offset _Pitch_TAB
  43  0041  0300     E  	add a,rb
  43  0042  0083        	mov mp,a
  43  0043  0F00     R  	mov a,high offset _Pitch_TAB
  43  0044  1300     E  	adc a,rc
  43  0045  0084        	mov sbp,a
  43  0046              	fcall _Crom2Prom
  43  004D  0080     E  	mov rb,a
  43  004E              	fcall _Crom2PromNext
  43  0055  0080     E  	mov rc,a
  43  0056  0700     E  	mov a,rc
  43  0057  00D6        	mov [86],a
  44  0058              #line 44 "C:\Users\YVTC\Desktop\單晶片微控制器(一)\0424\Buzzer.c"
  44  0058  31D1        	set [81].3
  45  0059              #line 45 "C:\Users\YVTC\Desktop\單晶片微控制器(一)\0424\Buzzer.c"
  45  0059  0FFA        	mov a,-6
  45  005A  0080     R  	mov _Delayms_2[0],a
  45  005B  1F00     R  	clr _Delayms_2[1]
  45  005C              	fcall _Delayms
  45  0063  35D1        	clr [81].3
  45  0064              _L37:
"File: Buzzer.c      Assembler  Version HGASM0202      Page 10

  47  0064              #line 47 "C:\Users\YVTC\Desktop\單晶片微控制器(一)\0424\Buzzer.c"
  47  0064              	fcall _ScanKey
  47  006B  0080     R  	mov _main_2[0],a
  48  006C              #line 48 "C:\Users\YVTC\Desktop\單晶片微控制器(一)\0424\Buzzer.c"
  48  006C  0700     R  	mov a,_main_2[0]
  48  006D  0A10        	sub a,16
  48  006E  3D0A        	sz z
  48  006F  2800     R  	jmp _L40
  49  0070              #line 49 "C:\Users\YVTC\Desktop\單晶片微控制器(一)\0424\Buzzer.c"
  49  0070  0F09        	mov a,9
  49  0071  0200     R  	sub a,_main_2[0]
  49  0072  380A        	snz c
  49  0073  2800     R  	jmp _L44
  49  0074  0F30        	mov a,48
  49  0075  0080     E  	mov ra,a
  49  0076  2800     R  	jmp _L41
  49  0077              _L44:
  49  0077  0F37        	mov a,55
  49  0078  0080     E  	mov ra,a
  49  0079              _L41:
  49  0079  0700     R  	mov a,_main_2[0]
  49  007A  0380     E  	addm a,ra
  50  007B              #line 50 "C:\Users\YVTC\Desktop\單晶片微控制器(一)\0424\Buzzer.c"
  50  007B  0700     E  	mov a,ra
  50  007C              	fcall _UARTTXData
  51  0083              #line 51 "C:\Users\YVTC\Desktop\單晶片微控制器(一)\0424\Buzzer.c"
  51  0083  0FFA        	mov a,-6
  51  0084  0080     R  	mov _Delayms_2[0],a
  51  0085  1F00     R  	clr _Delayms_2[1]
  51  0086              	fcall _Delayms
  51  008D  2800     R  	jmp _L40
  51  008E  2800     R  	jmp $
  51  008F              _main endp
  51  008F              
  51  008F              @dummy endp
  51  008F              
  51  008F              #line 51 "C:\Users\YVTC\Desktop\單晶片微控制器(一)\0424\Buzzer.c"
  51  008F              #pragma debug scope 1 1
  51  008F              public _b_RX
  51  0000              @HCCINIT	.section 'data'
  26  0000              #line 26 "C:\Users\YVTC\Desktop\單晶片微控制器(一)\0424\Buzzer.c"
  26  0000              @HCCINIT_b_RX .section 'data'
  26  0000              _b_RX label byte
  26  0000              #pragma debug variable 8 1 _b_RX "b_RX"
  26  0000              	db 0
  26  0000              @ROMDATA_BASE .section inpage 'code'
  26  0000              	db 0
  26  0001              @HCCINIT_b_RX .section 'data'
  25  0001              #line 25 "C:\Users\YVTC\Desktop\單晶片微控制器(一)\0424\Buzzer.c"
  25  0001              public _RxData
  25  0000              @HCCINIT0_RxData .section 'data'
  25  0000              _RxData	db 0
  25  0001              #pragma debug variable 8 1 _RxData "RxData"
  25  0001              
  25  0000              @HCCINIT .section 'data'
  25  0000              public _Pitch_TAB
  25  0000              @crom	.section 'crom'
  15  0000              #line 15 "C:\Users\YVTC\Desktop\單晶片微控制器(一)\0424\Buzzer.c"
  15  0000              @crom	.section	'crom'
  15  0000              _Pitch_TAB:
"File: Buzzer.c      Assembler  Version HGASM0202      Page 11

  15  0000              #pragma debug array 42 12 16 1
  15  0000              #pragma debug array 42 12 16 1
  15  0000              #pragma debug variable 42 1 _Pitch_TAB "Pitch_TAB"
  15  0000  0778        	dc 1912
  15  0001  06A7        	dc 1703
  15  0002  05ED        	dc 1517
  15  0003  0598        	dc 1432
  15  0004  04F9        	dc 1273
  15  0005  0470        	dc 1136
  15  0006  03EA        	dc 1002
  15  0007  03BC        	dc 956
  15  0008  0353        	dc 851
  15  0009  02F6        	dc 758
  15  000A  02CC        	dc 716
  15  000B  027C        	dc 636
  15  000C  0238        	dc 568
  15  000D  01F5        	dc 501
  15  000E  01DE        	dc 478
  15  000F  01A9        	dc 425
  15  0010              #pragma debug struct_end
  15  0010              #pragma debug struct_end
  15  0010              #pragma debug union_end
  15  0010              #pragma debug union_end
  15  0010              #pragma debug variable 44 1 ___pa "__pa" 1
  15  0010              #pragma debug struct_end
  15  0010              #pragma debug struct_end
  15  0010              #pragma debug union_end
  15  0010              #pragma debug union_end
  15  0010              #pragma debug variable 46 1 ___pac "__pac" 1
  15  0010              #pragma debug struct_end
  15  0010              #pragma debug struct_end
  15  0010              #pragma debug union_end
  15  0010              #pragma debug union_end
  15  0010              #pragma debug variable 48 1 ___pepu "__pepu" 1
  15  0010              #pragma debug struct_end
  15  0010              #pragma debug struct_end
  15  0010              #pragma debug union_end
  15  0010              #pragma debug union_end
  15  0010              #pragma debug variable 50 1 ___pe "__pe" 1
  15  0010              #pragma debug struct_end
  15  0010              #pragma debug struct_end
  15  0010              #pragma debug union_end
  15  0010              #pragma debug union_end
  15  0010              #pragma debug variable 52 1 ___pec "__pec" 1
  15  0010              #pragma debug struct_end
  15  0010              #pragma debug struct_end
  15  0010              #pragma debug union_end
  15  0010              #pragma debug union_end
  15  0010              #pragma debug variable 54 1 ___intc0 "__intc0" 1
  15  0010              #pragma debug struct_end
  15  0010              #pragma debug struct_end
  15  0010              #pragma debug union_end
  15  0010              #pragma debug union_end
  15  0010              #pragma debug variable 56 1 ___mfi0 "__mfi0" 1
  15  0010              #pragma debug struct_end
  15  0010              #pragma debug struct_end
  15  0010              #pragma debug union_end
  15  0010              #pragma debug union_end
  15  0010              #pragma debug variable 58 1 ___integ "__integ" 1
  15  0010              #pragma debug struct_end
"File: Buzzer.c      Assembler  Version HGASM0202      Page 12

  15  0010              #pragma debug struct_end
  15  0010              #pragma debug union_end
  15  0010              #pragma debug union_end
  15  0010              #pragma debug variable 60 1 ___wdtc "__wdtc" 1
  15  0010              #pragma debug struct_end
  15  0010              #pragma debug struct_end
  15  0010              #pragma debug union_end
  15  0010              #pragma debug union_end
  15  0010              #pragma debug variable 62 1 ___tm2c0 "__tm2c0" 1
  15  0010              #pragma debug struct_end
  15  0010              #pragma debug struct_end
  15  0010              #pragma debug union_end
  15  0010              #pragma debug union_end
  15  0010              #pragma debug variable 64 1 ___tm2c1 "__tm2c1" 1
  15  0010              #pragma debug variable 8 1 ___tm2al "__tm2al" 1
  15  0010              #pragma debug variable 8 1 ___tm2ah "__tm2ah" 1
  15  0010              #pragma debug struct_end
  15  0010              #pragma debug struct_end
  15  0010              #pragma debug union_end
  15  0010              #pragma debug union_end
  15  0010              #pragma debug variable 66 1 ___tm0c0 "__tm0c0" 1
  15  0010              #pragma debug struct_end
  15  0010              #pragma debug struct_end
  15  0010              #pragma debug union_end
  15  0010              #pragma debug union_end
  15  0010              #pragma debug variable 68 1 ___tm0c1 "__tm0c1" 1
  15  0010              #pragma debug variable 8 1 ___tm0al "__tm0al" 1
  15  0010              #pragma debug variable 8 1 ___tm0ah "__tm0ah" 1
  15  0010              #pragma debug struct_end
  15  0010              #pragma debug struct_end
  15  0010              #pragma debug union_end
  15  0010              #pragma debug union_end
  15  0010              #pragma debug variable 70 1 ___ifs0 "__ifs0" 1
  15  0010              #pragma debug struct_end
  15  0010              #pragma debug struct_end
  15  0010              #pragma debug union_end
  15  0010              #pragma debug union_end
  15  0010              #pragma debug variable 72 1 ___pcs2 "__pcs2" 1
  15  0010              extern r1:byte
  15  0010              extern r2:byte
  15  0010              extern r3:byte
  28  0010              #line 28 "C:\Users\YVTC\Desktop\單晶片微控制器(一)\0424\Buzzer.c"
  28  0000              @code .section at 0 'code'
  28  0000  1F0B        	clr bp
  28  0001  2800     R  	jmp _main_startup1
  28  0002              
  28  0002              
  28  0002              ; 
  28  0002              ; Generated by holtek-gcc v3.18, Tue Apr 24 14:27:48 2018
  28  0002              ; Rebuild 126
  28  0002              ; end of file


        0 Errors, 0