"File: combination lock.c  Assembler  Version HGASM0202      Page 1


   1  0000              ; Generated by holtek-gcc v3.18, Tue May 22 10:35:32 2018
   2  0000              ; 
   3  0000              ; Configuration:
   4  0000              ;       with long instruction
   5  0000              ;       Multi-ROM, Multi-RAM
   6  0000              ;       bits_per_rom_unit:16
   7  0000              ;       with mp1
   8  0000              ;       with tbhp, address(0x9)
   9  0000              ;          Use tabrd-const
  10  0000              ;       
  11  0000              ; SFR address of long-instruction arch:
  12  0000              ;    mp0 = -1,1,0
  13  0000              ;    mp1 = 4,3,2
  14  0000              ;    mp2 = 14,13,12
  15  0000              ;    tbp = 9,7,8
  16  0000              ;    acc = 5
  17  0000              ;    pcl = 6
  18  0000              ;    status = 10
  19  0000              ;    bp = 11
  20  0000              ;    intc = 48
  21  0000              ;       
  22  0000              ;       
  23  0000              ; use 'tabrdc' instead of 'tabrd'
  24  0000              ;       
  25  0000              
  26  0000              #pragma translator "holtek-gcc 4.6.4" "3.18" "build 20130711"
  27  0000              ; Rebuild 126
  28  0000              
  29  0000              ir equ [2]
  30  0000              mp equ [3]
  31  0000              sbp equ [4]
  32  0000              acc equ [5]
  33  0000              bp equ [11]
  34  0000              tblp equ [7]
  35  0000              tbhp equ [9]
  36  0000              status equ [10]
  37  0000              c equ [10].0
  38  0000              ac equ [10].1
  39  0000              z equ [10].2
  40  0000              ov equ [10].3
  41  0000              cz equ [10].6
  42  0000              sc equ [10].7
  43  0000              intc equ [48]
  44  0000              
  45  0000              extern ra:byte
  46  0000              extern rb:byte
  47  0000              extern rc:byte
  48  0000              extern rd:byte
  49  0000              extern re:byte
  50  0000              extern rf:byte
  51  0000              extern rg:byte
  52  0000              extern rh:byte
  53  0000              extern _Crom2Prom:near
  54  0000              extern _Crom2PromNext:near
  55  0000              
  56  0000              RAMBANK 0 @BITDATASEC, @BITDATASEC1
  57  0000              @HCCINIT	.section 'data'
  58  0000              @HCCINIT0	.section 'data'
  59  0000              @BITDATASEC	 .section 'data'
"File: combination lock.ASM  Assembler  Version HGASM0202      Page 2

  60  0000              @BITDATASEC1	 .section 'data'
  61  0000              
  62  0000              #pragma debug scope 1 1
  63  0000              	extern __DELAY3:near
  64  0000              	extern __DELAYX3:near
  65  0000              	extern __DELAYX6:near
  66  0000              	extern __DELAYY5:near
  67  0000              	extern __DELAYY3:near
  68  0000              	extern _builtin_holtek_delay_2:byte
  69  0000              ___eea equ [65]
  70  0000              ___mp1h equ [4]
  71  0000              ___mp1l equ [3]
  72  0000              ___iar1 equ [2]
  73  0000              ___eed equ [66]
  74  0000              public _Read4Byte
  75  0000              #pragma debug scope 2 1

 101  0000              #line 101 "C:\Users\YVTC\Desktop\單晶片微控制器(一)\0522\combination lock.c"
 101  0000              _Read4Byte .section 'code'
 101  0000              _Read4Byte proc
 101  0000              public _Read4Byte_2
 101  0000  0002[           local _Read4Byte_2 db 2 dup(?)	; 2,0
            00
            ]
 101  0002              #pragma debug pointer 42 8 2
 101  0002              #pragma debug pointer 42 8 2
 101  0002              #pragma debug variable 42 2 _Read4Byte_2+0 "ptr"
 101  0000  0700     R  	mov a,_Read4Byte_2[0]
 101  0001  0080     E  	mov rb,a
 101  0002  0700     R  	mov a,_Read4Byte_2[1]
 101  0003  0080     E  	mov rc,a
 102  0004              #line 102 "C:\Users\YVTC\Desktop\單晶片微控制器(一)\0522\combination lock.c"
 102  0004  1F00     E  	clr ra
 102  0005              _L5:
 103  0005              #line 103 "C:\Users\YVTC\Desktop\單晶片微控制器(一)\0522\combination lock.c"
 103  0005  0700     E  	mov a,ra
 103  0006  00C1        	mov [65],a
 104  0007              #line 104 "C:\Users\YVTC\Desktop\單晶片微控制器(一)\0522\combination lock.c"
 104  0007  0F01        	mov a,1
 104  0008  0084        	mov [4],a
 104  0009  0F40        	mov a,64
 104  000A  0083        	mov [3],a
 105  000B              #line 105 "C:\Users\YVTC\Desktop\單晶片微控制器(一)\0522\combination lock.c"
 105  000B  0F02        	mov a,2
 105  000C  0082        	mov [2],a
 105  000D  3002        	set [2].0
 105  000E              _L3:
 106  000E              #line 106 "C:\Users\YVTC\Desktop\單晶片微控制器(一)\0522\combination lock.c"
 106  000E  3C02        	sz [2].0
 106  000F  2800     R  	jmp _L3
 107  0010              #line 107 "C:\Users\YVTC\Desktop\單晶片微控制器(一)\0522\combination lock.c"
 107  0010  1F02        	clr [2]
 108  0011              #line 108 "C:\Users\YVTC\Desktop\單晶片微控制器(一)\0522\combination lock.c"
 108  0011  0700     E  	mov a,rb
 108  0012  0083        	mov mp,a
 108  0013  0700     E  	mov a,rc
 108  0014  0084        	mov sbp,a
 108  0015  0742        	mov a,[66]
 108  0016  0082        	mov ir,a
 102  0017              #line 102 "C:\Users\YVTC\Desktop\單晶片微控制器(一)\0522\combination lock.c"
"File: combination lock.c  Assembler  Version HGASM0202      Page 3

 102  0017  1480     E  	inc ra
 102  0018  1480     E  	inc rb
 102  0019  3D0A        	sz z
 102  001A  1480     E  	inc rc
 102  001B  0700     E  	mov a,ra
 102  001C  0A04        	sub a,4
 102  001D  390A        	snz z
 102  001E  2800     R  	jmp _L5
 102  001F  0003        	ret
 102  0020              _Read4Byte endp
 102  0020              #line 102 "C:\Users\YVTC\Desktop\單晶片微控制器(一)\0522\combination lock.c"
 102  0020              #pragma debug scope 1 1
 102  0020              public _Write4Byte
 102  0020              #pragma debug scope 3 1
 112  0020              #line 112 "C:\Users\YVTC\Desktop\單晶片微控制器(一)\0522\combination lock.c"
 112  0000              _Write4Byte .section 'code'
 112  0000              _Write4Byte proc
 112  0000              public _Write4Byte_2
 112  0000  0002[           local _Write4Byte_2 db 2 dup(?)	; 2,0
            00
            ]
 112  0002              #pragma debug pointer 43 8 3
 112  0002              #pragma debug pointer 43 8 3
 112  0002              #pragma debug variable 43 3 _Write4Byte_2+0 "ptr"
 112  0000  0700     R  	mov a,_Write4Byte_2[0]
 112  0001  0080     E  	mov rb,a
 112  0002  0700     R  	mov a,_Write4Byte_2[1]
 112  0003  0080     E  	mov rc,a
 113  0004              #line 113 "C:\Users\YVTC\Desktop\單晶片微控制器(一)\0522\combination lock.c"
 113  0004  1F00     E  	clr ra
 113  0005              _L11:
 114  0005              #line 114 "C:\Users\YVTC\Desktop\單晶片微控制器(一)\0522\combination lock.c"
 114  0005  0700     E  	mov a,ra
 114  0006  00C1        	mov [65],a
 115  0007              #line 115 "C:\Users\YVTC\Desktop\單晶片微控制器(一)\0522\combination lock.c"
 115  0007  0700     E  	mov a,rb
 115  0008  0083        	mov mp,a
 115  0009  0700     E  	mov a,rc
 115  000A  0084        	mov sbp,a
 115  000B              	fcall _Crom2Prom
 115  0012  00C2        	mov [66],a
 116  0013              #line 116 "C:\Users\YVTC\Desktop\單晶片微控制器(一)\0522\combination lock.c"
 116  0013  0F01        	mov a,1
 116  0014  0084        	mov [4],a
 116  0015  0F40        	mov a,64
 116  0016  0083        	mov [3],a
 117  0017              #line 117 "C:\Users\YVTC\Desktop\單晶片微控制器(一)\0522\combination lock.c"
 117  0017  0F08        	mov a,8
 117  0018  0082        	mov [2],a
 117  0019  3102        	set [2].2
 117  001A              _L9:
 118  001A              #line 118 "C:\Users\YVTC\Desktop\單晶片微控制器(一)\0522\combination lock.c"
 118  001A  3D02        	sz [2].2
 118  001B  2800     R  	jmp _L9
 119  001C              #line 119 "C:\Users\YVTC\Desktop\單晶片微控制器(一)\0522\combination lock.c"
 119  001C  1F02        	clr [2]
 113  001D              #line 113 "C:\Users\YVTC\Desktop\單晶片微控制器(一)\0522\combination lock.c"
 113  001D  1480     E  	inc ra
 113  001E  1480     E  	inc rb
 113  001F  3D0A        	sz z
"File: combination lock.c  Assembler  Version HGASM0202      Page 4

 113  0020  1480     E  	inc rc
 113  0021  0700     E  	mov a,ra
 113  0022  0A04        	sub a,4
 113  0023  390A        	snz z
 113  0024  2800     R  	jmp _L11
 113  0025  0003        	ret
 113  0026              _Write4Byte endp
 113  0026              #line 113 "C:\Users\YVTC\Desktop\單晶片微控制器(一)\0522\combination lock.c"
 113  0026              #pragma debug scope 1 1
 113  0026              ___pgc equ [43]
 113  0026              ___ph equ [46]
 113  0026              ___pg equ [42]
 113  0026              public _LCMWrite
 113  0026              #pragma debug scope 4 1
 132  0026              #line 132 "C:\Users\YVTC\Desktop\單晶片微控制器(一)\0522\combination lock.c"
 132  0000              _LCMWrite .section 'code'
 132  0000              _LCMWrite proc
 132  0000              public _LCMWrite_2
 132  0000  0002[           local _LCMWrite_2 db 2 dup(?)	; 1,1
            00
            ]
 132  0000  0080     R  	mov _LCMWrite_2[1],a
 132  0001              #pragma debug variable 8 4 _LCMWrite_2+1 "DCFlag"
 132  0001              #pragma debug variable 8 4 _LCMWrite_2+0 "CD"
 133  0001              #line 133 "C:\Users\YVTC\Desktop\單晶片微控制器(一)\0522\combination lock.c"
 133  0001  1FAB        	set [43]
 134  0002              #line 134 "C:\Users\YVTC\Desktop\單晶片微控制器(一)\0522\combination lock.c"
 134  0002  342E        	clr [46].0
 134  0003  30AE        	set [46].1
 135  0004              #line 135 "C:\Users\YVTC\Desktop\單晶片微控制器(一)\0522\combination lock.c"
 135  0004              ;# 135 "C:\Users\YVTC\Desktop\單晶片微控制器(一)\0522\combination lock.c" 1
 135  0004  0000        	nop
 135  0005              _L14:
 137  0005              #line 137 "C:\Users\YVTC\Desktop\單晶片微控制器(一)\0522\combination lock.c"
 137  0005  312E        	set [46].2
 137  0006              ;# 137 "C:\Users\YVTC\Desktop\單晶片微控制器(一)\0522\combination lock.c" 1
 137  0006  0000        	nop
 138  0007              #line 138 "C:\Users\YVTC\Desktop\單晶片微控制器(一)\0522\combination lock.c"
 138  0007  072A        	mov a,[42]
 138  0008  0080     E  	mov ra,a
 139  0009              #line 139 "C:\Users\YVTC\Desktop\單晶片微控制器(一)\0522\combination lock.c"
 139  0009  352E        	clr [46].2
 140  000A              #line 140 "C:\Users\YVTC\Desktop\單晶片微控制器(一)\0522\combination lock.c"
 140  000A  3C00     E  	sz ra.7
 140  000B  2800     R  	jmp _L14
 141  000C              #line 141 "C:\Users\YVTC\Desktop\單晶片微控制器(一)\0522\combination lock.c"
 141  000C  1F2B        	clr [43]
 142  000D              #line 142 "C:\Users\YVTC\Desktop\單晶片微控制器(一)\0522\combination lock.c"
 142  000D  34AE        	clr [46].1
 143  000E              #line 143 "C:\Users\YVTC\Desktop\單晶片微控制器(一)\0522\combination lock.c"
 143  000E  0700     R  	mov a,_LCMWrite_2[1]
 143  000F  0E01        	and a,1
 143  0010  0080     E  	mov rb,a
 143  0011  342E        	clr [46].0
 143  0012  0700     E  	mov a,rb
 143  0013  05AE        	orm a,[46]
 144  0014              #line 144 "C:\Users\YVTC\Desktop\單晶片微控制器(一)\0522\combination lock.c"
 144  0014  0700     R  	mov a,_LCMWrite_2[0]
 144  0015  00AA        	mov [42],a
 145  0016              #line 145 "C:\Users\YVTC\Desktop\單晶片微控制器(一)\0522\combination lock.c"
"File: combination lock.c  Assembler  Version HGASM0202      Page 5

 145  0016  312E        	set [46].2
 145  0017              ;# 145 "C:\Users\YVTC\Desktop\單晶片微控制器(一)\0522\combination lock.c" 1
 145  0017  0000        	nop
 145  0018  352E        	clr [46].2
 147  0019              #line 147 "C:\Users\YVTC\Desktop\單晶片微控制器(一)\0522\combination lock.c"
 147  0019  0700     E  	mov a,ra
 147  001A  0003        	ret
 147  001B              _LCMWrite endp
 147  001B              #line 147 "C:\Users\YVTC\Desktop\單晶片微控制器(一)\0522\combination lock.c"
 147  001B              #pragma debug scope 1 1
 147  001B              ___pec equ [35]
 147  001B              ___pepu equ [33]
 147  001B              ___pe equ [34]
 147  001B              public _ScanKey
 147  001B              #pragma debug scope 5 1
 149  001B              #line 149 "C:\Users\YVTC\Desktop\單晶片微控制器(一)\0522\combination lock.c"
 149  0000              _ScanKey .section 'code'
 149  0000              _ScanKey proc
 150  0000              #line 150 "C:\Users\YVTC\Desktop\單晶片微控制器(一)\0522\combination lock.c"
 150  0000  0FF0        	mov a,240
 150  0001  00A3        	mov [35],a
 150  0002  0FF0        	mov a,240
 150  0003  00A1        	mov [33],a
 151  0004              #line 151 "C:\Users\YVTC\Desktop\單晶片微控制器(一)\0522\combination lock.c"
 151  0004  0FFE        	mov a,254
 151  0005  00A2        	mov [34],a
 149  0006              #line 149 "C:\Users\YVTC\Desktop\單晶片微控制器(一)\0522\combination lock.c"
 149  0006  1F00     E  	clr ra
 149  0007              _L20:
 153  0007              #line 153 "C:\Users\YVTC\Desktop\單晶片微控制器(一)\0522\combination lock.c"
 153  0007  3BA2        	snz [34].7
 153  0008  2800     R  	jmp _L16
 155  0009              #line 155 "C:\Users\YVTC\Desktop\單晶片微控制器(一)\0522\combination lock.c"
 155  0009  3F22        	sz [34].6
 155  000A  2800     R  	jmp _L17
 154  000B              #line 154 "C:\Users\YVTC\Desktop\單晶片微控制器(一)\0522\combination lock.c"
 154  000B  1480     E  	inc ra
 154  000C  2800     R  	jmp _L16
 154  000D              _L17:
 157  000D              #line 157 "C:\Users\YVTC\Desktop\單晶片微控制器(一)\0522\combination lock.c"
 157  000D  3EA2        	sz [34].5
 157  000E  2800     R  	jmp _L18
 156  000F              #line 156 "C:\Users\YVTC\Desktop\單晶片微控制器(一)\0522\combination lock.c"
 156  000F  0F02        	mov a,2
 156  0010  0380     E  	addm a,ra
 156  0011  2800     R  	jmp _L16
 156  0012              _L18:
 159  0012              #line 159 "C:\Users\YVTC\Desktop\單晶片微控制器(一)\0522\combination lock.c"
 159  0012  3E22        	sz [34].4
 159  0013  2800     R  	jmp _L19
 158  0014              #line 158 "C:\Users\YVTC\Desktop\單晶片微控制器(一)\0522\combination lock.c"
 158  0014  0F03        	mov a,3
 158  0015  0380     E  	addm a,ra
 158  0016  2800     R  	jmp _L16
 158  0017              _L19:
 160  0017              #line 160 "C:\Users\YVTC\Desktop\單晶片微控制器(一)\0522\combination lock.c"
 160  0017  0F04        	mov a,4
 160  0018  0380     E  	addm a,ra
 161  0019              #line 161 "C:\Users\YVTC\Desktop\單晶片微控制器(一)\0522\combination lock.c"
 161  0019  0722        	mov a,[34]
"File: combination lock.c  Assembler  Version HGASM0202      Page 6

 161  001A  03A2        	addm a,[34]
 161  001B  3022        	set [34].0
 152  001C              #line 152 "C:\Users\YVTC\Desktop\單晶片微控制器(一)\0522\combination lock.c"
 152  001C  0700     E  	mov a,ra
 152  001D  0A10        	sub a,16
 152  001E  390A        	snz z
 152  001F  2800     R  	jmp _L20
 152  0020              _L16:
 164  0020              #line 164 "C:\Users\YVTC\Desktop\單晶片微控制器(一)\0522\combination lock.c"
 164  0020  0700     E  	mov a,ra
 164  0021  0003        	ret
 164  0022              _ScanKey endp
 164  0022              #line 164 "C:\Users\YVTC\Desktop\單晶片微控制器(一)\0522\combination lock.c"
 164  0022              #pragma debug scope 1 1
 164  0022              public _Delayms
 164  0022              #pragma debug scope 6 1
 166  0022              #line 166 "C:\Users\YVTC\Desktop\單晶片微控制器(一)\0522\combination lock.c"
 166  0000              _Delayms .section 'code'
 166  0000              _Delayms proc
 166  0000              public _Delayms_2
 166  0000  0002[           local _Delayms_2 db 2 dup(?)	; 2,0
            00
            ]
 166  0002              #pragma debug variable 10 6 _Delayms_2+0 "del"
 167  0002              #line 167 "C:\Users\YVTC\Desktop\單晶片微控制器(一)\0522\combination lock.c"
 167  0000  1F00     E  	clr rb
 167  0001  1F00     E  	clr rc
 167  0002  2800     R  	jmp _L25
 167  0003              _L26:
 167  0003              #line 167 "C:\Users\YVTC\Desktop\單晶片微控制器(一)\0522\combination lock.c"
 167  0003              ;# 167 "C:\Users\YVTC\Desktop\單晶片微控制器(一)\0522\combination lock.c" 1
 167  0003              	IF 1000>263690
 167  0003              ;# 167 "C:\Users\YVTC\Desktop\單晶片微控制器(一)\0522\combination lock.c" 1
 167  0003              	ERRMESSAGE 'the value 1000of the argument exceeds the maxinum 263690'
 167  0003              	ENDIF
 167  0003              ;# 167 "C:\Users\YVTC\Desktop\單晶片微控制器(一)\0522\combination lock.c" 1
 167  0003              	IF 1000<0
 167  0003              ;# 167 "C:\Users\YVTC\Desktop\單晶片微控制器(一)\0522\combination lock.c" 1
 167  0003              	ERRMESSAGE 'the value 1000 of the argument exceeds the mininum 0'
 167  0003              	ENDIF
 167  0003              ;# 167 "C:\Users\YVTC\Desktop\單晶片微控制器(一)\0522\combination lock.c" 1
 167  0003              	IF 1000==0
 167  0003              ;# 167 "C:\Users\YVTC\Desktop\單晶片微控制器(一)\0522\combination lock.c" 1
 167  0003              	JMP $
 167  0003              	ENDIF
 167  0003              ;# 167 "C:\Users\YVTC\Desktop\單晶片微控制器(一)\0522\combination lock.c" 1
 167  0003              	IF (1000>=1) AND (1000<( 4 + __PBP__ * 2))
 167  0003              ;# 167 "C:\Users\YVTC\Desktop\單晶片微控制器(一)\0522\combination lock.c" 1
 167  0003              	NOP
 167  0003              	ENDIF
 167  0003              ;# 167 "C:\Users\YVTC\Desktop\單晶片微控制器(一)\0522\combination lock.c" 1
 167  0003              	IF (1000>=2) AND (1000<( 4 + __PBP__ * 2))
 167  0003              ;# 167 "C:\Users\YVTC\Desktop\單晶片微控制器(一)\0522\combination lock.c" 1
 167  0003              	NOP
 167  0003              	ENDIF
 167  0003              ;# 167 "C:\Users\YVTC\Desktop\單晶片微控制器(一)\0522\combination lock.c" 1
 167  0003              	IF (1000>=3) AND (1000<( 4 + __PBP__ * 2))
 167  0003              ;# 167 "C:\Users\YVTC\Desktop\單晶片微控制器(一)\0522\combination lock.c" 1
 167  0003              	NOP
 167  0003              	ENDIF
"File: combination lock.c  Assembler  Version HGASM0202      Page 7

 167  0003              ;# 167 "C:\Users\YVTC\Desktop\單晶片微控制器(一)\0522\combination lock.c" 1
 167  0003              	IF (1000>=4) AND (1000<( 4 + __PBP__ * 2)) AND ( __PBP__ > 0 )
 167  0003              ;# 167 "C:\Users\YVTC\Desktop\單晶片微控制器(一)\0522\combination lock.c" 1
 167  0003              	NOP
 167  0003              	ENDIF
 167  0003              ;# 167 "C:\Users\YVTC\Desktop\單晶片微控制器(一)\0522\combination lock.c" 1
 167  0003              	IF (1000>=5) AND (1000<( 4 + __PBP__ * 2)) AND ( __PBP__ > 0 )
 167  0003              ;# 167 "C:\Users\YVTC\Desktop\單晶片微控制器(一)\0522\combination lock.c" 1
 167  0003              	NOP
 167  0003              	ENDIF
 167  0003              ;# 167 "C:\Users\YVTC\Desktop\單晶片微控制器(一)\0522\combination lock.c" 1
 167  0003              	IF (1000>=6) AND (1000<( 4 + __PBP__ * 2))  AND ( __PBP__ > 1 )
 167  0003              ;# 167 "C:\Users\YVTC\Desktop\單晶片微控制器(一)\0522\combination lock.c" 1
 167  0003              	NOP
 167  0003              	ENDIF
 167  0003              ;# 167 "C:\Users\YVTC\Desktop\單晶片微控制器(一)\0522\combination lock.c" 1
 167  0003              	IF (1000>=7) AND (1000<( 4 + __PBP__ * 2))  AND ( __PBP__ > 1 )
 167  0003              ;# 167 "C:\Users\YVTC\Desktop\單晶片微控制器(一)\0522\combination lock.c" 1
 167  0003              	NOP
 167  0003              	ENDIF
 167  0003              ;# 167 "C:\Users\YVTC\Desktop\單晶片微控制器(一)\0522\combination lock.c" 1
 167  0003              	IF (1000>=8) AND (1000<( 4 + __PBP__ * 2))  AND ( __PBP__ > 2 )
 167  0003              ;# 167 "C:\Users\YVTC\Desktop\單晶片微控制器(一)\0522\combination lock.c" 1
 167  0003              	NOP
 167  0003              	ENDIF
 167  0003              ;# 167 "C:\Users\YVTC\Desktop\單晶片微控制器(一)\0522\combination lock.c" 1
 167  0003              	IF (1000==9)  AND ( __PBP__ > 2 )
 167  0003              ;# 167 "C:\Users\YVTC\Desktop\單晶片微控制器(一)\0522\combination lock.c" 1
 167  0003              	NOP
 167  0003              	ENDIF
 167  0003              ;# 167 "C:\Users\YVTC\Desktop\單晶片微控制器(一)\0522\combination lock.c" 1
 167  0003              	IF (1000< ( 8 + __PBP__ * 2)) AND (1000>( 3 + __PBP__ * 2))
 167  0003              ;# 167 "C:\Users\YVTC\Desktop\單晶片微控制器(一)\0522\combination lock.c" 1
 167  0003              	fcall __DELAY3 + ( 7 + __PBP__ * 2) -1000
 167  0003              	ENDIF
 167  0003              ;# 167 "C:\Users\YVTC\Desktop\單晶片微控制器(一)\0522\combination lock.c" 1
 167  0003              	IF (1000< ( 0404h + __PBP__ * 2)) AND (1000>( 7 + __PBP__ * 2))
 167  0003              ;# 167 "C:\Users\YVTC\Desktop\單晶片微控制器(一)\0522\combination lock.c" 1
 167  0003  0FF8        	MOV A,(1000-( 4 + __PBP__ * 2))/4
 167  0004              ;# 167 "C:\Users\YVTC\Desktop\單晶片微控制器(一)\0522\combination lock.c" 1
 167  0004              	fcall __DELAYX3 + 3 -((1000-( 4 + __PBP__ * 2)) MOD 4) 
 167  000B              	ENDIF
 167  000B              ;# 167 "C:\Users\YVTC\Desktop\單晶片微控制器(一)\0522\combination lock.c" 1
 167  000B              	IF (1000< ( 040bh + __PBP__ * 2)) AND (1000> ( 0403h + __PBP__ * 2))
 167  000B              ;# 167 "C:\Users\YVTC\Desktop\單晶片微控制器(一)\0522\combination lock.c" 1
 167  000B              	MOV A,0 
 167  000B              ;# 167 "C:\Users\YVTC\Desktop\單晶片微控制器(一)\0522\combination lock.c" 1
 167  000B              	fcall __DELAYX6 + ( 040ah + __PBP__ * 2) -1000
 167  000B              	ENDIF
 167  000B              ;# 167 "C:\Users\YVTC\Desktop\單晶片微控制器(一)\0522\combination lock.c" 1
 167  000B              	IF (1000 >= ( 040bh + __PBP__ * 2)) AND ((((1000-( 9 + __PBP__ * 2))%0402h)/4+1)>256)
 167  000B              ;# 167 "C:\Users\YVTC\Desktop\單晶片微控制器(一)\0522\combination lock.c" 1
 167  000B              	MOV A,(1000-( 9 + __PBP__ * 2))/0402h
 167  000B              ;# 167 "C:\Users\YVTC\Desktop\單晶片微控制器(一)\0522\combination lock.c" 1
 167  000B              	MOV _builtin_holtek_delay_2,A
 167  000B              ;# 167 "C:\Users\YVTC\Desktop\單晶片微控制器(一)\0522\combination lock.c" 1
 167  000B              	MOV A,0
 167  000B              ;# 167 "C:\Users\YVTC\Desktop\單晶片微控制器(一)\0522\combination lock.c" 1
 167  000B              	fcall __DELAYY5 +5- (((1000-( 9 + __PBP__ * 2))%0402h)%6) 
 167  000B              	ENDIF
"File: combination lock.c  Assembler  Version HGASM0202      Page 8

 167  000B              ;# 167 "C:\Users\YVTC\Desktop\單晶片微控制器(一)\0522\combination lock.c" 1
 167  000B              	IF (1000 >= ( 040bh + __PBP__ * 2)) AND ((((1000-( 9 + __PBP__ * 2))%0402h)/4+1)<=256)
 167  000B              ;# 167 "C:\Users\YVTC\Desktop\單晶片微控制器(一)\0522\combination lock.c" 1
 167  000B              	MOV A,(1000-( 9 + __PBP__ * 2))/0402h
 167  000B              ;# 167 "C:\Users\YVTC\Desktop\單晶片微控制器(一)\0522\combination lock.c" 1
 167  000B              	MOV _builtin_holtek_delay_2,A
 167  000B              ;# 167 "C:\Users\YVTC\Desktop\單晶片微控制器(一)\0522\combination lock.c" 1
 167  000B              	MOV A,((1000-( 9 + __PBP__ * 2))%0402h)/4+1
 167  000B              ;# 167 "C:\Users\YVTC\Desktop\單晶片微控制器(一)\0522\combination lock.c" 1
 167  000B              	fcall __DELAYY3 +3-(((1000-( 9 + __PBP__ * 2))%0402h)%4) 
 167  000B              	ENDIF
 167  000B  1480     E  	inc rb
 167  000C  3D0A        	sz z
 167  000D  1480     E  	inc rc
 167  000E              _L25:
 167  000E  0700     E  	mov a,rb
 167  000F  0200     R  	sub a,_Delayms_2[0]
 167  0010  0700     E  	mov a,rc
 167  0011  1200     R  	sbc a,_Delayms_2[1]
 167  0012  3B0A        	snz cz
 167  0013  2800     R  	jmp _L26
 167  0014  0003        	ret
 167  0015              _Delayms endp
 167  0015              #line 167 "C:\Users\YVTC\Desktop\單晶片微控制器(一)\0522\combination lock.c"
 167  0015              #pragma debug scope 1 1
 167  0015              public _Get3Keys
 167  0015              #pragma debug scope 7 1
  69  0015              #line 69 "C:\Users\YVTC\Desktop\單晶片微控制器(一)\0522\combination lock.c"
  69  0000              _Get3Keys .section 'code'
  69  0000              _Get3Keys proc
  69  0000              public _Get3Keys_2
  69  0000  0004[           local _Get3Keys_2 db 4 dup(?)	; 2,2
            00
            ]
  69  0004              #pragma debug pointer 44 8 7
  69  0004              #pragma debug pointer 44 8 7
  69  0004              #pragma debug variable 44 7 _Get3Keys_2+0 "ptr"
  69  0004              #pragma debug variable 8 7 _Get3Keys_2+2 "key"
  69  0004              #pragma debug variable 8 7 _Get3Keys_2+3 "i"
  69  0000  1F00     R  	clr _Get3Keys_2[3]
  69  0001              _L30:
  71  0001              #line 71 "C:\Users\YVTC\Desktop\單晶片微控制器(一)\0522\combination lock.c"
  71  0001              	fcall _ScanKey
  71  0008  0080     R  	mov _Get3Keys_2[2],a
  71  0009  0700     R  	mov a,_Get3Keys_2[2]
  71  000A  0A10        	sub a,16
  71  000B  3D0A        	sz z
  71  000C  2800     R  	jmp _L30
  72  000D              #line 72 "C:\Users\YVTC\Desktop\單晶片微控制器(一)\0522\combination lock.c"
  72  000D  0F09        	mov a,9
  72  000E  0200     R  	sub a,_Get3Keys_2[2]
  72  000F  380A        	snz c
  72  0010  2800     R  	jmp _L31
  72  0011  0F02        	mov a,2
  72  0012  0200     R  	sub a,_Get3Keys_2[3]
  72  0013  380A        	snz c
  72  0014  2800     R  	jmp _L31
  73  0015              #line 73 "C:\Users\YVTC\Desktop\單晶片微控制器(一)\0522\combination lock.c"
  73  0015  0700     R  	mov a,_Get3Keys_2[0]
  73  0016  0083        	mov mp,a
"File: combination lock.c  Assembler  Version HGASM0202      Page 9

  73  0017  0700     R  	mov a,_Get3Keys_2[1]
  73  0018  0084        	mov sbp,a
  73  0019  0700     R  	mov a,_Get3Keys_2[2]
  73  001A  0082        	mov ir,a
  73  001B  1480     R  	inc _Get3Keys_2[0]
  73  001C  3D0A        	sz z
  73  001D  1480     R  	inc _Get3Keys_2[1]
  73  001E  1480     R  	inc _Get3Keys_2[3]
  74  001F              #line 74 "C:\Users\YVTC\Desktop\單晶片微控制器(一)\0522\combination lock.c"
  74  001F  0700     R  	mov a,_Get3Keys_2[2]
  74  0020  0B30        	add a,48
  74  0021  0080     R  	mov _LCMWrite_2[0],a
  74  0022  0F01        	mov a,1
  74  0023              	fcall _LCMWrite
  74  002A              _L31:
  76  002A              #line 76 "C:\Users\YVTC\Desktop\單晶片微控制器(一)\0522\combination lock.c"
  76  002A  0F0F        	mov a,15
  76  002B  0080     R  	mov _Delayms_2[0],a
  76  002C  1F00     R  	clr _Delayms_2[1]
  76  002D              	fcall _Delayms
  76  0034              _L33:
  76  0034              	fcall _ScanKey
  76  003B  0080     E  	mov ra,a
  76  003C  0700     E  	mov a,ra
  76  003D  0A10        	sub a,16
  76  003E  390A        	snz z
  76  003F  2800     R  	jmp _L33
  76  0040  0F0F        	mov a,15
  76  0041  0080     R  	mov _Delayms_2[0],a
  76  0042  1F00     R  	clr _Delayms_2[1]
  76  0043              	fcall _Delayms
  77  004A              #line 77 "C:\Users\YVTC\Desktop\單晶片微控制器(一)\0522\combination lock.c"
  77  004A  0700     R  	mov a,_Get3Keys_2[2]
  77  004B  0A0F        	sub a,15
  77  004C  390A        	snz z
  77  004D  2800     R  	jmp _L34
  77  004E  0700     R  	mov a,_Get3Keys_2[3]
  77  004F  0A03        	sub a,3
  77  0050  390A        	snz z
  77  0051  2800     R  	jmp _L30
  77  0052  1F00     E  	clr ra
  77  0053  2800     R  	jmp _L35
  77  0054              _L34:
  78  0054              #line 78 "C:\Users\YVTC\Desktop\單晶片微控制器(一)\0522\combination lock.c"
  78  0054  0700     R  	mov a,_Get3Keys_2[2]
  78  0055  0A0E        	sub a,14
  78  0056  390A        	snz z
  78  0057  2800     R  	jmp _L30
  78  0058  0F01        	mov a,1
  78  0059  0080     E  	mov ra,a
  78  005A              _L35:
  80  005A              #line 80 "C:\Users\YVTC\Desktop\單晶片微控制器(一)\0522\combination lock.c"
  80  005A  0700     E  	mov a,ra
  80  005B  0003        	ret
  80  005C              _Get3Keys endp
  80  005C              #line 80 "C:\Users\YVTC\Desktop\單晶片微控制器(一)\0522\combination lock.c"
  80  005C              #pragma debug scope 1 1
  80  005C              ___tm0al equ [98]
  80  005C              ___tm0ah equ [99]
  80  005C              ___tm0c0 equ [94]
"File: combination lock.c  Assembler  Version HGASM0202      Page 10

  80  005C              public _Verify
  80  005C              #pragma debug scope 8 1
  82  005C              #line 82 "C:\Users\YVTC\Desktop\單晶片微控制器(一)\0522\combination lock.c"
  82  0000              _Verify .section 'code'
  82  0000              _Verify proc
  82  0000              public _Verify_2
  82  0000  0005[           local _Verify_2 db 5 dup(?)	; 4,1
            00
            ]
  82  0005              #pragma debug pointer 45 8 8
  82  0005              #pragma debug pointer 45 8 8
  82  0005              #pragma debug variable 45 8 _Verify_2+0 "ptr1"
  82  0005              #pragma debug variable 45 8 _Verify_2+2 "ptr2"
  82  0005              #pragma debug variable 8 8 _Verify_2+4 "flag"
  82  0000  1F00     E  	clr rb
  82  0001  1F00     E  	clr rc
  82  0002  1F00     R  	clr _Verify_2[4]
  82  0003              _L41:
  84  0003              #line 84 "C:\Users\YVTC\Desktop\單晶片微控制器(一)\0522\combination lock.c"
  84  0003  0700     E  	mov a,rb
  84  0004  0300     R  	add a,_Verify_2[0]
  84  0005  0083        	mov mp,a
  84  0006  0700     E  	mov a,rc
  84  0007  1300     R  	adc a,_Verify_2[1]
  84  0008  0084        	mov sbp,a
  84  0009              	fcall _Crom2Prom
  84  0010  0080     E  	mov rd,a
  84  0011  0700     E  	mov a,rb
  84  0012  0300     R  	add a,_Verify_2[2]
  84  0013  0083        	mov mp,a
  84  0014  0700     E  	mov a,rc
  84  0015  1300     R  	adc a,_Verify_2[3]
  84  0016  0084        	mov sbp,a
  84  0017              	fcall _Crom2Prom
  84  001E  0080     E  	mov ra,a
  84  001F  0700     E  	mov a,rd
  84  0020  0200     E  	sub a,ra
  84  0021  3D0A        	sz z
  84  0022  2800     R  	jmp _L39
  84  0023  1480     R  	inc _Verify_2[4]
  84  0024              _L39:
  84  0024  1480     E  	inc rb
  84  0025  3D0A        	sz z
  84  0026  1480     E  	inc rc
  83  0027              #line 83 "C:\Users\YVTC\Desktop\單晶片微控制器(一)\0522\combination lock.c"
  83  0027  0700     E  	mov a,rb
  83  0028  0C04        	xor a,4
  83  0029  0500     E  	or a,rc
  83  002A  390A        	snz z
  83  002B  2800     R  	jmp _L41
  86  002C              #line 86 "C:\Users\YVTC\Desktop\單晶片微控制器(一)\0522\combination lock.c"
  86  002C  0FC0        	mov a,192
  86  002D  0080     R  	mov _LCMWrite_2[0],a
  86  002E  0F00        	mov a,0
  86  002F              	fcall _LCMWrite
  87  0036              #line 87 "C:\Users\YVTC\Desktop\單晶片微控制器(一)\0522\combination lock.c"
  87  0036  1080     R  	sz _Verify_2[4]
  87  0037  2800     R  	jmp _L42
  87  0038  1F00     R  	clr _Verify_2[4]
  87  0039  2800     R  	jmp _L43
"File: combination lock.c  Assembler  Version HGASM0202      Page 11

  87  003A              _L42:
  87  003A  1F00     R  	clr _Verify_2[4]
  87  003B              _L44:
  88  003B              #line 88 "C:\Users\YVTC\Desktop\單晶片微控制器(一)\0522\combination lock.c"
  88  003B  0F00     R  	mov a,low offset _Str4
  88  003C  0300     R  	add a,_Verify_2[4]
  88  003D  0083        	mov mp,a
  88  003E  0F00     R  	mov a,high offset _Str4
  88  003F  1F04        	clr sbp
  88  0040  1384        	adcm a,sbp
  88  0041              	fcall _Crom2Prom
  88  0048  0080     E  	mov ra,a
  88  0049  1E00     E  	snz ra
  88  004A  2800     R  	jmp _L48
  88  004B  1480     R  	inc _Verify_2[4]
  88  004C  0700     E  	mov a,ra
  88  004D  0080     R  	mov _LCMWrite_2[0],a
  88  004E  0F01        	mov a,1
  88  004F              	fcall _LCMWrite
  88  0056  2800     R  	jmp _L44
  88  0057              _L48:
  89  0057              #line 89 "C:\Users\YVTC\Desktop\單晶片微控制器(一)\0522\combination lock.c"
  89  0057  0FE8        	mov a,232
  89  0058  00E2        	mov [98],a
  89  0059  0F03        	mov a,3
  89  005A  00E3        	mov [99],a
  90  005B              #line 90 "C:\Users\YVTC\Desktop\單晶片微控制器(一)\0522\combination lock.c"
  90  005B  31DE        	set [94].3
  90  005C  0FE8        	mov a,-24
  90  005D  0080     R  	mov _Delayms_2[0],a
  90  005E  0F03        	mov a,3
  90  005F  0080     R  	mov _Delayms_2[1],a
  90  0060              	fcall _Delayms
  90  0067  35DE        	clr [94].3
  90  0068  2800     R  	jmp _L38
  90  0069              _L43:
  93  0069              #line 93 "C:\Users\YVTC\Desktop\單晶片微控制器(一)\0522\combination lock.c"
  93  0069  0F00     R  	mov a,low offset _Str3
  93  006A  0300     R  	add a,_Verify_2[4]
  93  006B  0083        	mov mp,a
  93  006C  0F00     R  	mov a,high offset _Str3
  93  006D  1F04        	clr sbp
  93  006E  1384        	adcm a,sbp
  93  006F              	fcall _Crom2Prom
  93  0076  0080     E  	mov ra,a
  93  0077  1E00     E  	snz ra
  93  0078  2800     R  	jmp _L49
  93  0079  1480     R  	inc _Verify_2[4]
  93  007A  0700     E  	mov a,ra
  93  007B  0080     R  	mov _LCMWrite_2[0],a
  93  007C  0F01        	mov a,1
  93  007D              	fcall _LCMWrite
  93  0084  2800     R  	jmp _L43
  93  0085              _L49:
  95  0085              #line 95 "C:\Users\YVTC\Desktop\單晶片微控制器(一)\0522\combination lock.c"
  95  0085  0FFA        	mov a,250
  95  0086  00E2        	mov [98],a
  95  0087  0FFA        	mov a,250
  95  0088  00E3        	mov [99],a
  96  0089              #line 96 "C:\Users\YVTC\Desktop\單晶片微控制器(一)\0522\combination lock.c"
"File: combination lock.c  Assembler  Version HGASM0202      Page 12

  96  0089  31DE        	set [94].3
  96  008A  0FC8        	mov a,-56
  96  008B  0080     R  	mov _Delayms_2[0],a
  96  008C  1F00     R  	clr _Delayms_2[1]
  96  008D              	fcall _Delayms
  96  0094  35DE        	clr [94].3
  96  0095  0F64        	mov a,100
  96  0096  0080     R  	mov _Delayms_2[0],a
  96  0097  1F00     R  	clr _Delayms_2[1]
  96  0098              	fcall _Delayms
  95  009F              #line 95 "C:\Users\YVTC\Desktop\單晶片微控制器(一)\0522\combination lock.c"
  95  009F  0FFA        	mov a,250
  95  00A0  00E2        	mov [98],a
  95  00A1  0FFA        	mov a,250
  95  00A2  00E3        	mov [99],a
  96  00A3              #line 96 "C:\Users\YVTC\Desktop\單晶片微控制器(一)\0522\combination lock.c"
  96  00A3  31DE        	set [94].3
  96  00A4  0FC8        	mov a,-56
  96  00A5  0080     R  	mov _Delayms_2[0],a
  96  00A6  1F00     R  	clr _Delayms_2[1]
  96  00A7              	fcall _Delayms
  96  00AE  35DE        	clr [94].3
  96  00AF  0F64        	mov a,100
  96  00B0  0080     R  	mov _Delayms_2[0],a
  96  00B1  1F00     R  	clr _Delayms_2[1]
  96  00B2              	fcall _Delayms
  96  00B9              _L38:
  96  00B9  0003        	ret
  96  00BA              _Verify endp
  96  00BA              #line 96 "C:\Users\YVTC\Desktop\單晶片微控制器(一)\0522\combination lock.c"
  96  00BA              #pragma debug scope 1 1
  96  00BA              ___phc equ [47]
  96  00BA              public _LCMInit
  96  00BA              #pragma debug scope 9 1
 123  00BA              #line 123 "C:\Users\YVTC\Desktop\單晶片微控制器(一)\0522\combination lock.c"
 123  0000              _LCMInit .section 'code'
 123  0000              _LCMInit proc
 123  0000  352E        	clr [46].2
 123  0001  34AE        	clr [46].1
 123  0002  342E        	clr [46].0
 124  0003              #line 124 "C:\Users\YVTC\Desktop\單晶片微控制器(一)\0522\combination lock.c"
 124  0003  352F        	clr [47].2
 124  0004  34AF        	clr [47].1
 124  0005  342F        	clr [47].0
 125  0006              #line 125 "C:\Users\YVTC\Desktop\單晶片微控制器(一)\0522\combination lock.c"
 125  0006  0F28        	mov a,40
 125  0007  0080     R  	mov _Delayms_2[0],a
 125  0008  1F00     R  	clr _Delayms_2[1]
 125  0009              	fcall _Delayms
 126  0010              #line 126 "C:\Users\YVTC\Desktop\單晶片微控制器(一)\0522\combination lock.c"
 126  0010  0F38        	mov a,56
 126  0011  0080     R  	mov _LCMWrite_2[0],a
 126  0012  0F00        	mov a,0
 126  0013              	fcall _LCMWrite
 127  001A              #line 127 "C:\Users\YVTC\Desktop\單晶片微控制器(一)\0522\combination lock.c"
 127  001A  0F0F        	mov a,15
 127  001B  0080     R  	mov _LCMWrite_2[0],a
 127  001C  0F00        	mov a,0
 127  001D              	fcall _LCMWrite
 128  0024              #line 128 "C:\Users\YVTC\Desktop\單晶片微控制器(一)\0522\combination lock.c"
"File: combination lock.c  Assembler  Version HGASM0202      Page 13

 128  0024  0F06        	mov a,6
 128  0025  0080     R  	mov _LCMWrite_2[0],a
 128  0026  0F00        	mov a,0
 128  0027              	fcall _LCMWrite
 129  002E              #line 129 "C:\Users\YVTC\Desktop\單晶片微控制器(一)\0522\combination lock.c"
 129  002E  0F01        	mov a,1
 129  002F  0080     R  	mov _LCMWrite_2[0],a
 129  0030  0F00        	mov a,0
 129  0031              	fcall _LCMWrite
 129  0038  0003        	ret
 129  0039              _LCMInit endp
 129  0039              #line 129 "C:\Users\YVTC\Desktop\單晶片微控制器(一)\0522\combination lock.c"
 129  0039              #pragma debug scope 1 1
 129  0039              ___wdtc equ [62]
 129  0039              ___tm0c1 equ [95]
 129  0039              ___pcs2 equ [362]
 129  0039              public _main
 129  0039              #pragma debug scope 10 1
  19  0039              #line 19 "C:\Users\YVTC\Desktop\單晶片微控制器(一)\0522\combination lock.c"
  19  0039              IFDEF WITH_DEFAULT_STARTUP
  19  0039              extern _main_initial0:near
  19  0039              extern _main_startup:near
  19  0039              ENDIF
  19  0039              
  19  0039              ROMBANK 0 @start
  19  0000              @start .section com_l 'code'
  19  0000              _main_startup1:
  19  0000              @start .section com_e 'code'
  19  0000  0F00     R  	mov a,bank _main
  19  0001  008B        	mov bp,a
  19  0002  2800     R  	jmp _main
  19  0003              
  19  0000              _main .section 'code'
  19  0000              _main proc
  19  0000  000A[           local _main_2 db 10 dup(?)
            00
            ]
  19  000A              #pragma debug variable 8 10 _main_2+9 "Flag"
  19  000A              #pragma debug variable 8 10 _main_2+8 "Key"
  19  000A              #pragma debug array 46 8 4 10
  19  000A              #pragma debug array 46 8 4 10
  19  000A              #pragma debug variable 46 10 _main_2+4 "SaveCode"
  19  000A              #pragma debug variable 46 10 _main_2+0 "InputCode"
  20  000A              #line 20 "C:\Users\YVTC\Desktop\單晶片微控制器(一)\0522\combination lock.c"
  20  0000  0FAF        	mov a,175
  20  0001  00BE        	mov [62],a
  21  0002              #line 21 "C:\Users\YVTC\Desktop\單晶片微控制器(一)\0522\combination lock.c"
  21  0002  1F5E        	clr [94]
  21  0003  0F31        	mov a,49
  21  0004  00DF        	mov [95],a
  22  0005              #line 22 "C:\Users\YVTC\Desktop\單晶片微控制器(一)\0522\combination lock.c"
  22  0005  0F20        	mov a,32
  22  0006  80EA 0001   	lmov [362],a
  23  0008              #line 23 "C:\Users\YVTC\Desktop\單晶片微控制器(一)\0522\combination lock.c"
  23  0008              	fcall _LCMInit
  19  000F              #line 19 "C:\Users\YVTC\Desktop\單晶片微控制器(一)\0522\combination lock.c"
  19  000F  0F0B        	mov a,11
  19  0010  0080     R  	mov _main_2[8],a
  19  0011  1F00     R  	clr _main_2[9]
  19  0012              _L75:
"File: combination lock.c  Assembler  Version HGASM0202      Page 14

  25  0012              #line 25 "C:\Users\YVTC\Desktop\單晶片微控制器(一)\0522\combination lock.c"
  25  0012  0700     R  	mov a,_main_2[8]
  25  0013  0A0A        	sub a,10
  25  0014  3D0A        	sz z
  25  0015  2800     R  	jmp _L53
  25  0016  0700     R  	mov a,_main_2[8]
  25  0017  0A0B        	sub a,11
  25  0018  390A        	snz z
  25  0019  2800     R  	jmp _L77
  32  001A              #line 32 "C:\Users\YVTC\Desktop\單晶片微控制器(一)\0522\combination lock.c"
  32  001A  0F01        	mov a,1
  32  001B  0080     R  	mov _LCMWrite_2[0],a
  32  001C  0F00        	mov a,0
  32  001D              	fcall _LCMWrite
  33  0024              #line 33 "C:\Users\YVTC\Desktop\單晶片微控制器(一)\0522\combination lock.c"
  33  0024  1F00     R  	clr _main_2[8]
  33  0025  2800     R  	jmp _L58
  33  0026              _L53:
  27  0026              #line 27 "C:\Users\YVTC\Desktop\單晶片微控制器(一)\0522\combination lock.c"
  27  0026  0F01        	mov a,1
  27  0027  0080     R  	mov _LCMWrite_2[0],a
  27  0028  0F00        	mov a,0
  27  0029              	fcall _LCMWrite
  28  0030              #line 28 "C:\Users\YVTC\Desktop\單晶片微控制器(一)\0522\combination lock.c"
  28  0030  1F00     R  	clr _main_2[8]
  28  0031              _L55:
  28  0031  0F00     R  	mov a,low offset _Str2
  28  0032  0300     R  	add a,_main_2[8]
  28  0033  0083        	mov mp,a
  28  0034  0F00     R  	mov a,high offset _Str2
  28  0035  1F04        	clr sbp
  28  0036  1384        	adcm a,sbp
  28  0037              	fcall _Crom2Prom
  28  003E  0080     E  	mov ra,a
  28  003F  1E00     E  	snz ra
  28  0040  2800     R  	jmp _L78
  28  0041  1480     R  	inc _main_2[8]
  28  0042  0700     E  	mov a,ra
  28  0043  0080     R  	mov _LCMWrite_2[0],a
  28  0044  0F01        	mov a,1
  28  0045              	fcall _LCMWrite
  28  004C  2800     R  	jmp _L55
  28  004D              _L78:
  29  004D              #line 29 "C:\Users\YVTC\Desktop\單晶片微控制器(一)\0522\combination lock.c"
  29  004D  1F00     R  	clr _main_2[9]
  29  004E  2800     R  	jmp _L72
  29  004F              _L58:
  33  004F              #line 33 "C:\Users\YVTC\Desktop\單晶片微控制器(一)\0522\combination lock.c"
  33  004F  0F00     R  	mov a,low offset _Str1
  33  0050  0300     R  	add a,_main_2[8]
  33  0051  0083        	mov mp,a
  33  0052  0F00     R  	mov a,high offset _Str1
  33  0053  1F04        	clr sbp
  33  0054  1384        	adcm a,sbp
  33  0055              	fcall _Crom2Prom
  33  005C  0080     E  	mov ra,a
  33  005D  1E00     E  	snz ra
  33  005E  2800     R  	jmp _L70
  33  005F  1480     R  	inc _main_2[8]
  33  0060  0700     E  	mov a,ra
"File: combination lock.c  Assembler  Version HGASM0202      Page 15

  33  0061  0080     R  	mov _LCMWrite_2[0],a
  33  0062  0F01        	mov a,1
  33  0063              	fcall _LCMWrite
  33  006A  2800     R  	jmp _L58
  33  006B              _L70:
  34  006B              #line 34 "C:\Users\YVTC\Desktop\單晶片微控制器(一)\0522\combination lock.c"
  34  006B  0F01        	mov a,1
  34  006C  0080     R  	mov _main_2[9],a
  34  006D  2800     R  	jmp _L72
  34  006E              _L77:
  37  006E              #line 37 "C:\Users\YVTC\Desktop\單晶片微控制器(一)\0522\combination lock.c"
  37  006E  0F09        	mov a,9
  37  006F  0200     R  	sub a,_main_2[8]
  37  0070  380A        	snz c
  37  0071  2800     R  	jmp _L72
  38  0072              #line 38 "C:\Users\YVTC\Desktop\單晶片微控制器(一)\0522\combination lock.c"
  38  0072  0700     R  	mov a,_main_2[8]
  38  0073  0B30        	add a,48
  38  0074  0080     R  	mov _LCMWrite_2[0],a
  38  0075  0F01        	mov a,1
  38  0076              	fcall _LCMWrite
  39  007D              #line 39 "C:\Users\YVTC\Desktop\單晶片微控制器(一)\0522\combination lock.c"
  39  007D  0F00     R  	mov a,low offset _main_2
  39  007E  0080     E  	mov rb,a
  39  007F  0F00     R  	mov a,high offset _main_2
  39  0080  0080     E  	mov rc,a
  39  0081  1080     R  	sz _main_2[9]
  39  0082  2800     R  	jmp _L60
  39  0083  0F04        	mov a,4
  39  0084  0380     E  	addm a,rb
  39  0085  0F00        	mov a,0
  39  0086  1380     E  	adcm a,rc
  39  0087              _L60:
  40  0087              #line 40 "C:\Users\YVTC\Desktop\單晶片微控制器(一)\0522\combination lock.c"
  40  0087  0700     E  	mov a,rb
  40  0088  0083        	mov mp,a
  40  0089  0700     E  	mov a,rc
  40  008A  0084        	mov sbp,a
  40  008B  0700     R  	mov a,_main_2[8]
  40  008C  0082        	mov ir,a
  41  008D              #line 41 "C:\Users\YVTC\Desktop\單晶片微控制器(一)\0522\combination lock.c"
  41  008D  0F01        	mov a,1
  41  008E  0300     E  	add a,rb
  41  008F  0080     R  	mov _Get3Keys_2[0],a
  41  0090  0F00        	mov a,0
  41  0091  1300     E  	adc a,rc
  41  0092  0080     R  	mov _Get3Keys_2[1],a
  41  0093              	fcall _Get3Keys
  41  009A  0080     E  	mov ra,a
  41  009B  1E00     E  	snz ra
  41  009C  2800     R  	jmp _L61
  42  009D              #line 42 "C:\Users\YVTC\Desktop\單晶片微控制器(一)\0522\combination lock.c"
  42  009D  0F8B        	mov a,139
  42  009E  0080     R  	mov _LCMWrite_2[0],a
  42  009F  0F00        	mov a,0
  42  00A0              	fcall _LCMWrite
  43  00A7              #line 43 "C:\Users\YVTC\Desktop\單晶片微控制器(一)\0522\combination lock.c"
  43  00A7  0F05        	mov a,5
  43  00A8  0080     R  	mov _main_2[8],a
  43  00A9              _L62:
"File: combination lock.c  Assembler  Version HGASM0202      Page 16

  43  00A9  1780     R  	sdz _main_2[8]
  43  00AA  2800     R  	jmp _LI1
  43  00AB  2800     R  	jmp _L79
  43  00AC              _LI1:
  43  00AC  0F20        	mov a,32
  43  00AD  0080     R  	mov _LCMWrite_2[0],a
  43  00AE  0F01        	mov a,1
  43  00AF              	fcall _LCMWrite
  43  00B6  2800     R  	jmp _L62
  43  00B7              _L79:
  44  00B7              #line 44 "C:\Users\YVTC\Desktop\單晶片微控制器(一)\0522\combination lock.c"
  44  00B7  0F8B        	mov a,139
  44  00B8  0080     R  	mov _LCMWrite_2[0],a
  44  00B9  0F00        	mov a,0
  44  00BA              	fcall _LCMWrite
  45  00C1              #line 45 "C:\Users\YVTC\Desktop\單晶片微控制器(一)\0522\combination lock.c"
  45  00C1  2800     R  	jmp _L72
  45  00C2              _L61:
  48  00C2              #line 48 "C:\Users\YVTC\Desktop\單晶片微控制器(一)\0522\combination lock.c"
  48  00C2  0F00     R  	mov a,low offset _main_2
  48  00C3  0080     E  	mov ra,a
  48  00C4  0F00     R  	mov a,high offset _main_2
  48  00C5  0080     E  	mov rb,a
  47  00C6              #line 47 "C:\Users\YVTC\Desktop\單晶片微控制器(一)\0522\combination lock.c"
  47  00C6  1E00     R  	snz _main_2[9]
  47  00C7  2800     R  	jmp _L64
  48  00C8              #line 48 "C:\Users\YVTC\Desktop\單晶片微控制器(一)\0522\combination lock.c"
  48  00C8  0F04        	mov a,4
  48  00C9  0300     E  	add a,ra
  48  00CA  0080     R  	mov _Read4Byte_2[0],a
  48  00CB  0F00        	mov a,0
  48  00CC  1300     E  	adc a,rb
  48  00CD  0080     R  	mov _Read4Byte_2[1],a
  48  00CE              	fcall _Read4Byte
  49  00D5              #line 49 "C:\Users\YVTC\Desktop\單晶片微控制器(一)\0522\combination lock.c"
  49  00D5  0F00     R  	mov a,low offset _main_2
  49  00D6  0080     E  	mov ra,a
  49  00D7  0F00     R  	mov a,high offset _main_2
  49  00D8  0080     E  	mov rb,a
  49  00D9  0F04        	mov a,4
  49  00DA  0300     E  	add a,ra
  49  00DB  0080     R  	mov _Verify_2[2],a
  49  00DC  0F00        	mov a,0
  49  00DD  1300     E  	adc a,rb
  49  00DE  0080     R  	mov _Verify_2[3],a
  49  00DF  0F00     R  	mov a,low offset _main_2
  49  00E0  0080     R  	mov _Verify_2[0],a
  49  00E1  0F00     R  	mov a,high offset _main_2
  49  00E2  0080     R  	mov _Verify_2[1],a
  49  00E3              	fcall _Verify
  49  00EA  2800     R  	jmp _L65
  49  00EB              _L64:
  52  00EB              #line 52 "C:\Users\YVTC\Desktop\單晶片微控制器(一)\0522\combination lock.c"
  52  00EB  0F04        	mov a,4
  52  00EC  0300     E  	add a,ra
  52  00ED  0080     R  	mov _Write4Byte_2[0],a
  52  00EE  0F00        	mov a,0
  52  00EF  1300     E  	adc a,rb
  52  00F0  0080     R  	mov _Write4Byte_2[1],a
  52  00F1              	fcall _Write4Byte
"File: combination lock.c  Assembler  Version HGASM0202      Page 17

  53  00F8              #line 53 "C:\Users\YVTC\Desktop\單晶片微控制器(一)\0522\combination lock.c"
  53  00F8  0FC0        	mov a,192
  53  00F9  0080     R  	mov _LCMWrite_2[0],a
  53  00FA  0F00        	mov a,0
  53  00FB              	fcall _LCMWrite
  53  0102  1F00     R  	clr _main_2[8]
  53  0103              _L66:
  54  0103              #line 54 "C:\Users\YVTC\Desktop\單晶片微控制器(一)\0522\combination lock.c"
  54  0103  0F00     R  	mov a,low offset _Str5
  54  0104  0300     R  	add a,_main_2[8]
  54  0105  0083        	mov mp,a
  54  0106  0F00     R  	mov a,high offset _Str5
  54  0107  1F04        	clr sbp
  54  0108  1384        	adcm a,sbp
  54  0109              	fcall _Crom2Prom
  54  0110  0080     E  	mov ra,a
  54  0111  1E00     E  	snz ra
  54  0112  2800     R  	jmp _L80
  54  0113  1480     R  	inc _main_2[8]
  54  0114  0700     E  	mov a,ra
  54  0115  0080     R  	mov _LCMWrite_2[0],a
  54  0116  0F01        	mov a,1
  54  0117              	fcall _LCMWrite
  54  011E  2800     R  	jmp _L66
  54  011F              _L80:
  55  011F              #line 55 "C:\Users\YVTC\Desktop\單晶片微控制器(一)\0522\combination lock.c"
  55  011F  0FF4        	mov a,244
  55  0120  00E2        	mov [98],a
  55  0121  0F01        	mov a,1
  55  0122  00E3        	mov [99],a
  56  0123              #line 56 "C:\Users\YVTC\Desktop\單晶片微控制器(一)\0522\combination lock.c"
  56  0123  31DE        	set [94].3
  56  0124  0FC8        	mov a,-56
  56  0125  0080     R  	mov _Delayms_2[0],a
  56  0126  1F00     R  	clr _Delayms_2[1]
  56  0127              	fcall _Delayms
  56  012E  35DE        	clr [94].3
  56  012F              _L65:
  58  012F              #line 58 "C:\Users\YVTC\Desktop\單晶片微控制器(一)\0522\combination lock.c"
  58  012F  0FD0        	mov a,-48
  58  0130  0080     R  	mov _Delayms_2[0],a
  58  0131  0F07        	mov a,7
  58  0132  0080     R  	mov _Delayms_2[1],a
  58  0133              	fcall _Delayms
  59  013A              #line 59 "C:\Users\YVTC\Desktop\單晶片微控制器(一)\0522\combination lock.c"
  59  013A  0F01        	mov a,1
  59  013B  0080     R  	mov _LCMWrite_2[0],a
  59  013C  0F00        	mov a,0
  59  013D              	fcall _LCMWrite
  59  0144  1F00     R  	clr _main_2[8]
  59  0145              _L68:
  60  0145              #line 60 "C:\Users\YVTC\Desktop\單晶片微控制器(一)\0522\combination lock.c"
  60  0145  0F00     R  	mov a,low offset _Str1
  60  0146  0300     R  	add a,_main_2[8]
  60  0147  0083        	mov mp,a
  60  0148  0F00     R  	mov a,high offset _Str1
  60  0149  1F04        	clr sbp
  60  014A  1384        	adcm a,sbp
  60  014B              	fcall _Crom2Prom
  60  0152  0080     E  	mov ra,a
"File: combination lock.c  Assembler  Version HGASM0202      Page 18

  60  0153  1E00     E  	snz ra
  60  0154  2800     R  	jmp _L70
  60  0155  1480     R  	inc _main_2[8]
  60  0156  0700     E  	mov a,ra
  60  0157  0080     R  	mov _LCMWrite_2[0],a
  60  0158  0F01        	mov a,1
  60  0159              	fcall _LCMWrite
  60  0160  2800     R  	jmp _L68
  60  0161              _L72:
  64  0161              #line 64 "C:\Users\YVTC\Desktop\單晶片微控制器(一)\0522\combination lock.c"
  64  0161              	fcall _ScanKey
  64  0168  0080     R  	mov _main_2[8],a
  64  0169  0700     R  	mov a,_main_2[8]
  64  016A  0A10        	sub a,16
  64  016B  3D0A        	sz z
  64  016C  2800     R  	jmp _L72
  65  016D              #line 65 "C:\Users\YVTC\Desktop\單晶片微控制器(一)\0522\combination lock.c"
  65  016D  0F0F        	mov a,15
  65  016E  0080     R  	mov _Delayms_2[0],a
  65  016F  1F00     R  	clr _Delayms_2[1]
  65  0170              	fcall _Delayms
  65  0177              _L74:
  65  0177              	fcall _ScanKey
  65  017E  0080     E  	mov ra,a
  65  017F  0700     E  	mov a,ra
  65  0180  0A10        	sub a,16
  65  0181  390A        	snz z
  65  0182  2800     R  	jmp _L74
  65  0183  0F0F        	mov a,15
  65  0184  0080     R  	mov _Delayms_2[0],a
  65  0185  1F00     R  	clr _Delayms_2[1]
  65  0186              	fcall _Delayms
  66  018D              #line 66 "C:\Users\YVTC\Desktop\單晶片微控制器(一)\0522\combination lock.c"
  66  018D  2800     R  	jmp _L75
  66  018E  2800     R  	jmp $
  66  018F              _main endp
  66  018F              
  66  018F              @dummy endp
  66  018F              
  66  018F              #line 66 "C:\Users\YVTC\Desktop\單晶片微控制器(一)\0522\combination lock.c"
  66  018F              #pragma debug scope 1 1
  66  018F              public _Str5
  66  0000              @crom	.section 'crom'
   9  0000              #line 9 "C:\Users\YVTC\Desktop\單晶片微控制器(一)\0522\combination lock.c"
   9  0000              @crom	.section	'crom'
   9  0000              _Str5:
   9  0000              #pragma debug array 47 8 9 1
   9  0000              #pragma debug array 47 8 9 1
   9  0000              #pragma debug variable 47 1 _Str5 "Str5"
   9  0000              	db 053h,061h,076h,065h,020h,04fh,04bh,021h,00h
   9  0005              public _Str4
   8  0005              #line 8 "C:\Users\YVTC\Desktop\單晶片微控制器(一)\0522\combination lock.c"
   8  0005              @crom	.section	'crom'
   8  0005              _Str4:
   8  0005              #pragma debug array 48 8 8 1
   8  0005              #pragma debug array 48 8 8 1
   8  0005              #pragma debug variable 48 1 _Str4 "Str4"
   8  0005              	db 053h,06fh,072h,072h,079h,021h,021h,00h
   8  0009              public _Str3
   7  0009              #line 7 "C:\Users\YVTC\Desktop\單晶片微控制器(一)\0522\combination lock.c"
"File: combination lock.c  Assembler  Version HGASM0202      Page 19

   7  0009              @crom	.section	'crom'
   7  0009              _Str3:
   7  0009              #pragma debug array 49 8 10 1
   7  0009              #pragma debug array 49 8 10 1
   7  0009              #pragma debug variable 49 1 _Str3 "Str3"
   7  0009              	db 047h,06fh,06fh,064h,020h,04ah,06fh,062h,021h,00h
   7  000E              public _Str2
   6  000E              #line 6 "C:\Users\YVTC\Desktop\單晶片微控制器(一)\0522\combination lock.c"
   6  000E              @crom	.section	'crom'
   6  000E              _Str2:
   6  000E              #pragma debug array 50 8 12 1
   6  000E              #pragma debug array 50 8 12 1
   6  000E              #pragma debug variable 50 1 _Str2 "Str2"
   6  000E              	db 053h,061h,076h,065h,020h,020h,043h,06fh,064h,065h
   6  0013              	db 03ah,00h
   6  0014              public _Str1
   5  0014              #line 5 "C:\Users\YVTC\Desktop\單晶片微控制器(一)\0522\combination lock.c"
   5  0014              @crom	.section	'crom'
   5  0014              _Str1:
   5  0014              #pragma debug variable 50 1 _Str1 "Str1"
   5  0014              	db 049h,06eh,070h,075h,074h,020h,043h,06fh,064h,065h
   5  0019              	db 03ah,00h
   5  001A              #pragma debug variable 8 1 ___mp1l "__mp1l" 1
   5  001A              #pragma debug variable 8 1 ___mp1h "__mp1h" 1
   5  001A              #pragma debug struct_end
   5  001A              #pragma debug struct_end
   5  001A              #pragma debug union_end
   5  001A              #pragma debug union_end
   5  001A              #pragma debug variable 52 1 ___pepu "__pepu" 1
   5  001A              #pragma debug struct_end
   5  001A              #pragma debug struct_end
   5  001A              #pragma debug union_end
   5  001A              #pragma debug union_end
   5  001A              #pragma debug variable 54 1 ___pe "__pe" 1
   5  001A              #pragma debug struct_end
   5  001A              #pragma debug struct_end
   5  001A              #pragma debug union_end
   5  001A              #pragma debug union_end
   5  001A              #pragma debug variable 56 1 ___pec "__pec" 1
   5  001A              #pragma debug struct_end
   5  001A              #pragma debug struct_end
   5  001A              #pragma debug union_end
   5  001A              #pragma debug union_end
   5  001A              #pragma debug variable 58 1 ___pg "__pg" 1
   5  001A              #pragma debug struct_end
   5  001A              #pragma debug struct_end
   5  001A              #pragma debug union_end
   5  001A              #pragma debug union_end
   5  001A              #pragma debug variable 60 1 ___pgc "__pgc" 1
   5  001A              #pragma debug struct_end
   5  001A              #pragma debug struct_end
   5  001A              #pragma debug union_end
   5  001A              #pragma debug union_end
   5  001A              #pragma debug variable 62 1 ___ph "__ph" 1
   5  001A              #pragma debug struct_end
   5  001A              #pragma debug struct_end
   5  001A              #pragma debug union_end
   5  001A              #pragma debug union_end
   5  001A              #pragma debug variable 64 1 ___phc "__phc" 1
   5  001A              #pragma debug struct_end
"File: combination lock.c  Assembler  Version HGASM0202      Page 20

   5  001A              #pragma debug struct_end
   5  001A              #pragma debug union_end
   5  001A              #pragma debug union_end
   5  001A              #pragma debug variable 66 1 ___wdtc "__wdtc" 1
   5  001A              #pragma debug variable 8 1 ___eea "__eea" 1
   5  001A              #pragma debug variable 8 1 ___eed "__eed" 1
   5  001A              #pragma debug struct_end
   5  001A              #pragma debug struct_end
   5  001A              #pragma debug union_end
   5  001A              #pragma debug union_end
   5  001A              #pragma debug variable 68 1 ___tm0c0 "__tm0c0" 1
   5  001A              #pragma debug struct_end
   5  001A              #pragma debug struct_end
   5  001A              #pragma debug union_end
   5  001A              #pragma debug union_end
   5  001A              #pragma debug variable 70 1 ___tm0c1 "__tm0c1" 1
   5  001A              #pragma debug variable 8 1 ___tm0al "__tm0al" 1
   5  001A              #pragma debug variable 8 1 ___tm0ah "__tm0ah" 1
   5  001A              #pragma debug struct_end
   5  001A              #pragma debug struct_end
   5  001A              #pragma debug union_end
   5  001A              #pragma debug union_end
   5  001A              #pragma debug variable 72 1 ___pcs2 "__pcs2" 1
   5  001A              #pragma debug variable 8 1 ___iar1 "__iar1" 1
  19  001A              #line 19 "C:\Users\YVTC\Desktop\單晶片微控制器(一)\0522\combination lock.c"
  19  0000              @code .section at 0 'code'
  19  0000  1F0B        	clr bp
  19  0001  2800     R  	jmp _main_startup1
  19  0002              
  19  0002              
  19  0002              ; 
  19  0002              ; Generated by holtek-gcc v3.18, Tue May 22 10:35:32 2018
  19  0002              ; Rebuild 126
  19  0002              ; end of file


        0 Errors, 0