"File: DecoderV3.c   Assembler  Version HGASM0202      Page 1


   1  0000              ; Generated by holtek-gcc v3.18, Tue May 22 13:14:27 2018
   2  0000              ; 
   3  0000              ; Configuration:
   4  0000              ;       with long instruction
   5  0000              ;       Multi-ROM, Multi-RAM
   6  0000              ;       bits_per_rom_unit:16
   7  0000              ;       with mp1
   8  0000              ;       with tbhp, address(0x9)
   9  0000              ;          Use tabrd-const
  10  0000              ;       
  11  0000              ; SFR address of long-instruction arch:
  12  0000              ;    mp0 = -1,1,0
  13  0000              ;    mp1 = 4,3,2
  14  0000              ;    mp2 = 14,13,12
  15  0000              ;    tbp = 9,7,8
  16  0000              ;    acc = 5
  17  0000              ;    pcl = 6
  18  0000              ;    status = 10
  19  0000              ;    bp = 11
  20  0000              ;    intc = 48
  21  0000              ;       
  22  0000              ;       
  23  0000              ; use 'tabrdc' instead of 'tabrd'
  24  0000              ;       
  25  0000              
  26  0000              #pragma translator "holtek-gcc 4.6.4" "3.18" "build 20130711"
  27  0000              ; Rebuild 126
  28  0000              
  29  0000              ir equ [2]
  30  0000              mp equ [3]
  31  0000              sbp equ [4]
  32  0000              acc equ [5]
  33  0000              bp equ [11]
  34  0000              tblp equ [7]
  35  0000              tbhp equ [9]
  36  0000              status equ [10]
  37  0000              c equ [10].0
  38  0000              ac equ [10].1
  39  0000              z equ [10].2
  40  0000              ov equ [10].3
  41  0000              cz equ [10].6
  42  0000              sc equ [10].7
  43  0000              intc equ [48]
  44  0000              
  45  0000              extern ra:byte
  46  0000              extern rb:byte
  47  0000              extern rc:byte
  48  0000              extern rd:byte
  49  0000              extern re:byte
  50  0000              extern rf:byte
  51  0000              extern rg:byte
  52  0000              extern rh:byte
  53  0000              extern _Crom2Prom:near
  54  0000              extern _Crom2PromNext:near
  55  0000              
  56  0000              RAMBANK 0 @BITDATASEC, @BITDATASEC1
  57  0000              @HCCINIT	.section 'data'
  58  0000              @HCCINIT0	.section 'data'
  59  0000              @BITDATASEC	 .section 'data'
"File: DecoderV3.ASM  Assembler  Version HGASM0202      Page 2

  60  0000              @BITDATASEC1	 .section 'data'
  61  0000              
  62  0000              #pragma debug scope 1 1
  63  0000              	extern __DELAY3:near
  64  0000              	extern __DELAYX3:near
  65  0000              	extern __DELAYX6:near
  66  0000              	extern __DELAYY5:near
  67  0000              	extern __DELAYY3:near
  68  0000              	extern _builtin_holtek_delay_2:byte
  69  0000              ___tm2rp equ [87]
  70  0000              ___tm2c1 equ [82]
  71  0000              ___mfi0 equ [52]
  72  0000              ___pc equ [26]
  73  0000              ___tm2c0 equ [81]
  74  0000              ___tm2ah equ [86]
  75  0000              ___tm2al equ [85]
  76  0000              public _IRDecoder
  77  0000              #pragma debug scope 2 1

  57  0000              #line 57 "C:\Users\YVTC\Desktop\單晶片微控制器(一)\0522\DecoderV3.c"
  57  0000              _IRDecoder .section 'code'
  57  0000              _IRDecoder proc
  57  0000              public _IRDecoder_2
  57  0000  000A[           local _IRDecoder_2 db 10 dup(?)	; 4,6
            00
            ]
  57  000A              #pragma debug pointer 42 12 2
  57  000A              #pragma debug pointer 42 12 2
  57  000A              #pragma debug variable 42 2 _IRDecoder_2+0 "ptradrs"
  57  000A              #pragma debug variable 42 2 _IRDecoder_2+2 "ptrcmd"
  57  000A              #pragma debug variable 14 2 _IRDecoder_2+4 "temp"
  59  000A              #line 59 "C:\Users\YVTC\Desktop\單晶片微控制器(一)\0522\DecoderV3.c"
  59  0000  0F50        	mov a,80
  59  0001  00D7        	mov [87],a
  60  0002              #line 60 "C:\Users\YVTC\Desktop\單晶片微控制器(一)\0522\DecoderV3.c"
  60  0002  0F40        	mov a,64
  60  0003  00D2        	mov [82],a
  61  0004              #line 61 "C:\Users\YVTC\Desktop\單晶片微控制器(一)\0522\DecoderV3.c"
  61  0004  3734        	clr [52].6
  61  0005  37B4        	clr [52].7
  61  0006              _L3:
  63  0006              #line 63 "C:\Users\YVTC\Desktop\單晶片微控制器(一)\0522\DecoderV3.c"
  63  0006  3D9A        	sz [26].3
  63  0007  2800     R  	jmp _L3
  64  0008              #line 64 "C:\Users\YVTC\Desktop\單晶片微控制器(一)\0522\DecoderV3.c"
  64  0008  31D1        	set [81].3
  64  0009              _L4:
  65  0009              #line 65 "C:\Users\YVTC\Desktop\單晶片微控制器(一)\0522\DecoderV3.c"
  65  0009  3FB4        	sz [52].7
  65  000A  2800     R  	jmp _L24
  66  000B              #line 66 "C:\Users\YVTC\Desktop\單晶片微控制器(一)\0522\DecoderV3.c"
  66  000B  3B34        	snz [52].6
  66  000C  2800     R  	jmp _L4
  66  000D  2800     R  	jmp _L21
  66  000E              _L24:
  68  000E              #line 68 "C:\Users\YVTC\Desktop\單晶片微控制器(一)\0522\DecoderV3.c"
  68  000E  35D1        	clr [81].3
  68  000F  37B4        	clr [52].7
  68  0010  3734        	clr [52].6
  69  0011              #line 69 "C:\Users\YVTC\Desktop\單晶片微控制器(一)\0522\DecoderV3.c"
"File: DecoderV3.c   Assembler  Version HGASM0202      Page 3

  69  0011  0756        	mov a,[86]
  69  0012  0080     E  	mov rc,a
  69  0013  1F00     E  	clr rb
  69  0014  0755        	mov a,[85]
  69  0015  0580     E  	orm a,rb
  70  0016              #line 70 "C:\Users\YVTC\Desktop\單晶片微控制器(一)\0522\DecoderV3.c"
  70  0016  0F7F        	mov a,127
  70  0017  0200     E  	sub a,rb
  70  0018  0F3E        	mov a,62
  70  0019  1200     E  	sbc a,rc
  70  001A  3C0A        	sz c
  70  001B  2800     R  	jmp _L22
  71  001C              #line 71 "C:\Users\YVTC\Desktop\單晶片微控制器(一)\0522\DecoderV3.c"
  71  001C  0F50        	mov a,80
  71  001D  00D2        	mov [82],a
  72  001E              #line 72 "C:\Users\YVTC\Desktop\單晶片微控制器(一)\0522\DecoderV3.c"
  72  001E  31D1        	set [81].3
  72  001F              _L9:
  73  001F              #line 73 "C:\Users\YVTC\Desktop\單晶片微控制器(一)\0522\DecoderV3.c"
  73  001F  3FB4        	sz [52].7
  73  0020  2800     R  	jmp _L25
  74  0021              #line 74 "C:\Users\YVTC\Desktop\單晶片微控制器(一)\0522\DecoderV3.c"
  74  0021  3B34        	snz [52].6
  74  0022  2800     R  	jmp _L9
  74  0023              _L21:
  74  0023  35D1        	clr [81].3
  74  0024              _L22:
  74  0024  1F00     E  	clr ra
  74  0025  2800     R  	jmp _L6
  74  0026              _L25:
  76  0026              #line 76 "C:\Users\YVTC\Desktop\單晶片微控制器(一)\0522\DecoderV3.c"
  76  0026  35D1        	clr [81].3
  76  0027  37B4        	clr [52].7
  76  0028  3734        	clr [52].6
  77  0029              #line 77 "C:\Users\YVTC\Desktop\單晶片微控制器(一)\0522\DecoderV3.c"
  77  0029  0756        	mov a,[86]
  77  002A  0080     E  	mov rc,a
  77  002B  1F00     E  	clr rb
  77  002C  0755        	mov a,[85]
  77  002D  0580     E  	orm a,rb
  78  002E              #line 78 "C:\Users\YVTC\Desktop\單晶片微控制器(一)\0522\DecoderV3.c"
  78  002E  0F60        	mov a,96
  78  002F  0300     E  	add a,rb
  78  0030  0080     E  	mov rd,a
  78  0031  0FF0        	mov a,240
  78  0032  1300     E  	adc a,rc
  78  0033  0080     E  	mov re,a
  78  0034  0FE0        	mov a,224
  78  0035  0200     E  	sub a,rd
  78  0036  0F15        	mov a,21
  78  0037  1200     E  	sbc a,re
  78  0038  380A        	snz c
  78  0039  2800     R  	jmp _L22
  79  003A              #line 79 "C:\Users\YVTC\Desktop\單晶片微控制器(一)\0522\DecoderV3.c"
  79  003A  0F4F        	mov a,79
  79  003B  0200     E  	sub a,rb
  79  003C  0F14        	mov a,20
  79  003D  1200     E  	sbc a,rc
  79  003E  3C0A        	sz c
  79  003F  2800     R  	jmp _L18
"File: DecoderV3.c   Assembler  Version HGASM0202      Page 4

  79  0040  1F00     E  	clr rh
  79  0041  0F01        	mov a,1
  79  0042  0080     E  	mov rd,a
  79  0043  1F00     E  	clr re
  79  0044  1F00     E  	clr rf
  79  0045  1F00     E  	clr rg
  79  0046  1F00     R  	clr _IRDecoder_2[4]
  79  0047  1F00     R  	clr _IRDecoder_2[5]
  79  0048  1F00     R  	clr _IRDecoder_2[6]
  79  0049  1F00     R  	clr _IRDecoder_2[7]
  79  004A              _L17:
  81  004A              #line 81 "C:\Users\YVTC\Desktop\單晶片微控制器(一)\0522\DecoderV3.c"
  81  004A  31D1        	set [81].3
  81  004B              _L14:
  82  004B              #line 82 "C:\Users\YVTC\Desktop\單晶片微控制器(一)\0522\DecoderV3.c"
  82  004B  3BB4        	snz [52].7
  82  004C  2800     R  	jmp _L14
  83  004D              #line 83 "C:\Users\YVTC\Desktop\單晶片微控制器(一)\0522\DecoderV3.c"
  83  004D  0756        	mov a,[86]
  83  004E  0080     R  	mov _IRDecoder_2[9],a
  83  004F  1F00     R  	clr _IRDecoder_2[8]
  83  0050  0755        	mov a,[85]
  83  0051  0080     E  	mov ra,a
  84  0052              #line 84 "C:\Users\YVTC\Desktop\單晶片微控制器(一)\0522\DecoderV3.c"
  84  0052  35D1        	clr [81].3
  84  0053  37B4        	clr [52].7
  83  0054              #line 83 "C:\Users\YVTC\Desktop\單晶片微控制器(一)\0522\DecoderV3.c"
  83  0054  0700     R  	mov a,_IRDecoder_2[9]
  83  0055  0080     E  	mov rc,a
  83  0056  0700     E  	mov a,ra
  83  0057  0500     R  	or a,_IRDecoder_2[8]
  83  0058  0080     E  	mov rb,a
  85  0059              #line 85 "C:\Users\YVTC\Desktop\單晶片微控制器(一)\0522\DecoderV3.c"
  85  0059  0FB8        	mov a,184
  85  005A  0200     E  	sub a,rb
  85  005B  0F0B        	mov a,11
  85  005C  1200     E  	sbc a,rc
  85  005D  3C0A        	sz c
  85  005E  2800     R  	jmp _L15
  85  005F  0700     E  	mov a,rg
  85  0060  0580     R  	orm a,_IRDecoder_2[7]
  85  0061  0700     E  	mov a,rf
  85  0062  0580     R  	orm a,_IRDecoder_2[6]
  85  0063  0700     E  	mov a,re
  85  0064  0580     R  	orm a,_IRDecoder_2[5]
  85  0065  0700     E  	mov a,rd
  85  0066  0580     R  	orm a,_IRDecoder_2[4]
  85  0067              _L15:
  86  0067              #line 86 "C:\Users\YVTC\Desktop\單晶片微控制器(一)\0522\DecoderV3.c"
  86  0067  0700     E  	mov a,rd
  86  0068  0380     E  	addm a,rd
  86  0069  0700     E  	mov a,re
  86  006A  1380     E  	adcm a,re
  86  006B  0700     E  	mov a,rf
  86  006C  1380     E  	adcm a,rf
  86  006D  0700     E  	mov a,rg
  86  006E  1380     E  	adcm a,rg
  86  006F  1480     E  	inc rh
  80  0070              #line 80 "C:\Users\YVTC\Desktop\單晶片微控制器(一)\0522\DecoderV3.c"
  80  0070  0700     E  	mov a,rh
"File: DecoderV3.c   Assembler  Version HGASM0202      Page 5

  80  0071  0A20        	sub a,32
  80  0072  390A        	snz z
  80  0073  2800     R  	jmp _L17
  88  0074              #line 88 "C:\Users\YVTC\Desktop\單晶片微控制器(一)\0522\DecoderV3.c"
  88  0074  35D1        	clr [81].3
  89  0075              #line 89 "C:\Users\YVTC\Desktop\單晶片微控制器(一)\0522\DecoderV3.c"
  89  0075  0700     R  	mov a,_IRDecoder_2[0]
  89  0076  0083        	mov mp,a
  89  0077  0700     R  	mov a,_IRDecoder_2[1]
  89  0078  0084        	mov sbp,a
  89  0079  0700     R  	mov a,_IRDecoder_2[4]
  89  007A  0082        	mov ir,a
  89  007B  1483        	inc mp
  89  007C  0700     R  	mov a,_IRDecoder_2[5]
  89  007D  0082        	mov ir,a
  90  007E              #line 90 "C:\Users\YVTC\Desktop\單晶片微控制器(一)\0522\DecoderV3.c"
  90  007E  0700     R  	mov a,_IRDecoder_2[2]
  90  007F  0083        	mov mp,a
  90  0080  0700     R  	mov a,_IRDecoder_2[3]
  90  0081  0084        	mov sbp,a
  90  0082  0700     R  	mov a,_IRDecoder_2[6]
  90  0083  0082        	mov ir,a
  90  0084  1483        	inc mp
  90  0085  0700     R  	mov a,_IRDecoder_2[7]
  90  0086  0082        	mov ir,a
  91  0087              #line 91 "C:\Users\YVTC\Desktop\單晶片微控制器(一)\0522\DecoderV3.c"
  91  0087  0F02        	mov a,2
  91  0088  0080     E  	mov ra,a
  91  0089  2800     R  	jmp _L6
  91  008A              _L18:
  79  008A              #line 79 "C:\Users\YVTC\Desktop\單晶片微控制器(一)\0522\DecoderV3.c"
  79  008A  0F01        	mov a,1
  79  008B  0080     E  	mov ra,a
  79  008C              _L6:
  92  008C              #line 92 "C:\Users\YVTC\Desktop\單晶片微控制器(一)\0522\DecoderV3.c"
  92  008C  0700     E  	mov a,ra
  92  008D  0003        	ret
  92  008E              _IRDecoder endp
  92  008E              #line 92 "C:\Users\YVTC\Desktop\單晶片微控制器(一)\0522\DecoderV3.c"
  92  008E              #pragma debug scope 1 1
  92  008E              ___pgc equ [43]
  92  008E              ___ph equ [46]
  92  008E              ___pg equ [42]
  92  008E              public _LCMWrite
  92  008E              #pragma debug scope 3 1
 104  008E              #line 104 "C:\Users\YVTC\Desktop\單晶片微控制器(一)\0522\DecoderV3.c"
 104  0000              _LCMWrite .section 'code'
 104  0000              _LCMWrite proc
 104  0000              public _LCMWrite_2
 104  0000  0002[           local _LCMWrite_2 db 2 dup(?)	; 1,1
            00
            ]
 104  0000  0080     R  	mov _LCMWrite_2[1],a
 104  0001              #pragma debug variable 8 3 _LCMWrite_2+1 "DCFlag"
 104  0001              #pragma debug variable 8 3 _LCMWrite_2+0 "CD"
 105  0001              #line 105 "C:\Users\YVTC\Desktop\單晶片微控制器(一)\0522\DecoderV3.c"
 105  0001  1FAB        	set [43]
 106  0002              #line 106 "C:\Users\YVTC\Desktop\單晶片微控制器(一)\0522\DecoderV3.c"
 106  0002  342E        	clr [46].0
 106  0003  30AE        	set [46].1
"File: DecoderV3.c   Assembler  Version HGASM0202      Page 6

 107  0004              #line 107 "C:\Users\YVTC\Desktop\單晶片微控制器(一)\0522\DecoderV3.c"
 107  0004              ;# 107 "C:\Users\YVTC\Desktop\單晶片微控制器(一)\0522\DecoderV3.c" 1
 107  0004  0000        	nop
 107  0005              _L28:
 109  0005              #line 109 "C:\Users\YVTC\Desktop\單晶片微控制器(一)\0522\DecoderV3.c"
 109  0005  312E        	set [46].2
 109  0006              ;# 109 "C:\Users\YVTC\Desktop\單晶片微控制器(一)\0522\DecoderV3.c" 1
 109  0006  0000        	nop
 110  0007              #line 110 "C:\Users\YVTC\Desktop\單晶片微控制器(一)\0522\DecoderV3.c"
 110  0007  072A        	mov a,[42]
 110  0008  0080     E  	mov ra,a
 111  0009              #line 111 "C:\Users\YVTC\Desktop\單晶片微控制器(一)\0522\DecoderV3.c"
 111  0009  352E        	clr [46].2
 112  000A              #line 112 "C:\Users\YVTC\Desktop\單晶片微控制器(一)\0522\DecoderV3.c"
 112  000A  3C00     E  	sz ra.7
 112  000B  2800     R  	jmp _L28
 113  000C              #line 113 "C:\Users\YVTC\Desktop\單晶片微控制器(一)\0522\DecoderV3.c"
 113  000C  1F2B        	clr [43]
 114  000D              #line 114 "C:\Users\YVTC\Desktop\單晶片微控制器(一)\0522\DecoderV3.c"
 114  000D  34AE        	clr [46].1
 115  000E              #line 115 "C:\Users\YVTC\Desktop\單晶片微控制器(一)\0522\DecoderV3.c"
 115  000E  0700     R  	mov a,_LCMWrite_2[1]
 115  000F  0E01        	and a,1
 115  0010  0080     E  	mov rb,a
 115  0011  342E        	clr [46].0
 115  0012  0700     E  	mov a,rb
 115  0013  05AE        	orm a,[46]
 116  0014              #line 116 "C:\Users\YVTC\Desktop\單晶片微控制器(一)\0522\DecoderV3.c"
 116  0014  0700     R  	mov a,_LCMWrite_2[0]
 116  0015  00AA        	mov [42],a
 117  0016              #line 117 "C:\Users\YVTC\Desktop\單晶片微控制器(一)\0522\DecoderV3.c"
 117  0016  312E        	set [46].2
 117  0017              ;# 117 "C:\Users\YVTC\Desktop\單晶片微控制器(一)\0522\DecoderV3.c" 1
 117  0017  0000        	nop
 117  0018  352E        	clr [46].2
 119  0019              #line 119 "C:\Users\YVTC\Desktop\單晶片微控制器(一)\0522\DecoderV3.c"
 119  0019  0700     E  	mov a,ra
 119  001A  0003        	ret
 119  001B              _LCMWrite endp
 119  001B              #line 119 "C:\Users\YVTC\Desktop\單晶片微控制器(一)\0522\DecoderV3.c"
 119  001B              #pragma debug scope 1 1
 119  001B              public _Display
 119  001B              #pragma debug scope 4 1
  48  001B              #line 48 "C:\Users\YVTC\Desktop\單晶片微控制器(一)\0522\DecoderV3.c"
  48  0000              _Display .section 'code'
  48  0000              _Display proc
  48  0000              public _Display_2
  48  0000  0006[           local _Display_2 db 6 dup(?)	; 2,4
            00
            ]
  48  0006              #pragma debug pointer 43 12 4
  48  0006              #pragma debug pointer 43 12 4
  48  0006              #pragma debug variable 43 4 _Display_2+0 "ptr"
  48  0006              #pragma debug variable 10 4 _Display_2+4 "x"
  48  0000  0F03        	mov a,3
  48  0001  0080     R  	mov _Display_2[2],a
  48  0002  1F00     R  	clr _Display_2[3]
  48  0003  1F00     R  	clr _Display_2[4]
  48  0004  0FF0        	mov a,-16
  48  0005  0080     R  	mov _Display_2[5],a
"File: DecoderV3.c   Assembler  Version HGASM0202      Page 7

  48  0006              _L33:
  51  0006              #line 51 "C:\Users\YVTC\Desktop\單晶片微控制器(一)\0522\DecoderV3.c"
  51  0006  0700     R  	mov a,_Display_2[0]
  51  0007  0083        	mov mp,a
  51  0008  0700     R  	mov a,_Display_2[1]
  51  0009  0084        	mov sbp,a
  51  000A              	fcall _Crom2Prom
  51  0011  0080     E  	mov rb,a
  51  0012              	fcall _Crom2PromNext
  51  0019  0080     E  	mov rc,a
  51  001A  0700     R  	mov a,_Display_2[4]  
  51  001B  0680     E  	andm a,rb  
  51  001C  0700     R  	mov a,_Display_2[5]  
  51  001D  0680     E  	andm a,rc
  51  001E  340A        	clr c
  51  001F  1A00     R  	rlca _Display_2[2]
  51  0020  0080     E  	mov rd,a
  51  0021  1A00     R  	rlca _Display_2[3]
  51  0022  0080     E  	mov re,a
  51  0023  340A        	clr c
  51  0024  1A80     E  	rlc rd
  51  0025  1A80     E  	rlc re
  51  0026  1400     E  	inca rd
  51  0027  2800     R  	jmp _LI1
  51  0028              _LI2:
  51  0028  340A        	clr c
  51  0029  1B80     E  	rrc rc
  51  002A  1B80     E  	rrc rb
  51  002B              _LI1:
  51  002B  1785        	sdz acc
  51  002C  2800     R  	jmp _LI2
  52  002D              #line 52 "C:\Users\YVTC\Desktop\單晶片微控制器(一)\0522\DecoderV3.c"
  52  002D  0F09        	mov a,9
  52  002E  0200     E  	sub a,rb
  52  002F  3B8A        	snz sc
  52  0030  2800     R  	jmp _L30
  52  0031  0F37        	mov a,55
  52  0032  0380     E  	addm a,rb
  52  0033  2800     R  	jmp _L31
  52  0034              _L30:
  52  0034  0F30        	mov a,48
  52  0035  0380     E  	addm a,rb
  52  0036              _L31:
  53  0036              #line 53 "C:\Users\YVTC\Desktop\單晶片微控制器(一)\0522\DecoderV3.c"
  53  0036  0700     E  	mov a,rb
  53  0037  0080     R  	mov _LCMWrite_2[0],a
  53  0038  0F01        	mov a,1
  53  0039              	fcall _LCMWrite
  54  0040              #line 54 "C:\Users\YVTC\Desktop\單晶片微控制器(一)\0522\DecoderV3.c"
  54  0040  0F04        	mov a,4
  54  0041              _LI3:
  54  0041  340A        	clr c
  54  0042  1B80     R  	rrc _Display_2[5]
  54  0043  1B80     R  	rrc _Display_2[4]
  54  0044  1785        	sdz acc
  54  0045  2800     R  	jmp _LI3
  54  0046  0FFF        	mov a,255
  54  0047  0380     R  	addm a,_Display_2[2]
  54  0048  0FFF        	mov a,255
  54  0049  1380     R  	adcm a,_Display_2[3]
"File: DecoderV3.c   Assembler  Version HGASM0202      Page 8

  54  004A  0700     R  	mov a,_Display_2[2]
  54  004B  0600     R  	and a,_Display_2[3]
  54  004C  0B01        	add a,1
  54  004D  380A        	snz c
  54  004E  2800     R  	jmp _L33
  54  004F  0003        	ret
  54  0050              _Display endp
  54  0050              #line 54 "C:\Users\YVTC\Desktop\單晶片微控制器(一)\0522\DecoderV3.c"
  54  0050              #pragma debug scope 1 1
  54  0050              public _Delayms
  54  0050              #pragma debug scope 5 1
 121  0050              #line 121 "C:\Users\YVTC\Desktop\單晶片微控制器(一)\0522\DecoderV3.c"
 121  0000              _Delayms .section 'code'
 121  0000              _Delayms proc
 121  0000              public _Delayms_2
 121  0000  0002[           local _Delayms_2 db 2 dup(?)	; 2,0
            00
            ]
 121  0002              #pragma debug variable 10 5 _Delayms_2+0 "del"
 122  0002              #line 122 "C:\Users\YVTC\Desktop\單晶片微控制器(一)\0522\DecoderV3.c"
 122  0000  1F00     E  	clr rb
 122  0001  1F00     E  	clr rc
 122  0002  2800     R  	jmp _L35
 122  0003              _L36:
 122  0003              #line 122 "C:\Users\YVTC\Desktop\單晶片微控制器(一)\0522\DecoderV3.c"
 122  0003              ;# 122 "C:\Users\YVTC\Desktop\單晶片微控制器(一)\0522\DecoderV3.c" 1
 122  0003              	IF 2000>263690
 122  0003              ;# 122 "C:\Users\YVTC\Desktop\單晶片微控制器(一)\0522\DecoderV3.c" 1
 122  0003              	ERRMESSAGE 'the value 2000of the argument exceeds the maxinum 263690'
 122  0003              	ENDIF
 122  0003              ;# 122 "C:\Users\YVTC\Desktop\單晶片微控制器(一)\0522\DecoderV3.c" 1
 122  0003              	IF 2000<0
 122  0003              ;# 122 "C:\Users\YVTC\Desktop\單晶片微控制器(一)\0522\DecoderV3.c" 1
 122  0003              	ERRMESSAGE 'the value 2000 of the argument exceeds the mininum 0'
 122  0003              	ENDIF
 122  0003              ;# 122 "C:\Users\YVTC\Desktop\單晶片微控制器(一)\0522\DecoderV3.c" 1
 122  0003              	IF 2000==0
 122  0003              ;# 122 "C:\Users\YVTC\Desktop\單晶片微控制器(一)\0522\DecoderV3.c" 1
 122  0003              	JMP $
 122  0003              	ENDIF
 122  0003              ;# 122 "C:\Users\YVTC\Desktop\單晶片微控制器(一)\0522\DecoderV3.c" 1
 122  0003              	IF (2000>=1) AND (2000<( 4 + __PBP__ * 2))
 122  0003              ;# 122 "C:\Users\YVTC\Desktop\單晶片微控制器(一)\0522\DecoderV3.c" 1
 122  0003              	NOP
 122  0003              	ENDIF
 122  0003              ;# 122 "C:\Users\YVTC\Desktop\單晶片微控制器(一)\0522\DecoderV3.c" 1
 122  0003              	IF (2000>=2) AND (2000<( 4 + __PBP__ * 2))
 122  0003              ;# 122 "C:\Users\YVTC\Desktop\單晶片微控制器(一)\0522\DecoderV3.c" 1
 122  0003              	NOP
 122  0003              	ENDIF
 122  0003              ;# 122 "C:\Users\YVTC\Desktop\單晶片微控制器(一)\0522\DecoderV3.c" 1
 122  0003              	IF (2000>=3) AND (2000<( 4 + __PBP__ * 2))
 122  0003              ;# 122 "C:\Users\YVTC\Desktop\單晶片微控制器(一)\0522\DecoderV3.c" 1
 122  0003              	NOP
 122  0003              	ENDIF
 122  0003              ;# 122 "C:\Users\YVTC\Desktop\單晶片微控制器(一)\0522\DecoderV3.c" 1
 122  0003              	IF (2000>=4) AND (2000<( 4 + __PBP__ * 2)) AND ( __PBP__ > 0 )
 122  0003              ;# 122 "C:\Users\YVTC\Desktop\單晶片微控制器(一)\0522\DecoderV3.c" 1
 122  0003              	NOP
 122  0003              	ENDIF
"File: DecoderV3.c   Assembler  Version HGASM0202      Page 9

 122  0003              ;# 122 "C:\Users\YVTC\Desktop\單晶片微控制器(一)\0522\DecoderV3.c" 1
 122  0003              	IF (2000>=5) AND (2000<( 4 + __PBP__ * 2)) AND ( __PBP__ > 0 )
 122  0003              ;# 122 "C:\Users\YVTC\Desktop\單晶片微控制器(一)\0522\DecoderV3.c" 1
 122  0003              	NOP
 122  0003              	ENDIF
 122  0003              ;# 122 "C:\Users\YVTC\Desktop\單晶片微控制器(一)\0522\DecoderV3.c" 1
 122  0003              	IF (2000>=6) AND (2000<( 4 + __PBP__ * 2))  AND ( __PBP__ > 1 )
 122  0003              ;# 122 "C:\Users\YVTC\Desktop\單晶片微控制器(一)\0522\DecoderV3.c" 1
 122  0003              	NOP
 122  0003              	ENDIF
 122  0003              ;# 122 "C:\Users\YVTC\Desktop\單晶片微控制器(一)\0522\DecoderV3.c" 1
 122  0003              	IF (2000>=7) AND (2000<( 4 + __PBP__ * 2))  AND ( __PBP__ > 1 )
 122  0003              ;# 122 "C:\Users\YVTC\Desktop\單晶片微控制器(一)\0522\DecoderV3.c" 1
 122  0003              	NOP
 122  0003              	ENDIF
 122  0003              ;# 122 "C:\Users\YVTC\Desktop\單晶片微控制器(一)\0522\DecoderV3.c" 1
 122  0003              	IF (2000>=8) AND (2000<( 4 + __PBP__ * 2))  AND ( __PBP__ > 2 )
 122  0003              ;# 122 "C:\Users\YVTC\Desktop\單晶片微控制器(一)\0522\DecoderV3.c" 1
 122  0003              	NOP
 122  0003              	ENDIF
 122  0003              ;# 122 "C:\Users\YVTC\Desktop\單晶片微控制器(一)\0522\DecoderV3.c" 1
 122  0003              	IF (2000==9)  AND ( __PBP__ > 2 )
 122  0003              ;# 122 "C:\Users\YVTC\Desktop\單晶片微控制器(一)\0522\DecoderV3.c" 1
 122  0003              	NOP
 122  0003              	ENDIF
 122  0003              ;# 122 "C:\Users\YVTC\Desktop\單晶片微控制器(一)\0522\DecoderV3.c" 1
 122  0003              	IF (2000< ( 8 + __PBP__ * 2)) AND (2000>( 3 + __PBP__ * 2))
 122  0003              ;# 122 "C:\Users\YVTC\Desktop\單晶片微控制器(一)\0522\DecoderV3.c" 1
 122  0003              	fcall __DELAY3 + ( 7 + __PBP__ * 2) -2000
 122  0003              	ENDIF
 122  0003              ;# 122 "C:\Users\YVTC\Desktop\單晶片微控制器(一)\0522\DecoderV3.c" 1
 122  0003              	IF (2000< ( 0404h + __PBP__ * 2)) AND (2000>( 7 + __PBP__ * 2))
 122  0003              ;# 122 "C:\Users\YVTC\Desktop\單晶片微控制器(一)\0522\DecoderV3.c" 1
 122  0003              	MOV A,(2000-( 4 + __PBP__ * 2))/4
 122  0003              ;# 122 "C:\Users\YVTC\Desktop\單晶片微控制器(一)\0522\DecoderV3.c" 1
 122  0003              	fcall __DELAYX3 + 3 -((2000-( 4 + __PBP__ * 2)) MOD 4) 
 122  0003              	ENDIF
 122  0003              ;# 122 "C:\Users\YVTC\Desktop\單晶片微控制器(一)\0522\DecoderV3.c" 1
 122  0003              	IF (2000< ( 040bh + __PBP__ * 2)) AND (2000> ( 0403h + __PBP__ * 2))
 122  0003              ;# 122 "C:\Users\YVTC\Desktop\單晶片微控制器(一)\0522\DecoderV3.c" 1
 122  0003              	MOV A,0 
 122  0003              ;# 122 "C:\Users\YVTC\Desktop\單晶片微控制器(一)\0522\DecoderV3.c" 1
 122  0003              	fcall __DELAYX6 + ( 040ah + __PBP__ * 2) -2000
 122  0003              	ENDIF
 122  0003              ;# 122 "C:\Users\YVTC\Desktop\單晶片微控制器(一)\0522\DecoderV3.c" 1
 122  0003              	IF (2000 >= ( 040bh + __PBP__ * 2)) AND ((((2000-( 9 + __PBP__ * 2))%0402h)/4+1)>256)
 122  0003              ;# 122 "C:\Users\YVTC\Desktop\單晶片微控制器(一)\0522\DecoderV3.c" 1
 122  0003              	MOV A,(2000-( 9 + __PBP__ * 2))/0402h
 122  0003              ;# 122 "C:\Users\YVTC\Desktop\單晶片微控制器(一)\0522\DecoderV3.c" 1
 122  0003              	MOV _builtin_holtek_delay_2,A
 122  0003              ;# 122 "C:\Users\YVTC\Desktop\單晶片微控制器(一)\0522\DecoderV3.c" 1
 122  0003              	MOV A,0
 122  0003              ;# 122 "C:\Users\YVTC\Desktop\單晶片微控制器(一)\0522\DecoderV3.c" 1
 122  0003              	fcall __DELAYY5 +5- (((2000-( 9 + __PBP__ * 2))%0402h)%6) 
 122  0003              	ENDIF
 122  0003              ;# 122 "C:\Users\YVTC\Desktop\單晶片微控制器(一)\0522\DecoderV3.c" 1
 122  0003              	IF (2000 >= ( 040bh + __PBP__ * 2)) AND ((((2000-( 9 + __PBP__ * 2))%0402h)/4+1)<=256)
 122  0003              ;# 122 "C:\Users\YVTC\Desktop\單晶片微控制器(一)\0522\DecoderV3.c" 1
 122  0003  0F01        	MOV A,(2000-( 9 + __PBP__ * 2))/0402h
 122  0004              ;# 122 "C:\Users\YVTC\Desktop\單晶片微控制器(一)\0522\DecoderV3.c" 1
"File: DecoderV3.c   Assembler  Version HGASM0202      Page 10

 122  0004  0080     E  	MOV _builtin_holtek_delay_2,A
 122  0005              ;# 122 "C:\Users\YVTC\Desktop\單晶片微控制器(一)\0522\DecoderV3.c" 1
 122  0005  0FF1        	MOV A,((2000-( 9 + __PBP__ * 2))%0402h)/4+1
 122  0006              ;# 122 "C:\Users\YVTC\Desktop\單晶片微控制器(一)\0522\DecoderV3.c" 1
 122  0006              	fcall __DELAYY3 +3-(((2000-( 9 + __PBP__ * 2))%0402h)%4) 
 122  000D              	ENDIF
 122  000D  1480     E  	inc rb
 122  000E  3D0A        	sz z
 122  000F  1480     E  	inc rc
 122  0010              _L35:
 122  0010  0700     E  	mov a,rb
 122  0011  0200     R  	sub a,_Delayms_2[0]
 122  0012  0700     E  	mov a,rc
 122  0013  1200     R  	sbc a,_Delayms_2[1]
 122  0014  3B0A        	snz cz
 122  0015  2800     R  	jmp _L36
 122  0016  0003        	ret
 122  0017              _Delayms endp
 122  0017              #line 122 "C:\Users\YVTC\Desktop\單晶片微控制器(一)\0522\DecoderV3.c"
 122  0017              #pragma debug scope 1 1
 122  0017              ___phc equ [47]
 122  0017              public _LCMInit
 122  0017              #pragma debug scope 6 1
  95  0017              #line 95 "C:\Users\YVTC\Desktop\單晶片微控制器(一)\0522\DecoderV3.c"
  95  0000              _LCMInit .section 'code'
  95  0000              _LCMInit proc
  95  0000  352E        	clr [46].2
  95  0001  34AE        	clr [46].1
  95  0002  342E        	clr [46].0
  96  0003              #line 96 "C:\Users\YVTC\Desktop\單晶片微控制器(一)\0522\DecoderV3.c"
  96  0003  352F        	clr [47].2
  96  0004  34AF        	clr [47].1
  96  0005  342F        	clr [47].0
  97  0006              #line 97 "C:\Users\YVTC\Desktop\單晶片微控制器(一)\0522\DecoderV3.c"
  97  0006  0F28        	mov a,40
  97  0007  0080     R  	mov _Delayms_2[0],a
  97  0008  1F00     R  	clr _Delayms_2[1]
  97  0009              	fcall _Delayms
  98  0010              #line 98 "C:\Users\YVTC\Desktop\單晶片微控制器(一)\0522\DecoderV3.c"
  98  0010  0F38        	mov a,56
  98  0011  0080     R  	mov _LCMWrite_2[0],a
  98  0012  0F00        	mov a,0
  98  0013              	fcall _LCMWrite
  99  001A              #line 99 "C:\Users\YVTC\Desktop\單晶片微控制器(一)\0522\DecoderV3.c"
  99  001A  0F0C        	mov a,12
  99  001B  0080     R  	mov _LCMWrite_2[0],a
  99  001C  0F00        	mov a,0
  99  001D              	fcall _LCMWrite
 100  0024              #line 100 "C:\Users\YVTC\Desktop\單晶片微控制器(一)\0522\DecoderV3.c"
 100  0024  0F06        	mov a,6
 100  0025  0080     R  	mov _LCMWrite_2[0],a
 100  0026  0F00        	mov a,0
 100  0027              	fcall _LCMWrite
 101  002E              #line 101 "C:\Users\YVTC\Desktop\單晶片微控制器(一)\0522\DecoderV3.c"
 101  002E  0F01        	mov a,1
 101  002F  0080     R  	mov _LCMWrite_2[0],a
 101  0030  0F00        	mov a,0
 101  0031              	fcall _LCMWrite
 101  0038  0003        	ret
 101  0039              _LCMInit endp
"File: DecoderV3.c   Assembler  Version HGASM0202      Page 11

 101  0039              #line 101 "C:\Users\YVTC\Desktop\單晶片微控制器(一)\0522\DecoderV3.c"
 101  0039              #pragma debug scope 1 1
 101  0039              ___wdtc equ [62]
 101  0039              ___tm0c0 equ [94]
 101  0039              ___tm0c1 equ [95]
 101  0039              ___tm0al equ [98]
 101  0039              ___tm0ah equ [99]
 101  0039              ___pcs2 equ [362]
 101  0039              ___ifs2 equ [330]
 101  0039              public _main
 101  0039              #pragma debug scope 7 1
  15  0039              #line 15 "C:\Users\YVTC\Desktop\單晶片微控制器(一)\0522\DecoderV3.c"
  15  0039              IFDEF WITH_DEFAULT_STARTUP
  15  0039              extern _main_initial0:near
  15  0039              extern _main_startup:near
  15  0039              ENDIF
  15  0039              
  15  0039              ROMBANK 0 @start
  15  0000              @start .section com_l 'code'
  15  0000              _main_startup1:
  15  0000              @start .section com_e 'code'
  15  0000  0F00     R  	mov a,bank _main
  15  0001  008B        	mov bp,a
  15  0002  2800     R  	jmp _main
  15  0003              
  15  0000              _main .section 'code'
  15  0000              _main proc
  15  0000  0005[           local _main_2 db 5 dup(?)
            00
            ]
  15  0005              #pragma debug variable 10 7 _main_2+2 "adrs"
  15  0005              #pragma debug variable 10 7 _main_2+0 "cmd"
  15  0005              #pragma debug variable 8 7 _main_2+4 "state"
  16  0005              #line 16 "C:\Users\YVTC\Desktop\單晶片微控制器(一)\0522\DecoderV3.c"
  16  0000  0FAF        	mov a,175
  16  0001  00BE        	mov [62],a
  17  0002              #line 17 "C:\Users\YVTC\Desktop\單晶片微控制器(一)\0522\DecoderV3.c"
  17  0002  1F5E        	clr [94]
  17  0003  0F31        	mov a,49
  17  0004  00DF        	mov [95],a
  18  0005              #line 18 "C:\Users\YVTC\Desktop\單晶片微控制器(一)\0522\DecoderV3.c"
  18  0005  0FF4        	mov a,244
  18  0006  00E2        	mov [98],a
  18  0007  0F01        	mov a,1
  18  0008  00E3        	mov [99],a
  19  0009              #line 19 "C:\Users\YVTC\Desktop\單晶片微控制器(一)\0522\DecoderV3.c"
  19  0009  0F20        	mov a,32
  19  000A  80EA 0001   	lmov [362],a
  20  000C              #line 20 "C:\Users\YVTC\Desktop\單晶片微控制器(一)\0522\DecoderV3.c"
  20  000C  1F51        	clr [81]
  21  000D              #line 21 "C:\Users\YVTC\Desktop\單晶片微控制器(一)\0522\DecoderV3.c"
  21  000D  9F4A 0001   	lclr [330]
  22  000F              #line 22 "C:\Users\YVTC\Desktop\單晶片微控制器(一)\0522\DecoderV3.c"
  22  000F              	fcall _LCMInit
  23  0016              #line 23 "C:\Users\YVTC\Desktop\單晶片微控制器(一)\0522\DecoderV3.c"
  23  0016  0F80        	mov a,128
  23  0017  0080     R  	mov _LCMWrite_2[0],a
  23  0018  0F00        	mov a,0
  23  0019              	fcall _LCMWrite
  23  0020  1F00     R  	clr _main_2[4]
"File: DecoderV3.c   Assembler  Version HGASM0202      Page 12

  23  0021              _L39:
  24  0021              #line 24 "C:\Users\YVTC\Desktop\單晶片微控制器(一)\0522\DecoderV3.c"
  24  0021  0F00     R  	mov a,low offset _STR1
  24  0022  0300     R  	add a,_main_2[4]
  24  0023  0083        	mov mp,a
  24  0024  0F00     R  	mov a,high offset _STR1
  24  0025  1F04        	clr sbp
  24  0026  1384        	adcm a,sbp
  24  0027              	fcall _Crom2Prom
  24  002E  0080     E  	mov ra,a
  24  002F  1E00     E  	snz ra
  24  0030  2800     R  	jmp _L49
  24  0031  1480     R  	inc _main_2[4]
  24  0032  0700     E  	mov a,ra
  24  0033  0080     R  	mov _LCMWrite_2[0],a
  24  0034  0F01        	mov a,1
  24  0035              	fcall _LCMWrite
  24  003C  2800     R  	jmp _L39
  24  003D              _L49:
  25  003D              #line 25 "C:\Users\YVTC\Desktop\單晶片微控制器(一)\0522\DecoderV3.c"
  25  003D  0FC0        	mov a,192
  25  003E  0080     R  	mov _LCMWrite_2[0],a
  25  003F  0F00        	mov a,0
  25  0040              	fcall _LCMWrite
  25  0047  1F00     R  	clr _main_2[4]
  25  0048              _L41:
  26  0048              #line 26 "C:\Users\YVTC\Desktop\單晶片微控制器(一)\0522\DecoderV3.c"
  26  0048  0F00     R  	mov a,low offset _STR2
  26  0049  0300     R  	add a,_main_2[4]
  26  004A  0083        	mov mp,a
  26  004B  0F00     R  	mov a,high offset _STR2
  26  004C  1F04        	clr sbp
  26  004D  1384        	adcm a,sbp
  26  004E              	fcall _Crom2Prom
  26  0055  0080     E  	mov ra,a
  26  0056  1E00     E  	snz ra
  26  0057  2800     R  	jmp _L47
  26  0058  1480     R  	inc _main_2[4]
  26  0059  0700     E  	mov a,ra
  26  005A  0080     R  	mov _LCMWrite_2[0],a
  26  005B  0F01        	mov a,1
  26  005C              	fcall _LCMWrite
  26  0063  2800     R  	jmp _L41
  26  0064              _L50:
  29  0064              #line 29 "C:\Users\YVTC\Desktop\單晶片微控制器(一)\0522\DecoderV3.c"
  29  0064  1700     R  	sdza _main_2[4]
  29  0065  2800     R  	jmp _LI4
  29  0066  2800     R  	jmp _L45
  29  0067              _LI4:
  29  0067  0700     R  	mov a,_main_2[4]
  29  0068  0A02        	sub a,2
  29  0069  390A        	snz z
  29  006A  2800     R  	jmp _L43
  31  006B              #line 31 "C:\Users\YVTC\Desktop\單晶片微控制器(一)\0522\DecoderV3.c"
  31  006B  0F89        	mov a,137
  31  006C  0080     R  	mov _LCMWrite_2[0],a
  31  006D  0F00        	mov a,0
  31  006E              	fcall _LCMWrite
  31  0075  0F00     R  	mov a,low offset _main_2
  31  0076  0080     E  	mov ra,a
"File: DecoderV3.c   Assembler  Version HGASM0202      Page 13

  31  0077  0F00     R  	mov a,high offset _main_2
  31  0078  0080     E  	mov rb,a
  31  0079  0F02        	mov a,2
  31  007A  0300     E  	add a,ra
  31  007B  0080     R  	mov _Display_2[0],a
  31  007C  0F00        	mov a,0
  31  007D  1300     E  	adc a,rb
  31  007E  0080     R  	mov _Display_2[1],a
  31  007F              	fcall _Display
  32  0086              #line 32 "C:\Users\YVTC\Desktop\單晶片微控制器(一)\0522\DecoderV3.c"
  32  0086  0FC9        	mov a,201
  32  0087  0080     R  	mov _LCMWrite_2[0],a
  32  0088  0F00        	mov a,0
  32  0089              	fcall _LCMWrite
  32  0090  0F00     R  	mov a,low offset _main_2
  32  0091  0080     R  	mov _Display_2[0],a
  32  0092  0F00     R  	mov a,high offset _main_2
  32  0093  0080     R  	mov _Display_2[1],a
  32  0094              	fcall _Display
  32  009B              _L43:
  41  009B              #line 41 "C:\Users\YVTC\Desktop\單晶片微控制器(一)\0522\DecoderV3.c"
  41  009B  31DE        	set [94].3
  41  009C  0F19        	mov a,25
  41  009D  0080     R  	mov _Delayms_2[0],a
  41  009E  1F00     R  	clr _Delayms_2[1]
  41  009F              	fcall _Delayms
  41  00A6  35DE        	clr [94].3
  41  00A7  0F0F        	mov a,15
  41  00A8  0080     R  	mov _Delayms_2[0],a
  41  00A9  1F00     R  	clr _Delayms_2[1]
  41  00AA              	fcall _Delayms
  42  00B1              #line 42 "C:\Users\YVTC\Desktop\單晶片微控制器(一)\0522\DecoderV3.c"
  42  00B1  31DE        	set [94].3
  42  00B2  0F19        	mov a,25
  42  00B3  0080     R  	mov _Delayms_2[0],a
  42  00B4  1F00     R  	clr _Delayms_2[1]
  42  00B5              	fcall _Delayms
  42  00BC  35DE        	clr [94].3
  42  00BD  0F32        	mov a,50
  42  00BE  0080     R  	mov _Delayms_2[0],a
  42  00BF  1F00     R  	clr _Delayms_2[1]
  42  00C0              	fcall _Delayms
  43  00C7              #line 43 "C:\Users\YVTC\Desktop\單晶片微控制器(一)\0522\DecoderV3.c"
  43  00C7  0F8F        	mov a,143
  43  00C8  0080     R  	mov _LCMWrite_2[0],a
  43  00C9  0F00        	mov a,0
  43  00CA              	fcall _LCMWrite
  43  00D1  0F20        	mov a,32
  43  00D2  0080     R  	mov _LCMWrite_2[0],a
  43  00D3  0F01        	mov a,1
  43  00D4              	fcall _LCMWrite
  44  00DB              #line 44 "C:\Users\YVTC\Desktop\單晶片微控制器(一)\0522\DecoderV3.c"
  44  00DB  0FCF        	mov a,207
  44  00DC  0080     R  	mov _LCMWrite_2[0],a
  44  00DD  0F00        	mov a,0
  44  00DE              	fcall _LCMWrite
  44  00E5  0F20        	mov a,32
  44  00E6  0080     R  	mov _LCMWrite_2[0],a
  44  00E7  0F01        	mov a,1
  44  00E8              	fcall _LCMWrite
"File: DecoderV3.c   Assembler  Version HGASM0202      Page 14

  44  00EF              _L47:
  28  00EF              #line 28 "C:\Users\YVTC\Desktop\單晶片微控制器(一)\0522\DecoderV3.c"
  28  00EF  0F00     R  	mov a,low offset _main_2
  28  00F0  0080     R  	mov _IRDecoder_2[2],a
  28  00F1  0F00     R  	mov a,high offset _main_2
  28  00F2  0080     R  	mov _IRDecoder_2[3],a
  28  00F3  0F00     R  	mov a,low offset _main_2
  28  00F4  0080     E  	mov ra,a
  28  00F5  0F00     R  	mov a,high offset _main_2
  28  00F6  0080     E  	mov rb,a
  28  00F7  0F02        	mov a,2
  28  00F8  0300     E  	add a,ra
  28  00F9  0080     R  	mov _IRDecoder_2[0],a
  28  00FA  0F00        	mov a,0
  28  00FB  1300     E  	adc a,rb
  28  00FC  0080     R  	mov _IRDecoder_2[1],a
  28  00FD              	fcall _IRDecoder
  28  0104  0080     R  	mov _main_2[4],a
  29  0105              #line 29 "C:\Users\YVTC\Desktop\單晶片微控制器(一)\0522\DecoderV3.c"
  29  0105  1E00     R  	snz _main_2[4]
  29  0106  2800     R  	jmp _L44
  29  0107  2800     R  	jmp _L50
  29  0108              _L45:
  35  0108              #line 35 "C:\Users\YVTC\Desktop\單晶片微控制器(一)\0522\DecoderV3.c"
  35  0108  0F8F        	mov a,143
  35  0109  0080     R  	mov _LCMWrite_2[0],a
  35  010A  0F00        	mov a,0
  35  010B              	fcall _LCMWrite
  35  0112  0F52        	mov a,82
  35  0113  0080     R  	mov _LCMWrite_2[0],a
  35  0114  2800     R  	jmp _L48
  35  0115              _L44:
  38  0115              #line 38 "C:\Users\YVTC\Desktop\單晶片微控制器(一)\0522\DecoderV3.c"
  38  0115  0FCF        	mov a,207
  38  0116  0080     R  	mov _LCMWrite_2[0],a
  38  0117  0F00        	mov a,0
  38  0118              	fcall _LCMWrite
  38  011F  0F2E        	mov a,46
  38  0120  0080     R  	mov _LCMWrite_2[0],a
  38  0121              _L48:
  38  0121  0F01        	mov a,1
  38  0122              	fcall _LCMWrite
  39  0129              #line 39 "C:\Users\YVTC\Desktop\單晶片微控制器(一)\0522\DecoderV3.c"
  39  0129  2800     R  	jmp _L43
  39  012A  2800     R  	jmp $
  39  012B              _main endp
  39  012B              
  39  012B              @dummy endp
  39  012B              
  39  012B              #line 39 "C:\Users\YVTC\Desktop\單晶片微控制器(一)\0522\DecoderV3.c"
  39  012B              #pragma debug scope 1 1
  39  012B              public _STR2
  39  0000              @crom	.section 'crom'
  13  0000              #line 13 "C:\Users\YVTC\Desktop\單晶片微控制器(一)\0522\DecoderV3.c"
  13  0000              @crom	.section	'crom'
  13  0000              _STR2:
  13  0000              #pragma debug array 44 8 9 1
  13  0000              #pragma debug array 44 8 9 1
  13  0000              #pragma debug variable 44 1 _STR2 "STR2"
  13  0000              	db 043h,06fh,06dh,06dh,061h,06eh,064h,03ah,00h
"File: DecoderV3.c   Assembler  Version HGASM0202      Page 15

  13  0005              public _STR1
  12  0005              #line 12 "C:\Users\YVTC\Desktop\單晶片微控制器(一)\0522\DecoderV3.c"
  12  0005              @crom	.section	'crom'
  12  0005              _STR1:
  12  0005              #pragma debug variable 44 1 _STR1 "STR1"
  12  0005              	db 043h,055h,053h,02eh,020h,049h,044h,03ah,00h
  12  0009              #pragma debug struct_end
  12  0009              #pragma debug struct_end
  12  0009              #pragma debug union_end
  12  0009              #pragma debug union_end
  12  0009              #pragma debug variable 46 1 ___pc "__pc" 1
  12  0009              #pragma debug struct_end
  12  0009              #pragma debug struct_end
  12  0009              #pragma debug union_end
  12  0009              #pragma debug union_end
  12  0009              #pragma debug variable 48 1 ___pg "__pg" 1
  12  0009              #pragma debug struct_end
  12  0009              #pragma debug struct_end
  12  0009              #pragma debug union_end
  12  0009              #pragma debug union_end
  12  0009              #pragma debug variable 50 1 ___pgc "__pgc" 1
  12  0009              #pragma debug struct_end
  12  0009              #pragma debug struct_end
  12  0009              #pragma debug union_end
  12  0009              #pragma debug union_end
  12  0009              #pragma debug variable 52 1 ___ph "__ph" 1
  12  0009              #pragma debug struct_end
  12  0009              #pragma debug struct_end
  12  0009              #pragma debug union_end
  12  0009              #pragma debug union_end
  12  0009              #pragma debug variable 54 1 ___phc "__phc" 1
  12  0009              #pragma debug struct_end
  12  0009              #pragma debug struct_end
  12  0009              #pragma debug union_end
  12  0009              #pragma debug union_end
  12  0009              #pragma debug variable 56 1 ___mfi0 "__mfi0" 1
  12  0009              #pragma debug struct_end
  12  0009              #pragma debug struct_end
  12  0009              #pragma debug union_end
  12  0009              #pragma debug union_end
  12  0009              #pragma debug variable 58 1 ___wdtc "__wdtc" 1
  12  0009              #pragma debug struct_end
  12  0009              #pragma debug struct_end
  12  0009              #pragma debug union_end
  12  0009              #pragma debug union_end
  12  0009              #pragma debug variable 60 1 ___tm2c0 "__tm2c0" 1
  12  0009              #pragma debug struct_end
  12  0009              #pragma debug struct_end
  12  0009              #pragma debug union_end
  12  0009              #pragma debug union_end
  12  0009              #pragma debug variable 62 1 ___tm2c1 "__tm2c1" 1
  12  0009              #pragma debug variable 8 1 ___tm2al "__tm2al" 1
  12  0009              #pragma debug variable 8 1 ___tm2ah "__tm2ah" 1
  12  0009              #pragma debug variable 8 1 ___tm2rp "__tm2rp" 1
  12  0009              #pragma debug struct_end
  12  0009              #pragma debug struct_end
  12  0009              #pragma debug union_end
  12  0009              #pragma debug union_end
  12  0009              #pragma debug variable 64 1 ___tm0c0 "__tm0c0" 1
  12  0009              #pragma debug struct_end
"File: DecoderV3.c   Assembler  Version HGASM0202      Page 16

  12  0009              #pragma debug struct_end
  12  0009              #pragma debug union_end
  12  0009              #pragma debug union_end
  12  0009              #pragma debug variable 66 1 ___tm0c1 "__tm0c1" 1
  12  0009              #pragma debug variable 8 1 ___tm0al "__tm0al" 1
  12  0009              #pragma debug variable 8 1 ___tm0ah "__tm0ah" 1
  12  0009              #pragma debug struct_end
  12  0009              #pragma debug struct_end
  12  0009              #pragma debug union_end
  12  0009              #pragma debug union_end
  12  0009              #pragma debug variable 68 1 ___ifs2 "__ifs2" 1
  12  0009              #pragma debug struct_end
  12  0009              #pragma debug struct_end
  12  0009              #pragma debug union_end
  12  0009              #pragma debug union_end
  12  0009              #pragma debug variable 70 1 ___pcs2 "__pcs2" 1
  15  0009              #line 15 "C:\Users\YVTC\Desktop\單晶片微控制器(一)\0522\DecoderV3.c"
  15  0000              @code .section at 0 'code'
  15  0000  1F0B        	clr bp
  15  0001  2800     R  	jmp _main_startup1
  15  0002              
  15  0002              
  15  0002              ; 
  15  0002              ; Generated by holtek-gcc v3.18, Tue May 22 13:14:27 2018
  15  0002              ; Rebuild 126
  15  0002              ; end of file


        0 Errors, 0