"File: H5-10_1.c     Assembler  Version HGASM0202      Page 1


   1  0000              ; Generated by holtek-gcc v3.18, Tue May 15 13:06:21 2018
   2  0000              ; 
   3  0000              ; Configuration:
   4  0000              ;       with long instruction
   5  0000              ;       Multi-ROM, Multi-RAM
   6  0000              ;       bits_per_rom_unit:16
   7  0000              ;       with mp1
   8  0000              ;       with tbhp, address(0x9)
   9  0000              ;          Use tabrd-const
  10  0000              ;       
  11  0000              ; SFR address of long-instruction arch:
  12  0000              ;    mp0 = -1,1,0
  13  0000              ;    mp1 = 4,3,2
  14  0000              ;    mp2 = 14,13,12
  15  0000              ;    tbp = 9,7,8
  16  0000              ;    acc = 5
  17  0000              ;    pcl = 6
  18  0000              ;    status = 10
  19  0000              ;    bp = 11
  20  0000              ;    intc = 48
  21  0000              ;       
  22  0000              ;       
  23  0000              ; use 'tabrdc' instead of 'tabrd'
  24  0000              ;       
  25  0000              
  26  0000              #pragma translator "holtek-gcc 4.6.4" "3.18" "build 20130711"
  27  0000              ; Rebuild 126
  28  0000              
  29  0000              ir equ [2]
  30  0000              mp equ [3]
  31  0000              sbp equ [4]
  32  0000              acc equ [5]
  33  0000              bp equ [11]
  34  0000              tblp equ [7]
  35  0000              tbhp equ [9]
  36  0000              status equ [10]
  37  0000              c equ [10].0
  38  0000              ac equ [10].1
  39  0000              z equ [10].2
  40  0000              ov equ [10].3
  41  0000              cz equ [10].6
  42  0000              sc equ [10].7
  43  0000              intc equ [48]
  44  0000              
  45  0000              extern ra:byte
  46  0000              extern rb:byte
  47  0000              extern rc:byte
  48  0000              extern rd:byte
  49  0000              extern re:byte
  50  0000              extern rf:byte
  51  0000              extern rg:byte
  52  0000              extern rh:byte
  53  0000              extern _Crom2Prom:near
  54  0000              extern _Crom2PromNext:near
  55  0000              
  56  0000              RAMBANK 0 @BITDATASEC, @BITDATASEC1
  57  0000              @HCCINIT	.section 'data'
  58  0000              @HCCINIT0	.section 'data'
  59  0000              @BITDATASEC	 .section 'data'
"File: H5-10_1.ASM   Assembler  Version HGASM0202      Page 2

  60  0000              @BITDATASEC1	 .section 'data'
  61  0000              
  62  0000              #pragma debug scope 1 1
  63  0000              	extern __DELAY3:near
  64  0000              	extern __DELAYX3:near
  65  0000              	extern __DELAYX6:near
  66  0000              	extern __DELAYY5:near
  67  0000              	extern __DELAYY3:near
  68  0000              	extern _builtin_holtek_delay_2:byte
  69  0000              public _BitReverse
  70  0000              #pragma debug scope 2 1

  64  0000              #line 64 "C:\Users\YVTC\Desktop\單晶片微控制器(一)\0515\H5-10_1.c"
  64  0000              _BitReverse .section 'code'
  64  0000              _BitReverse proc
  64  0000  0002[           local _BitReverse_2 db 2 dup(?)	; 0,2
            00
            ]
  64  0000  0080     R  	mov _BitReverse_2[0],a
  64  0001              #pragma debug variable 8 2 _BitReverse_2+0 "data"
  64  0001  0F05        	mov a,5
  64  0002  0080     R  	mov _BitReverse_2[1],a
  64  0003  1F00     E  	clr ra
  65  0004              #line 65 "C:\Users\YVTC\Desktop\單晶片微控制器(一)\0515\H5-10_1.c"
  65  0004  1F00     E  	clr rh
  66  0005              #line 66 "C:\Users\YVTC\Desktop\單晶片微控制器(一)\0515\H5-10_1.c"
  66  0005  0F01        	mov a,1
  66  0006  0080     E  	mov rd,a
  66  0007  1F00     E  	clr re
  66  0008              _L4:
  66  0008              #line 66 "C:\Users\YVTC\Desktop\單晶片微控制器(一)\0515\H5-10_1.c"
  66  0008  0700     E  	mov a,rh
  66  0009  0080     E  	mov rf,a
  66  000A  1F00     E  	clr rg
  66  000B  0700     R  	mov a,_BitReverse_2[0]
  66  000C  0080     E  	mov rb,a
  66  000D  1F00     E  	clr rc
  66  000E  1400     E  	inca rh
  66  000F  2800     R  	jmp _LI1
  66  0010              _LI2:
  66  0010  340A        	clr c
  66  0011  3C00     E  	sz rc.7
  66  0012  300A        	set c
  66  0013  1B80     E  	rrc rc
  66  0014  1B80     E  	rrc rb
  66  0015              _LI1:
  66  0015  1785        	sdz acc
  66  0016  2800     R  	jmp _LI2
  66  0017  3800     E  	snz rb.0
  66  0018  2800     R  	jmp _L2
  66  0019  0F04        	mov a,4
  66  001A  0280     E  	subm a,rf
  66  001B  0F00        	mov a,0
  66  001C  1280     E  	sbcm a,rg
  66  001D  0700     E  	mov a,rd
  66  001E  0080     E  	mov rb,a
  66  001F  0700     E  	mov a,re
  66  0020  0080     E  	mov rc,a
  66  0021  1400     E  	inca rf
  66  0022  2800     R  	jmp _LI3
"File: H5-10_1.c     Assembler  Version HGASM0202      Page 3

  66  0023              _LI4:
  66  0023  340A        	clr c
  66  0024  1A80     E  	rlc rb
  66  0025  1A80     E  	rlc rc
  66  0026              _LI3:
  66  0026  1785        	sdz acc
  66  0027  2800     R  	jmp _LI4
  66  0028  0700     E  	mov a,rb
  66  0029  0580     E  	orm a,ra
  66  002A              _L2:
  65  002A              #line 65 "C:\Users\YVTC\Desktop\單晶片微控制器(一)\0515\H5-10_1.c"
  65  002A  1480     E  	inc rh
  65  002B  1780     R  	sdz _BitReverse_2[1]
  65  002C  2800     R  	jmp _L4
  69  002D              #line 69 "C:\Users\YVTC\Desktop\單晶片微控制器(一)\0515\H5-10_1.c"
  69  002D  0700     E  	mov a,ra
  69  002E  0003        	ret
  69  002F              _BitReverse endp
  69  002F              #line 69 "C:\Users\YVTC\Desktop\單晶片微控制器(一)\0515\H5-10_1.c"
  69  002F              #pragma debug scope 1 1
  69  002F              ___pgc equ [43]
  69  002F              ___ph equ [46]
  69  002F              ___pg equ [42]
  69  002F              public _LCMWrite4
  69  002F              #pragma debug scope 3 1
  81  002F              #line 81 "C:\Users\YVTC\Desktop\單晶片微控制器(一)\0515\H5-10_1.c"
  81  0000              _LCMWrite4 .section 'code'
  81  0000              _LCMWrite4 proc
  81  0000              public _LCMWrite4_2
  81  0000  0002[           local _LCMWrite4_2 db 2 dup(?)	; 1,1
            00
            ]
  81  0000  0080     R  	mov _LCMWrite4_2[1],a
  81  0001              #pragma debug variable 8 3 _LCMWrite4_2+1 "DCFlag"
  81  0001              #pragma debug variable 8 3 _LCMWrite4_2+0 "CD"
  82  0001              #line 82 "C:\Users\YVTC\Desktop\單晶片微控制器(一)\0515\H5-10_1.c"
  82  0001  0FF0        	mov a,240
  82  0002  05AB        	orm a,[43]
  83  0003              #line 83 "C:\Users\YVTC\Desktop\單晶片微控制器(一)\0515\H5-10_1.c"
  83  0003  342E        	clr [46].0
  83  0004  30AE        	set [46].1
  84  0005              #line 84 "C:\Users\YVTC\Desktop\單晶片微控制器(一)\0515\H5-10_1.c"
  84  0005              ;# 84 "C:\Users\YVTC\Desktop\單晶片微控制器(一)\0515\H5-10_1.c" 1
  84  0005  0000        	nop
  84  0006              _L11:
  86  0006              #line 86 "C:\Users\YVTC\Desktop\單晶片微控制器(一)\0515\H5-10_1.c"
  86  0006  312E        	set [46].2
  86  0007              ;# 86 "C:\Users\YVTC\Desktop\單晶片微控制器(一)\0515\H5-10_1.c" 1
  86  0007  0000        	nop
  87  0008              #line 87 "C:\Users\YVTC\Desktop\單晶片微控制器(一)\0515\H5-10_1.c"
  87  0008  072A        	mov a,[42]
  87  0009  0080     E  	mov ra,a
  88  000A              #line 88 "C:\Users\YVTC\Desktop\單晶片微控制器(一)\0515\H5-10_1.c"
  88  000A  352E        	clr [46].2
  89  000B              #line 89 "C:\Users\YVTC\Desktop\單晶片微控制器(一)\0515\H5-10_1.c"
  89  000B  0FF0        	mov a,240
  89  000C  0680     E  	andm a,ra
  90  000D              #line 90 "C:\Users\YVTC\Desktop\單晶片微控制器(一)\0515\H5-10_1.c"
  90  000D  312E        	set [46].2
  90  000E              ;# 90 "C:\Users\YVTC\Desktop\單晶片微控制器(一)\0515\H5-10_1.c" 1
"File: H5-10_1.c     Assembler  Version HGASM0202      Page 4

  90  000E  0000        	nop
  91  000F              #line 91 "C:\Users\YVTC\Desktop\單晶片微控制器(一)\0515\H5-10_1.c"
  91  000F  112A        	swapa [42]
  91  0010  0E0F        	and a,0fh
  91  0011  0080     E  	mov rb,a
  91  0012  0700     E  	mov a,rb
  91  0013  0580     E  	orm a,ra
  92  0014              #line 92 "C:\Users\YVTC\Desktop\單晶片微控制器(一)\0515\H5-10_1.c"
  92  0014  352E        	clr [46].2
  93  0015              #line 93 "C:\Users\YVTC\Desktop\單晶片微控制器(一)\0515\H5-10_1.c"
  93  0015  3C00     E  	sz ra.7
  93  0016  2800     R  	jmp _L11
  94  0017              #line 94 "C:\Users\YVTC\Desktop\單晶片微控制器(一)\0515\H5-10_1.c"
  94  0017  0F0F        	mov a,15
  94  0018  06AB        	andm a,[43]
  95  0019              #line 95 "C:\Users\YVTC\Desktop\單晶片微控制器(一)\0515\H5-10_1.c"
  95  0019  34AE        	clr [46].1
  96  001A              #line 96 "C:\Users\YVTC\Desktop\單晶片微控制器(一)\0515\H5-10_1.c"
  96  001A  0700     R  	mov a,_LCMWrite4_2[1]
  96  001B  0E01        	and a,1
  96  001C  0080     E  	mov rb,a
  96  001D  342E        	clr [46].0
  96  001E  0700     E  	mov a,rb
  96  001F  05AE        	orm a,[46]
  97  0020              #line 97 "C:\Users\YVTC\Desktop\單晶片微控制器(一)\0515\H5-10_1.c"
  97  0020  0F0F        	mov a,15
  97  0021  06AA        	andm a,[42]
  98  0022              #line 98 "C:\Users\YVTC\Desktop\單晶片微控制器(一)\0515\H5-10_1.c"
  98  0022  0700     R  	mov a,_LCMWrite4_2[0]
  98  0023  0EF0        	and a,240
  98  0024  0080     E  	mov rb,a
  98  0025  0700     E  	mov a,rb
  98  0026  05AA        	orm a,[42]
  99  0027              #line 99 "C:\Users\YVTC\Desktop\單晶片微控制器(一)\0515\H5-10_1.c"
  99  0027  312E        	set [46].2
  99  0028              ;# 99 "C:\Users\YVTC\Desktop\單晶片微控制器(一)\0515\H5-10_1.c" 1
  99  0028  0000        	nop
  99  0029  352E        	clr [46].2
 100  002A              #line 100 "C:\Users\YVTC\Desktop\單晶片微控制器(一)\0515\H5-10_1.c"
 100  002A  0F0F        	mov a,15
 100  002B  06AA        	andm a,[42]
 101  002C              #line 101 "C:\Users\YVTC\Desktop\單晶片微控制器(一)\0515\H5-10_1.c"
 101  002C  0700     R  	mov a,_LCMWrite4_2[0]
 101  002D  0080     E  	mov rb,a
 101  002E  1F00     E  	clr rc
 101  002F  0F04        	mov a,4
 101  0030              _LI5:
 101  0030  340A        	clr c
 101  0031  1A80     E  	rlc rb
 101  0032  1A80     E  	rlc rc
 101  0033  1785        	sdz acc
 101  0034  2800     R  	jmp _LI5
 101  0035  0700     E  	mov a,rb
 101  0036  05AA        	orm a,[42]
 102  0037              #line 102 "C:\Users\YVTC\Desktop\單晶片微控制器(一)\0515\H5-10_1.c"
 102  0037  312E        	set [46].2
 102  0038              ;# 102 "C:\Users\YVTC\Desktop\單晶片微控制器(一)\0515\H5-10_1.c" 1
 102  0038  0000        	nop
 102  0039  352E        	clr [46].2
 104  003A              #line 104 "C:\Users\YVTC\Desktop\單晶片微控制器(一)\0515\H5-10_1.c"
"File: H5-10_1.c     Assembler  Version HGASM0202      Page 5

 104  003A  0700     E  	mov a,ra
 104  003B  0003        	ret
 104  003C              _LCMWrite4 endp
 104  003C              #line 104 "C:\Users\YVTC\Desktop\單晶片微控制器(一)\0515\H5-10_1.c"
 104  003C              #pragma debug scope 1 1
 104  003C              ___phc equ [47]
 104  003C              public _LCMInit
 104  003C              #pragma debug scope 4 1
  71  003C              #line 71 "C:\Users\YVTC\Desktop\單晶片微控制器(一)\0515\H5-10_1.c"
  71  0000              _LCMInit .section 'code'
  71  0000              _LCMInit proc
  71  0000  352E        	clr [46].2
  71  0001  34AE        	clr [46].1
  71  0002  342E        	clr [46].0
  72  0003              #line 72 "C:\Users\YVTC\Desktop\單晶片微控制器(一)\0515\H5-10_1.c"
  72  0003  352F        	clr [47].2
  72  0004  34AF        	clr [47].1
  72  0005  342F        	clr [47].0
  73  0006              #line 73 "C:\Users\YVTC\Desktop\單晶片微控制器(一)\0515\H5-10_1.c"
  73  0006              ;# 73 "C:\Users\YVTC\Desktop\單晶片微控制器(一)\0515\H5-10_1.c" 1
  73  0006              	IF 50000>263690
  73  0006              ;# 73 "C:\Users\YVTC\Desktop\單晶片微控制器(一)\0515\H5-10_1.c" 1
  73  0006              	ERRMESSAGE 'the value 50000of the argument exceeds the maxinum 263690'
  73  0006              	ENDIF
  73  0006              ;# 73 "C:\Users\YVTC\Desktop\單晶片微控制器(一)\0515\H5-10_1.c" 1
  73  0006              	IF 50000<0
  73  0006              ;# 73 "C:\Users\YVTC\Desktop\單晶片微控制器(一)\0515\H5-10_1.c" 1
  73  0006              	ERRMESSAGE 'the value 50000 of the argument exceeds the mininum 0'
  73  0006              	ENDIF
  73  0006              ;# 73 "C:\Users\YVTC\Desktop\單晶片微控制器(一)\0515\H5-10_1.c" 1
  73  0006              	IF 50000==0
  73  0006              ;# 73 "C:\Users\YVTC\Desktop\單晶片微控制器(一)\0515\H5-10_1.c" 1
  73  0006              	JMP $
  73  0006              	ENDIF
  73  0006              ;# 73 "C:\Users\YVTC\Desktop\單晶片微控制器(一)\0515\H5-10_1.c" 1
  73  0006              	IF (50000>=1) AND (50000<( 4 + __PBP__ * 2))
  73  0006              ;# 73 "C:\Users\YVTC\Desktop\單晶片微控制器(一)\0515\H5-10_1.c" 1
  73  0006              	NOP
  73  0006              	ENDIF
  73  0006              ;# 73 "C:\Users\YVTC\Desktop\單晶片微控制器(一)\0515\H5-10_1.c" 1
  73  0006              	IF (50000>=2) AND (50000<( 4 + __PBP__ * 2))
  73  0006              ;# 73 "C:\Users\YVTC\Desktop\單晶片微控制器(一)\0515\H5-10_1.c" 1
  73  0006              	NOP
  73  0006              	ENDIF
  73  0006              ;# 73 "C:\Users\YVTC\Desktop\單晶片微控制器(一)\0515\H5-10_1.c" 1
  73  0006              	IF (50000>=3) AND (50000<( 4 + __PBP__ * 2))
  73  0006              ;# 73 "C:\Users\YVTC\Desktop\單晶片微控制器(一)\0515\H5-10_1.c" 1
  73  0006              	NOP
  73  0006              	ENDIF
  73  0006              ;# 73 "C:\Users\YVTC\Desktop\單晶片微控制器(一)\0515\H5-10_1.c" 1
  73  0006              	IF (50000>=4) AND (50000<( 4 + __PBP__ * 2)) AND ( __PBP__ > 0 )
  73  0006              ;# 73 "C:\Users\YVTC\Desktop\單晶片微控制器(一)\0515\H5-10_1.c" 1
  73  0006              	NOP
  73  0006              	ENDIF
  73  0006              ;# 73 "C:\Users\YVTC\Desktop\單晶片微控制器(一)\0515\H5-10_1.c" 1
  73  0006              	IF (50000>=5) AND (50000<( 4 + __PBP__ * 2)) AND ( __PBP__ > 0 )
  73  0006              ;# 73 "C:\Users\YVTC\Desktop\單晶片微控制器(一)\0515\H5-10_1.c" 1
  73  0006              	NOP
  73  0006              	ENDIF
  73  0006              ;# 73 "C:\Users\YVTC\Desktop\單晶片微控制器(一)\0515\H5-10_1.c" 1
"File: H5-10_1.c     Assembler  Version HGASM0202      Page 6

  73  0006              	IF (50000>=6) AND (50000<( 4 + __PBP__ * 2))  AND ( __PBP__ > 1 )
  73  0006              ;# 73 "C:\Users\YVTC\Desktop\單晶片微控制器(一)\0515\H5-10_1.c" 1
  73  0006              	NOP
  73  0006              	ENDIF
  73  0006              ;# 73 "C:\Users\YVTC\Desktop\單晶片微控制器(一)\0515\H5-10_1.c" 1
  73  0006              	IF (50000>=7) AND (50000<( 4 + __PBP__ * 2))  AND ( __PBP__ > 1 )
  73  0006              ;# 73 "C:\Users\YVTC\Desktop\單晶片微控制器(一)\0515\H5-10_1.c" 1
  73  0006              	NOP
  73  0006              	ENDIF
  73  0006              ;# 73 "C:\Users\YVTC\Desktop\單晶片微控制器(一)\0515\H5-10_1.c" 1
  73  0006              	IF (50000>=8) AND (50000<( 4 + __PBP__ * 2))  AND ( __PBP__ > 2 )
  73  0006              ;# 73 "C:\Users\YVTC\Desktop\單晶片微控制器(一)\0515\H5-10_1.c" 1
  73  0006              	NOP
  73  0006              	ENDIF
  73  0006              ;# 73 "C:\Users\YVTC\Desktop\單晶片微控制器(一)\0515\H5-10_1.c" 1
  73  0006              	IF (50000==9)  AND ( __PBP__ > 2 )
  73  0006              ;# 73 "C:\Users\YVTC\Desktop\單晶片微控制器(一)\0515\H5-10_1.c" 1
  73  0006              	NOP
  73  0006              	ENDIF
  73  0006              ;# 73 "C:\Users\YVTC\Desktop\單晶片微控制器(一)\0515\H5-10_1.c" 1
  73  0006              	IF (50000< ( 8 + __PBP__ * 2)) AND (50000>( 3 + __PBP__ * 2))
  73  0006              ;# 73 "C:\Users\YVTC\Desktop\單晶片微控制器(一)\0515\H5-10_1.c" 1
  73  0006              	fcall __DELAY3 + ( 7 + __PBP__ * 2) -50000
  73  0006              	ENDIF
  73  0006              ;# 73 "C:\Users\YVTC\Desktop\單晶片微控制器(一)\0515\H5-10_1.c" 1
  73  0006              	IF (50000< ( 0404h + __PBP__ * 2)) AND (50000>( 7 + __PBP__ * 2))
  73  0006              ;# 73 "C:\Users\YVTC\Desktop\單晶片微控制器(一)\0515\H5-10_1.c" 1
  73  0006              	MOV A,(50000-( 4 + __PBP__ * 2))/4
  73  0006              ;# 73 "C:\Users\YVTC\Desktop\單晶片微控制器(一)\0515\H5-10_1.c" 1
  73  0006              	fcall __DELAYX3 + 3 -((50000-( 4 + __PBP__ * 2)) MOD 4) 
  73  0006              	ENDIF
  73  0006              ;# 73 "C:\Users\YVTC\Desktop\單晶片微控制器(一)\0515\H5-10_1.c" 1
  73  0006              	IF (50000< ( 040bh + __PBP__ * 2)) AND (50000> ( 0403h + __PBP__ * 2))
  73  0006              ;# 73 "C:\Users\YVTC\Desktop\單晶片微控制器(一)\0515\H5-10_1.c" 1
  73  0006              	MOV A,0 
  73  0006              ;# 73 "C:\Users\YVTC\Desktop\單晶片微控制器(一)\0515\H5-10_1.c" 1
  73  0006              	fcall __DELAYX6 + ( 040ah + __PBP__ * 2) -50000
  73  0006              	ENDIF
  73  0006              ;# 73 "C:\Users\YVTC\Desktop\單晶片微控制器(一)\0515\H5-10_1.c" 1
  73  0006              	IF (50000 >= ( 040bh + __PBP__ * 2)) AND ((((50000-( 9 + __PBP__ * 2))%0402h)/4+1)>256)
  73  0006              ;# 73 "C:\Users\YVTC\Desktop\單晶片微控制器(一)\0515\H5-10_1.c" 1
  73  0006              	MOV A,(50000-( 9 + __PBP__ * 2))/0402h
  73  0006              ;# 73 "C:\Users\YVTC\Desktop\單晶片微控制器(一)\0515\H5-10_1.c" 1
  73  0006              	MOV _builtin_holtek_delay_2,A
  73  0006              ;# 73 "C:\Users\YVTC\Desktop\單晶片微控制器(一)\0515\H5-10_1.c" 1
  73  0006              	MOV A,0
  73  0006              ;# 73 "C:\Users\YVTC\Desktop\單晶片微控制器(一)\0515\H5-10_1.c" 1
  73  0006              	fcall __DELAYY5 +5- (((50000-( 9 + __PBP__ * 2))%0402h)%6) 
  73  0006              	ENDIF
  73  0006              ;# 73 "C:\Users\YVTC\Desktop\單晶片微控制器(一)\0515\H5-10_1.c" 1
  73  0006              	IF (50000 >= ( 040bh + __PBP__ * 2)) AND ((((50000-( 9 + __PBP__ * 2))%0402h)/4+1)<=256)
  73  0006              ;# 73 "C:\Users\YVTC\Desktop\單晶片微控制器(一)\0515\H5-10_1.c" 1
  73  0006  0F30        	MOV A,(50000-( 9 + __PBP__ * 2))/0402h
  73  0007              ;# 73 "C:\Users\YVTC\Desktop\單晶片微控制器(一)\0515\H5-10_1.c" 1
  73  0007  0080     E  	MOV _builtin_holtek_delay_2,A
  73  0008              ;# 73 "C:\Users\YVTC\Desktop\單晶片微控制器(一)\0515\H5-10_1.c" 1
  73  0008  0FB9        	MOV A,((50000-( 9 + __PBP__ * 2))%0402h)/4+1
  73  0009              ;# 73 "C:\Users\YVTC\Desktop\單晶片微控制器(一)\0515\H5-10_1.c" 1
  73  0009              	fcall __DELAYY3 +3-(((50000-( 9 + __PBP__ * 2))%0402h)%4) 
  73  0010              	ENDIF
"File: H5-10_1.c     Assembler  Version HGASM0202      Page 7

  74  0010              #line 74 "C:\Users\YVTC\Desktop\單晶片微控制器(一)\0515\H5-10_1.c"
  74  0010  0F28        	mov a,40
  74  0011  0080     R  	mov _LCMWrite4_2[0],a
  74  0012  0F00        	mov a,0
  74  0013              	fcall _LCMWrite4
  75  001A              #line 75 "C:\Users\YVTC\Desktop\單晶片微控制器(一)\0515\H5-10_1.c"
  75  001A  0F0C        	mov a,12
  75  001B  0080     R  	mov _LCMWrite4_2[0],a
  75  001C  0F00        	mov a,0
  75  001D              	fcall _LCMWrite4
  76  0024              #line 76 "C:\Users\YVTC\Desktop\單晶片微控制器(一)\0515\H5-10_1.c"
  76  0024  0F06        	mov a,6
  76  0025  0080     R  	mov _LCMWrite4_2[0],a
  76  0026  0F00        	mov a,0
  76  0027              	fcall _LCMWrite4
  77  002E              #line 77 "C:\Users\YVTC\Desktop\單晶片微控制器(一)\0515\H5-10_1.c"
  77  002E  0F01        	mov a,1
  77  002F  0080     R  	mov _LCMWrite4_2[0],a
  77  0030  0F00        	mov a,0
  77  0031              	fcall _LCMWrite4
  78  0038              #line 78 "C:\Users\YVTC\Desktop\單晶片微控制器(一)\0515\H5-10_1.c"
  78  0038              ;# 78 "C:\Users\YVTC\Desktop\單晶片微控制器(一)\0515\H5-10_1.c" 1
  78  0038              	IF 3000>263690
  78  0038              ;# 78 "C:\Users\YVTC\Desktop\單晶片微控制器(一)\0515\H5-10_1.c" 1
  78  0038              	ERRMESSAGE 'the value 3000of the argument exceeds the maxinum 263690'
  78  0038              	ENDIF
  78  0038              ;# 78 "C:\Users\YVTC\Desktop\單晶片微控制器(一)\0515\H5-10_1.c" 1
  78  0038              	IF 3000<0
  78  0038              ;# 78 "C:\Users\YVTC\Desktop\單晶片微控制器(一)\0515\H5-10_1.c" 1
  78  0038              	ERRMESSAGE 'the value 3000 of the argument exceeds the mininum 0'
  78  0038              	ENDIF
  78  0038              ;# 78 "C:\Users\YVTC\Desktop\單晶片微控制器(一)\0515\H5-10_1.c" 1
  78  0038              	IF 3000==0
  78  0038              ;# 78 "C:\Users\YVTC\Desktop\單晶片微控制器(一)\0515\H5-10_1.c" 1
  78  0038              	JMP $
  78  0038              	ENDIF
  78  0038              ;# 78 "C:\Users\YVTC\Desktop\單晶片微控制器(一)\0515\H5-10_1.c" 1
  78  0038              	IF (3000>=1) AND (3000<( 4 + __PBP__ * 2))
  78  0038              ;# 78 "C:\Users\YVTC\Desktop\單晶片微控制器(一)\0515\H5-10_1.c" 1
  78  0038              	NOP
  78  0038              	ENDIF
  78  0038              ;# 78 "C:\Users\YVTC\Desktop\單晶片微控制器(一)\0515\H5-10_1.c" 1
  78  0038              	IF (3000>=2) AND (3000<( 4 + __PBP__ * 2))
  78  0038              ;# 78 "C:\Users\YVTC\Desktop\單晶片微控制器(一)\0515\H5-10_1.c" 1
  78  0038              	NOP
  78  0038              	ENDIF
  78  0038              ;# 78 "C:\Users\YVTC\Desktop\單晶片微控制器(一)\0515\H5-10_1.c" 1
  78  0038              	IF (3000>=3) AND (3000<( 4 + __PBP__ * 2))
  78  0038              ;# 78 "C:\Users\YVTC\Desktop\單晶片微控制器(一)\0515\H5-10_1.c" 1
  78  0038              	NOP
  78  0038              	ENDIF
  78  0038              ;# 78 "C:\Users\YVTC\Desktop\單晶片微控制器(一)\0515\H5-10_1.c" 1
  78  0038              	IF (3000>=4) AND (3000<( 4 + __PBP__ * 2)) AND ( __PBP__ > 0 )
  78  0038              ;# 78 "C:\Users\YVTC\Desktop\單晶片微控制器(一)\0515\H5-10_1.c" 1
  78  0038              	NOP
  78  0038              	ENDIF
  78  0038              ;# 78 "C:\Users\YVTC\Desktop\單晶片微控制器(一)\0515\H5-10_1.c" 1
  78  0038              	IF (3000>=5) AND (3000<( 4 + __PBP__ * 2)) AND ( __PBP__ > 0 )
  78  0038              ;# 78 "C:\Users\YVTC\Desktop\單晶片微控制器(一)\0515\H5-10_1.c" 1
  78  0038              	NOP
"File: H5-10_1.c     Assembler  Version HGASM0202      Page 8

  78  0038              	ENDIF
  78  0038              ;# 78 "C:\Users\YVTC\Desktop\單晶片微控制器(一)\0515\H5-10_1.c" 1
  78  0038              	IF (3000>=6) AND (3000<( 4 + __PBP__ * 2))  AND ( __PBP__ > 1 )
  78  0038              ;# 78 "C:\Users\YVTC\Desktop\單晶片微控制器(一)\0515\H5-10_1.c" 1
  78  0038              	NOP
  78  0038              	ENDIF
  78  0038              ;# 78 "C:\Users\YVTC\Desktop\單晶片微控制器(一)\0515\H5-10_1.c" 1
  78  0038              	IF (3000>=7) AND (3000<( 4 + __PBP__ * 2))  AND ( __PBP__ > 1 )
  78  0038              ;# 78 "C:\Users\YVTC\Desktop\單晶片微控制器(一)\0515\H5-10_1.c" 1
  78  0038              	NOP
  78  0038              	ENDIF
  78  0038              ;# 78 "C:\Users\YVTC\Desktop\單晶片微控制器(一)\0515\H5-10_1.c" 1
  78  0038              	IF (3000>=8) AND (3000<( 4 + __PBP__ * 2))  AND ( __PBP__ > 2 )
  78  0038              ;# 78 "C:\Users\YVTC\Desktop\單晶片微控制器(一)\0515\H5-10_1.c" 1
  78  0038              	NOP
  78  0038              	ENDIF
  78  0038              ;# 78 "C:\Users\YVTC\Desktop\單晶片微控制器(一)\0515\H5-10_1.c" 1
  78  0038              	IF (3000==9)  AND ( __PBP__ > 2 )
  78  0038              ;# 78 "C:\Users\YVTC\Desktop\單晶片微控制器(一)\0515\H5-10_1.c" 1
  78  0038              	NOP
  78  0038              	ENDIF
  78  0038              ;# 78 "C:\Users\YVTC\Desktop\單晶片微控制器(一)\0515\H5-10_1.c" 1
  78  0038              	IF (3000< ( 8 + __PBP__ * 2)) AND (3000>( 3 + __PBP__ * 2))
  78  0038              ;# 78 "C:\Users\YVTC\Desktop\單晶片微控制器(一)\0515\H5-10_1.c" 1
  78  0038              	fcall __DELAY3 + ( 7 + __PBP__ * 2) -3000
  78  0038              	ENDIF
  78  0038              ;# 78 "C:\Users\YVTC\Desktop\單晶片微控制器(一)\0515\H5-10_1.c" 1
  78  0038              	IF (3000< ( 0404h + __PBP__ * 2)) AND (3000>( 7 + __PBP__ * 2))
  78  0038              ;# 78 "C:\Users\YVTC\Desktop\單晶片微控制器(一)\0515\H5-10_1.c" 1
  78  0038              	MOV A,(3000-( 4 + __PBP__ * 2))/4
  78  0038              ;# 78 "C:\Users\YVTC\Desktop\單晶片微控制器(一)\0515\H5-10_1.c" 1
  78  0038              	fcall __DELAYX3 + 3 -((3000-( 4 + __PBP__ * 2)) MOD 4) 
  78  0038              	ENDIF
  78  0038              ;# 78 "C:\Users\YVTC\Desktop\單晶片微控制器(一)\0515\H5-10_1.c" 1
  78  0038              	IF (3000< ( 040bh + __PBP__ * 2)) AND (3000> ( 0403h + __PBP__ * 2))
  78  0038              ;# 78 "C:\Users\YVTC\Desktop\單晶片微控制器(一)\0515\H5-10_1.c" 1
  78  0038              	MOV A,0 
  78  0038              ;# 78 "C:\Users\YVTC\Desktop\單晶片微控制器(一)\0515\H5-10_1.c" 1
  78  0038              	fcall __DELAYX6 + ( 040ah + __PBP__ * 2) -3000
  78  0038              	ENDIF
  78  0038              ;# 78 "C:\Users\YVTC\Desktop\單晶片微控制器(一)\0515\H5-10_1.c" 1
  78  0038              	IF (3000 >= ( 040bh + __PBP__ * 2)) AND ((((3000-( 9 + __PBP__ * 2))%0402h)/4+1)>256)
  78  0038              ;# 78 "C:\Users\YVTC\Desktop\單晶片微控制器(一)\0515\H5-10_1.c" 1
  78  0038              	MOV A,(3000-( 9 + __PBP__ * 2))/0402h
  78  0038              ;# 78 "C:\Users\YVTC\Desktop\單晶片微控制器(一)\0515\H5-10_1.c" 1
  78  0038              	MOV _builtin_holtek_delay_2,A
  78  0038              ;# 78 "C:\Users\YVTC\Desktop\單晶片微控制器(一)\0515\H5-10_1.c" 1
  78  0038              	MOV A,0
  78  0038              ;# 78 "C:\Users\YVTC\Desktop\單晶片微控制器(一)\0515\H5-10_1.c" 1
  78  0038              	fcall __DELAYY5 +5- (((3000-( 9 + __PBP__ * 2))%0402h)%6) 
  78  0038              	ENDIF
  78  0038              ;# 78 "C:\Users\YVTC\Desktop\單晶片微控制器(一)\0515\H5-10_1.c" 1
  78  0038              	IF (3000 >= ( 040bh + __PBP__ * 2)) AND ((((3000-( 9 + __PBP__ * 2))%0402h)/4+1)<=256)
  78  0038              ;# 78 "C:\Users\YVTC\Desktop\單晶片微控制器(一)\0515\H5-10_1.c" 1
  78  0038  0F02        	MOV A,(3000-( 9 + __PBP__ * 2))/0402h
  78  0039              ;# 78 "C:\Users\YVTC\Desktop\單晶片微控制器(一)\0515\H5-10_1.c" 1
  78  0039  0080     E  	MOV _builtin_holtek_delay_2,A
  78  003A              ;# 78 "C:\Users\YVTC\Desktop\單晶片微控制器(一)\0515\H5-10_1.c" 1
  78  003A  0FEA        	MOV A,((3000-( 9 + __PBP__ * 2))%0402h)/4+1
  78  003B              ;# 78 "C:\Users\YVTC\Desktop\單晶片微控制器(一)\0515\H5-10_1.c" 1
"File: H5-10_1.c     Assembler  Version HGASM0202      Page 9

  78  003B              	fcall __DELAYY3 +3-(((3000-( 9 + __PBP__ * 2))%0402h)%4) 
  78  0042              	ENDIF
  78  0042  0003        	ret
  78  0043              _LCMInit endp
  78  0043              #line 78 "C:\Users\YVTC\Desktop\單晶片微控制器(一)\0515\H5-10_1.c"
  78  0043              #pragma debug scope 1 1
  78  0043              public _PAUSE
  78  0043              #pragma debug scope 5 1
 106  0043              #line 106 "C:\Users\YVTC\Desktop\單晶片微控制器(一)\0515\H5-10_1.c"
 106  0000              _PAUSE .section 'code'
 106  0000              _PAUSE proc
 106  0000  00              local _PAUSE_2 db 1 dup(?)	; 0,1
 106  0000  0080     R  	mov _PAUSE_2[0],a
 106  0001              #pragma debug variable 8 5 _PAUSE_2+0 "i"
 107  0001              #line 107 "C:\Users\YVTC\Desktop\單晶片微控制器(一)\0515\H5-10_1.c"
 107  0001  1F00     E  	clr ra
 107  0002  2800     R  	jmp _L14
 107  0003              _L15:
 107  0003              #line 107 "C:\Users\YVTC\Desktop\單晶片微控制器(一)\0515\H5-10_1.c"
 107  0003              ;# 107 "C:\Users\YVTC\Desktop\單晶片微控制器(一)\0515\H5-10_1.c" 1
 107  0003              	IF 20000>263690
 107  0003              ;# 107 "C:\Users\YVTC\Desktop\單晶片微控制器(一)\0515\H5-10_1.c" 1
 107  0003              	ERRMESSAGE 'the value 20000of the argument exceeds the maxinum 263690'
 107  0003              	ENDIF
 107  0003              ;# 107 "C:\Users\YVTC\Desktop\單晶片微控制器(一)\0515\H5-10_1.c" 1
 107  0003              	IF 20000<0
 107  0003              ;# 107 "C:\Users\YVTC\Desktop\單晶片微控制器(一)\0515\H5-10_1.c" 1
 107  0003              	ERRMESSAGE 'the value 20000 of the argument exceeds the mininum 0'
 107  0003              	ENDIF
 107  0003              ;# 107 "C:\Users\YVTC\Desktop\單晶片微控制器(一)\0515\H5-10_1.c" 1
 107  0003              	IF 20000==0
 107  0003              ;# 107 "C:\Users\YVTC\Desktop\單晶片微控制器(一)\0515\H5-10_1.c" 1
 107  0003              	JMP $
 107  0003              	ENDIF
 107  0003              ;# 107 "C:\Users\YVTC\Desktop\單晶片微控制器(一)\0515\H5-10_1.c" 1
 107  0003              	IF (20000>=1) AND (20000<( 4 + __PBP__ * 2))
 107  0003              ;# 107 "C:\Users\YVTC\Desktop\單晶片微控制器(一)\0515\H5-10_1.c" 1
 107  0003              	NOP
 107  0003              	ENDIF
 107  0003              ;# 107 "C:\Users\YVTC\Desktop\單晶片微控制器(一)\0515\H5-10_1.c" 1
 107  0003              	IF (20000>=2) AND (20000<( 4 + __PBP__ * 2))
 107  0003              ;# 107 "C:\Users\YVTC\Desktop\單晶片微控制器(一)\0515\H5-10_1.c" 1
 107  0003              	NOP
 107  0003              	ENDIF
 107  0003              ;# 107 "C:\Users\YVTC\Desktop\單晶片微控制器(一)\0515\H5-10_1.c" 1
 107  0003              	IF (20000>=3) AND (20000<( 4 + __PBP__ * 2))
 107  0003              ;# 107 "C:\Users\YVTC\Desktop\單晶片微控制器(一)\0515\H5-10_1.c" 1
 107  0003              	NOP
 107  0003              	ENDIF
 107  0003              ;# 107 "C:\Users\YVTC\Desktop\單晶片微控制器(一)\0515\H5-10_1.c" 1
 107  0003              	IF (20000>=4) AND (20000<( 4 + __PBP__ * 2)) AND ( __PBP__ > 0 )
 107  0003              ;# 107 "C:\Users\YVTC\Desktop\單晶片微控制器(一)\0515\H5-10_1.c" 1
 107  0003              	NOP
 107  0003              	ENDIF
 107  0003              ;# 107 "C:\Users\YVTC\Desktop\單晶片微控制器(一)\0515\H5-10_1.c" 1
 107  0003              	IF (20000>=5) AND (20000<( 4 + __PBP__ * 2)) AND ( __PBP__ > 0 )
 107  0003              ;# 107 "C:\Users\YVTC\Desktop\單晶片微控制器(一)\0515\H5-10_1.c" 1
 107  0003              	NOP
 107  0003              	ENDIF
 107  0003              ;# 107 "C:\Users\YVTC\Desktop\單晶片微控制器(一)\0515\H5-10_1.c" 1
"File: H5-10_1.c     Assembler  Version HGASM0202      Page 10

 107  0003              	IF (20000>=6) AND (20000<( 4 + __PBP__ * 2))  AND ( __PBP__ > 1 )
 107  0003              ;# 107 "C:\Users\YVTC\Desktop\單晶片微控制器(一)\0515\H5-10_1.c" 1
 107  0003              	NOP
 107  0003              	ENDIF
 107  0003              ;# 107 "C:\Users\YVTC\Desktop\單晶片微控制器(一)\0515\H5-10_1.c" 1
 107  0003              	IF (20000>=7) AND (20000<( 4 + __PBP__ * 2))  AND ( __PBP__ > 1 )
 107  0003              ;# 107 "C:\Users\YVTC\Desktop\單晶片微控制器(一)\0515\H5-10_1.c" 1
 107  0003              	NOP
 107  0003              	ENDIF
 107  0003              ;# 107 "C:\Users\YVTC\Desktop\單晶片微控制器(一)\0515\H5-10_1.c" 1
 107  0003              	IF (20000>=8) AND (20000<( 4 + __PBP__ * 2))  AND ( __PBP__ > 2 )
 107  0003              ;# 107 "C:\Users\YVTC\Desktop\單晶片微控制器(一)\0515\H5-10_1.c" 1
 107  0003              	NOP
 107  0003              	ENDIF
 107  0003              ;# 107 "C:\Users\YVTC\Desktop\單晶片微控制器(一)\0515\H5-10_1.c" 1
 107  0003              	IF (20000==9)  AND ( __PBP__ > 2 )
 107  0003              ;# 107 "C:\Users\YVTC\Desktop\單晶片微控制器(一)\0515\H5-10_1.c" 1
 107  0003              	NOP
 107  0003              	ENDIF
 107  0003              ;# 107 "C:\Users\YVTC\Desktop\單晶片微控制器(一)\0515\H5-10_1.c" 1
 107  0003              	IF (20000< ( 8 + __PBP__ * 2)) AND (20000>( 3 + __PBP__ * 2))
 107  0003              ;# 107 "C:\Users\YVTC\Desktop\單晶片微控制器(一)\0515\H5-10_1.c" 1
 107  0003              	fcall __DELAY3 + ( 7 + __PBP__ * 2) -20000
 107  0003              	ENDIF
 107  0003              ;# 107 "C:\Users\YVTC\Desktop\單晶片微控制器(一)\0515\H5-10_1.c" 1
 107  0003              	IF (20000< ( 0404h + __PBP__ * 2)) AND (20000>( 7 + __PBP__ * 2))
 107  0003              ;# 107 "C:\Users\YVTC\Desktop\單晶片微控制器(一)\0515\H5-10_1.c" 1
 107  0003              	MOV A,(20000-( 4 + __PBP__ * 2))/4
 107  0003              ;# 107 "C:\Users\YVTC\Desktop\單晶片微控制器(一)\0515\H5-10_1.c" 1
 107  0003              	fcall __DELAYX3 + 3 -((20000-( 4 + __PBP__ * 2)) MOD 4) 
 107  0003              	ENDIF
 107  0003              ;# 107 "C:\Users\YVTC\Desktop\單晶片微控制器(一)\0515\H5-10_1.c" 1
 107  0003              	IF (20000< ( 040bh + __PBP__ * 2)) AND (20000> ( 0403h + __PBP__ * 2))
 107  0003              ;# 107 "C:\Users\YVTC\Desktop\單晶片微控制器(一)\0515\H5-10_1.c" 1
 107  0003              	MOV A,0 
 107  0003              ;# 107 "C:\Users\YVTC\Desktop\單晶片微控制器(一)\0515\H5-10_1.c" 1
 107  0003              	fcall __DELAYX6 + ( 040ah + __PBP__ * 2) -20000
 107  0003              	ENDIF
 107  0003              ;# 107 "C:\Users\YVTC\Desktop\單晶片微控制器(一)\0515\H5-10_1.c" 1
 107  0003              	IF (20000 >= ( 040bh + __PBP__ * 2)) AND ((((20000-( 9 + __PBP__ * 2))%0402h)/4+1)>256)
 107  0003              ;# 107 "C:\Users\YVTC\Desktop\單晶片微控制器(一)\0515\H5-10_1.c" 1
 107  0003              	MOV A,(20000-( 9 + __PBP__ * 2))/0402h
 107  0003              ;# 107 "C:\Users\YVTC\Desktop\單晶片微控制器(一)\0515\H5-10_1.c" 1
 107  0003              	MOV _builtin_holtek_delay_2,A
 107  0003              ;# 107 "C:\Users\YVTC\Desktop\單晶片微控制器(一)\0515\H5-10_1.c" 1
 107  0003              	MOV A,0
 107  0003              ;# 107 "C:\Users\YVTC\Desktop\單晶片微控制器(一)\0515\H5-10_1.c" 1
 107  0003              	fcall __DELAYY5 +5- (((20000-( 9 + __PBP__ * 2))%0402h)%6) 
 107  0003              	ENDIF
 107  0003              ;# 107 "C:\Users\YVTC\Desktop\單晶片微控制器(一)\0515\H5-10_1.c" 1
 107  0003              	IF (20000 >= ( 040bh + __PBP__ * 2)) AND ((((20000-( 9 + __PBP__ * 2))%0402h)/4+1)<=256)
 107  0003              ;# 107 "C:\Users\YVTC\Desktop\單晶片微控制器(一)\0515\H5-10_1.c" 1
 107  0003  0F13        	MOV A,(20000-( 9 + __PBP__ * 2))/0402h
 107  0004              ;# 107 "C:\Users\YVTC\Desktop\單晶片微控制器(一)\0515\H5-10_1.c" 1
 107  0004  0080     E  	MOV _builtin_holtek_delay_2,A
 107  0005              ;# 107 "C:\Users\YVTC\Desktop\單晶片微控制器(一)\0515\H5-10_1.c" 1
 107  0005  0F7C        	MOV A,((20000-( 9 + __PBP__ * 2))%0402h)/4+1
 107  0006              ;# 107 "C:\Users\YVTC\Desktop\單晶片微控制器(一)\0515\H5-10_1.c" 1
 107  0006              	fcall __DELAYY3 +3-(((20000-( 9 + __PBP__ * 2))%0402h)%4) 
 107  000D              	ENDIF
"File: H5-10_1.c     Assembler  Version HGASM0202      Page 11

 107  000D  1480     E  	inc ra
 107  000E              _L14:
 107  000E  0700     E  	mov a,ra
 107  000F  0200     R  	sub a,_PAUSE_2[0]
 107  0010  390A        	snz z
 107  0011  2800     R  	jmp _L15
 107  0012  0003        	ret
 107  0013              _PAUSE endp
 107  0013              #line 107 "C:\Users\YVTC\Desktop\單晶片微控制器(一)\0515\H5-10_1.c"
 107  0013              #pragma debug scope 1 1
 107  0013              ___wdtc equ [62]
 107  0013              public _main
 107  0013              #pragma debug scope 6 1
  20  0013              #line 20 "C:\Users\YVTC\Desktop\單晶片微控制器(一)\0515\H5-10_1.c"
  20  0013              IFDEF WITH_DEFAULT_STARTUP
  20  0013              extern _main_initial0:near
  20  0013              extern _main_startup:near
  20  0013              ENDIF
  20  0013              
  20  0013              ROMBANK 0 @start
  20  0000              @start .section com_l 'code'
  20  0000              _main_startup1:
  20  0000              @start .section com_e 'code'
  20  0000  0F00     R  	mov a,bank _main
  20  0001  008B        	mov bp,a
  20  0002  2800     R  	jmp _main
  20  0003              
  20  0000              _main .section 'code'
  20  0000              _main proc
  20  0000  0003[           local _main_2 db 3 dup(?)
            00
            ]
  21  0003              #line 21 "C:\Users\YVTC\Desktop\單晶片微控制器(一)\0515\H5-10_1.c"
  21  0000  0FAF        	mov a,175
  21  0001  00BE        	mov [62],a
  22  0002              #line 22 "C:\Users\YVTC\Desktop\單晶片微控制器(一)\0515\H5-10_1.c"
  22  0002              	fcall _LCMInit
  22  0009              _L24:
  24  0009              #line 24 "C:\Users\YVTC\Desktop\單晶片微控制器(一)\0515\H5-10_1.c"
  24  0009  0F40        	mov a,64
  24  000A  0080     R  	mov _LCMWrite4_2[0],a
  24  000B  0F00        	mov a,0
  24  000C              	fcall _LCMWrite4
  24  0013  0F40        	mov a,64
  24  0014  0080     R  	mov _main_2[0],a
  25  0015              #line 25 "C:\Users\YVTC\Desktop\單晶片微控制器(一)\0515\H5-10_1.c"
  25  0015  1F00     R  	clr _main_2[1]
  25  0016              _L18:
  25  0016  0700     R  	mov a,_main_2[1]
  25  0017  0080     E  	mov rb,a
  25  0018  1F00     E  	clr rc
  25  0019  3F85        	sz acc.7
  25  001A  1F80     E  	set rc
  25  001B  0F00     R  	mov a,low offset _TAB_CGRAM
  25  001C  0300     E  	add a,rb
  25  001D  0083        	mov mp,a
  25  001E  0F00     R  	mov a,high offset _TAB_CGRAM
  25  001F  1300     E  	adc a,rc
  25  0020  0084        	mov sbp,a
  25  0021              	fcall _Crom2Prom
"File: H5-10_1.c     Assembler  Version HGASM0202      Page 12

  25  0028  0080     R  	mov _LCMWrite4_2[0],a
  25  0029  0F01        	mov a,1
  25  002A              	fcall _LCMWrite4
  25  0031  1480     R  	inc _main_2[1]
  25  0032  1780     R  	sdz _main_2[0]
  25  0033  2800     R  	jmp _L18
  25  0034  0F12        	mov a,18
  25  0035  0080     R  	mov _main_2[0],a
  25  0036              _L20:
  25  0036  0700     R  	mov a,_main_2[0]
  25  0037  0B80        	add a,128
  25  0038  0080     R  	mov _main_2[2],a
  27  0039              #line 27 "C:\Users\YVTC\Desktop\單晶片微控制器(一)\0515\H5-10_1.c"
  27  0039  0700     R  	mov a,_main_2[2]
  27  003A  0080     R  	mov _LCMWrite4_2[0],a
  27  003B  0F00        	mov a,0
  27  003C              	fcall _LCMWrite4
  28  0043              #line 28 "C:\Users\YVTC\Desktop\單晶片微控制器(一)\0515\H5-10_1.c"
  28  0043  1F00     R  	clr _LCMWrite4_2[0]
  28  0044  0F01        	mov a,1
  28  0045              	fcall _LCMWrite4
  28  004C  0F01        	mov a,1
  28  004D  0080     R  	mov _LCMWrite4_2[0],a
  28  004E  0F01        	mov a,1
  28  004F              	fcall _LCMWrite4
  28  0056  0700     R  	mov a,_main_2[0]
  28  0057  0BC0        	add a,192
  28  0058  0080     R  	mov _main_2[1],a
  29  0059              #line 29 "C:\Users\YVTC\Desktop\單晶片微控制器(一)\0515\H5-10_1.c"
  29  0059  0700     R  	mov a,_main_2[1]
  29  005A  0080     R  	mov _LCMWrite4_2[0],a
  29  005B  0F00        	mov a,0
  29  005C              	fcall _LCMWrite4
  30  0063              #line 30 "C:\Users\YVTC\Desktop\單晶片微控制器(一)\0515\H5-10_1.c"
  30  0063  0F02        	mov a,2
  30  0064  0080     R  	mov _LCMWrite4_2[0],a
  30  0065  0F01        	mov a,1
  30  0066              	fcall _LCMWrite4
  30  006D  0F03        	mov a,3
  30  006E  0080     R  	mov _LCMWrite4_2[0],a
  30  006F  0F01        	mov a,1
  30  0070              	fcall _LCMWrite4
  31  0077              #line 31 "C:\Users\YVTC\Desktop\單晶片微控制器(一)\0515\H5-10_1.c"
  31  0077  0F14        	mov a,20
  31  0078              	fcall _PAUSE
  32  007F              #line 32 "C:\Users\YVTC\Desktop\單晶片微控制器(一)\0515\H5-10_1.c"
  32  007F  0700     R  	mov a,_main_2[2]
  32  0080  0080     R  	mov _LCMWrite4_2[0],a
  32  0081  0F00        	mov a,0
  32  0082              	fcall _LCMWrite4
  33  0089              #line 33 "C:\Users\YVTC\Desktop\單晶片微控制器(一)\0515\H5-10_1.c"
  33  0089  0F04        	mov a,4
  33  008A  0080     R  	mov _LCMWrite4_2[0],a
  33  008B  0F01        	mov a,1
  33  008C              	fcall _LCMWrite4
  33  0093  0F05        	mov a,5
  33  0094  0080     R  	mov _LCMWrite4_2[0],a
  33  0095  0F01        	mov a,1
  33  0096              	fcall _LCMWrite4
  34  009D              #line 34 "C:\Users\YVTC\Desktop\單晶片微控制器(一)\0515\H5-10_1.c"
"File: H5-10_1.c     Assembler  Version HGASM0202      Page 13

  34  009D  0700     R  	mov a,_main_2[1]
  34  009E  0080     R  	mov _LCMWrite4_2[0],a
  34  009F  0F00        	mov a,0
  34  00A0              	fcall _LCMWrite4
  35  00A7              #line 35 "C:\Users\YVTC\Desktop\單晶片微控制器(一)\0515\H5-10_1.c"
  35  00A7  0F06        	mov a,6
  35  00A8  0080     R  	mov _LCMWrite4_2[0],a
  35  00A9  0F01        	mov a,1
  35  00AA              	fcall _LCMWrite4
  35  00B1  0F07        	mov a,7
  35  00B2  0080     R  	mov _LCMWrite4_2[0],a
  35  00B3  0F01        	mov a,1
  35  00B4              	fcall _LCMWrite4
  36  00BB              #line 36 "C:\Users\YVTC\Desktop\單晶片微控制器(一)\0515\H5-10_1.c"
  36  00BB  0F14        	mov a,20
  36  00BC              	fcall _PAUSE
  37  00C3              #line 37 "C:\Users\YVTC\Desktop\單晶片微控制器(一)\0515\H5-10_1.c"
  37  00C3  0700     R  	mov a,_main_2[2]
  37  00C4  0080     R  	mov _LCMWrite4_2[0],a
  37  00C5  0F00        	mov a,0
  37  00C6              	fcall _LCMWrite4
  38  00CD              #line 38 "C:\Users\YVTC\Desktop\單晶片微控制器(一)\0515\H5-10_1.c"
  38  00CD  0F20        	mov a,32
  38  00CE  0080     R  	mov _LCMWrite4_2[0],a
  38  00CF  0F01        	mov a,1
  38  00D0              	fcall _LCMWrite4
  38  00D7  0F20        	mov a,32
  38  00D8  0080     R  	mov _LCMWrite4_2[0],a
  38  00D9  0F01        	mov a,1
  38  00DA              	fcall _LCMWrite4
  39  00E1              #line 39 "C:\Users\YVTC\Desktop\單晶片微控制器(一)\0515\H5-10_1.c"
  39  00E1  0700     R  	mov a,_main_2[1]
  39  00E2  0080     R  	mov _LCMWrite4_2[0],a
  39  00E3  0F00        	mov a,0
  39  00E4              	fcall _LCMWrite4
  40  00EB              #line 40 "C:\Users\YVTC\Desktop\單晶片微控制器(一)\0515\H5-10_1.c"
  40  00EB  0F20        	mov a,32
  40  00EC  0080     R  	mov _LCMWrite4_2[0],a
  40  00ED  0F01        	mov a,1
  40  00EE              	fcall _LCMWrite4
  40  00F5  0F20        	mov a,32
  40  00F6  0080     R  	mov _LCMWrite4_2[0],a
  40  00F7  0F01        	mov a,1
  40  00F8              	fcall _LCMWrite4
  26  00FF              #line 26 "C:\Users\YVTC\Desktop\單晶片微控制器(一)\0515\H5-10_1.c"
  26  00FF  1580     R  	dec _main_2[0]
  26  0100  1600     R  	siza _main_2[0]
  26  0101  2800     R  	jmp _L20
  42  0102              #line 42 "C:\Users\YVTC\Desktop\單晶片微控制器(一)\0515\H5-10_1.c"
  42  0102  0F40        	mov a,64
  42  0103  0080     R  	mov _LCMWrite4_2[0],a
  42  0104  0F00        	mov a,0
  42  0105              	fcall _LCMWrite4
  42  010C  0F40        	mov a,64
  42  010D  0080     R  	mov _main_2[0],a
  43  010E              #line 43 "C:\Users\YVTC\Desktop\單晶片微控制器(一)\0515\H5-10_1.c"
  43  010E  1F00     R  	clr _main_2[1]
  43  010F              _L22:
  44  010F              #line 44 "C:\Users\YVTC\Desktop\單晶片微控制器(一)\0515\H5-10_1.c"
  44  010F  0700     R  	mov a,_main_2[1]
"File: H5-10_1.c     Assembler  Version HGASM0202      Page 14

  44  0110  0080     E  	mov rb,a
  44  0111  1F00     E  	clr rc
  44  0112  3F85        	sz acc.7
  44  0113  1F80     E  	set rc
  44  0114  0F00     R  	mov a,low offset _TAB_CGRAM
  44  0115  0300     E  	add a,rb
  44  0116  0083        	mov mp,a
  44  0117  0F00     R  	mov a,high offset _TAB_CGRAM
  44  0118  1300     E  	adc a,rc
  44  0119  0084        	mov sbp,a
  44  011A              	fcall _Crom2Prom
  44  0121              	fcall _BitReverse
  44  0128  0080     E  	mov ra,a
  44  0129  0700     E  	mov a,ra
  44  012A  0080     R  	mov _LCMWrite4_2[0],a
  44  012B  0F01        	mov a,1
  44  012C              	fcall _LCMWrite4
  43  0133              #line 43 "C:\Users\YVTC\Desktop\單晶片微控制器(一)\0515\H5-10_1.c"
  43  0133  1480     R  	inc _main_2[1]
  43  0134  1780     R  	sdz _main_2[0]
  43  0135  2800     R  	jmp _L22
  43  0136  1F00     R  	clr _main_2[0]
  43  0137              _L25:
  43  0137  0700     R  	mov a,_main_2[0]
  43  0138  0B80        	add a,128
  43  0139  0080     R  	mov _main_2[2],a
  46  013A              #line 46 "C:\Users\YVTC\Desktop\單晶片微控制器(一)\0515\H5-10_1.c"
  46  013A  0700     R  	mov a,_main_2[2]
  46  013B  0080     R  	mov _LCMWrite4_2[0],a
  46  013C  0F00        	mov a,0
  46  013D              	fcall _LCMWrite4
  47  0144              #line 47 "C:\Users\YVTC\Desktop\單晶片微控制器(一)\0515\H5-10_1.c"
  47  0144  0F01        	mov a,1
  47  0145  0080     R  	mov _LCMWrite4_2[0],a
  47  0146  0F01        	mov a,1
  47  0147              	fcall _LCMWrite4
  47  014E  1F00     R  	clr _LCMWrite4_2[0]
  47  014F  0F01        	mov a,1
  47  0150              	fcall _LCMWrite4
  47  0157  0700     R  	mov a,_main_2[0]
  47  0158  0BC0        	add a,192
  47  0159  0080     R  	mov _main_2[1],a
  48  015A              #line 48 "C:\Users\YVTC\Desktop\單晶片微控制器(一)\0515\H5-10_1.c"
  48  015A  0700     R  	mov a,_main_2[1]
  48  015B  0080     R  	mov _LCMWrite4_2[0],a
  48  015C  0F00        	mov a,0
  48  015D              	fcall _LCMWrite4
  49  0164              #line 49 "C:\Users\YVTC\Desktop\單晶片微控制器(一)\0515\H5-10_1.c"
  49  0164  0F03        	mov a,3
  49  0165  0080     R  	mov _LCMWrite4_2[0],a
  49  0166  0F01        	mov a,1
  49  0167              	fcall _LCMWrite4
  49  016E  0F02        	mov a,2
  49  016F  0080     R  	mov _LCMWrite4_2[0],a
  49  0170  0F01        	mov a,1
  49  0171              	fcall _LCMWrite4
  50  0178              #line 50 "C:\Users\YVTC\Desktop\單晶片微控制器(一)\0515\H5-10_1.c"
  50  0178  0F0A        	mov a,10
  50  0179              	fcall _PAUSE
  51  0180              #line 51 "C:\Users\YVTC\Desktop\單晶片微控制器(一)\0515\H5-10_1.c"
"File: H5-10_1.c     Assembler  Version HGASM0202      Page 15

  51  0180  0700     R  	mov a,_main_2[2]
  51  0181  0080     R  	mov _LCMWrite4_2[0],a
  51  0182  0F00        	mov a,0
  51  0183              	fcall _LCMWrite4
  52  018A              #line 52 "C:\Users\YVTC\Desktop\單晶片微控制器(一)\0515\H5-10_1.c"
  52  018A  0F05        	mov a,5
  52  018B  0080     R  	mov _LCMWrite4_2[0],a
  52  018C  0F01        	mov a,1
  52  018D              	fcall _LCMWrite4
  52  0194  0F04        	mov a,4
  52  0195  0080     R  	mov _LCMWrite4_2[0],a
  52  0196  0F01        	mov a,1
  52  0197              	fcall _LCMWrite4
  53  019E              #line 53 "C:\Users\YVTC\Desktop\單晶片微控制器(一)\0515\H5-10_1.c"
  53  019E  0700     R  	mov a,_main_2[1]
  53  019F  0080     R  	mov _LCMWrite4_2[0],a
  53  01A0  0F00        	mov a,0
  53  01A1              	fcall _LCMWrite4
  54  01A8              #line 54 "C:\Users\YVTC\Desktop\單晶片微控制器(一)\0515\H5-10_1.c"
  54  01A8  0F07        	mov a,7
  54  01A9  0080     R  	mov _LCMWrite4_2[0],a
  54  01AA  0F01        	mov a,1
  54  01AB              	fcall _LCMWrite4
  54  01B2  0F06        	mov a,6
  54  01B3  0080     R  	mov _LCMWrite4_2[0],a
  54  01B4  0F01        	mov a,1
  54  01B5              	fcall _LCMWrite4
  55  01BC              #line 55 "C:\Users\YVTC\Desktop\單晶片微控制器(一)\0515\H5-10_1.c"
  55  01BC  0F0A        	mov a,10
  55  01BD              	fcall _PAUSE
  56  01C4              #line 56 "C:\Users\YVTC\Desktop\單晶片微控制器(一)\0515\H5-10_1.c"
  56  01C4  0700     R  	mov a,_main_2[2]
  56  01C5  0080     R  	mov _LCMWrite4_2[0],a
  56  01C6  0F00        	mov a,0
  56  01C7              	fcall _LCMWrite4
  57  01CE              #line 57 "C:\Users\YVTC\Desktop\單晶片微控制器(一)\0515\H5-10_1.c"
  57  01CE  0F20        	mov a,32
  57  01CF  0080     R  	mov _LCMWrite4_2[0],a
  57  01D0  0F01        	mov a,1
  57  01D1              	fcall _LCMWrite4
  57  01D8  0F20        	mov a,32
  57  01D9  0080     R  	mov _LCMWrite4_2[0],a
  57  01DA  0F01        	mov a,1
  57  01DB              	fcall _LCMWrite4
  58  01E2              #line 58 "C:\Users\YVTC\Desktop\單晶片微控制器(一)\0515\H5-10_1.c"
  58  01E2  0700     R  	mov a,_main_2[1]
  58  01E3  0080     R  	mov _LCMWrite4_2[0],a
  58  01E4  0F00        	mov a,0
  58  01E5              	fcall _LCMWrite4
  59  01EC              #line 59 "C:\Users\YVTC\Desktop\單晶片微控制器(一)\0515\H5-10_1.c"
  59  01EC  0F20        	mov a,32
  59  01ED  0080     R  	mov _LCMWrite4_2[0],a
  59  01EE  0F01        	mov a,1
  59  01EF              	fcall _LCMWrite4
  59  01F6  0F20        	mov a,32
  59  01F7  0080     R  	mov _LCMWrite4_2[0],a
  59  01F8  0F01        	mov a,1
  59  01F9              	fcall _LCMWrite4
  45  0200              #line 45 "C:\Users\YVTC\Desktop\單晶片微控制器(一)\0515\H5-10_1.c"
  45  0200  1480     R  	inc _main_2[0]
"File: H5-10_1.c     Assembler  Version HGASM0202      Page 16

  45  0201  0700     R  	mov a,_main_2[0]
  45  0202  0A14        	sub a,20
  45  0203  390A        	snz z
  45  0204  2800     R  	jmp _L25
  45  0205  2800     R  	jmp _L24
  45  0206  2800     R  	jmp $
  45  0207              _main endp
  45  0207              
  45  0207              @dummy endp
  45  0207              
  45  0207              #line 45 "C:\Users\YVTC\Desktop\單晶片微控制器(一)\0515\H5-10_1.c"
  45  0207              #pragma debug scope 1 1
  45  0207              public _TAB_CGRAM
  45  0000              @crom	.section 'crom'
   6  0000              #line 6 "C:\Users\YVTC\Desktop\單晶片微控制器(一)\0515\H5-10_1.c"
   6  0000              @crom	.section	'crom'
   6  0000              _TAB_CGRAM:
   6  0000              #pragma debug array 42 8 64 1
   6  0000              #pragma debug array 42 8 64 1
   6  0000              #pragma debug variable 42 1 _TAB_CGRAM "TAB_CGRAM"
   6  0000              	db 0
   6  0001              	db 12
   6  0001              	db 30
   6  0002              	db 12
   6  0002              	db 6
   6  0003              	db 7
   6  0003              	db 7
   6  0004              	db 11
   6  0004              	db 0
   6  0005              	db 0
   6  0005              	db 0
   6  0006              	db 0
   6  0006              	db 0
   6  0007              	db 24
   6  0007              	db 4
   6  0008              	db 2
   6  0008              	db 17
   6  0009              	db 1
   6  0009              	db 1
   6  000A              	db 1
   6  000A              	db 2
   6  000B              	db 26
   6  000B              	db 12
   6  000C              	db 0
   6  000C              	db 16
   6  000D              	db 16
   6  000D              	db 8
   6  000E              	db 6
   6  000E              	db 3
   6  000F              	db 1
   6  000F              	db 1
   6  0010              	db 0
   6  0010              	db 0
   6  0011              	db 12
   6  0011              	db 30
   6  0012              	db 12
   6  0012              	db 6
   6  0013              	db 7
   6  0013              	db 6
   6  0014              	db 3
"File: H5-10_1.c     Assembler  Version HGASM0202      Page 17

   6  0014              	db 0
   6  0015              	db 0
   6  0015              	db 0
   6  0016              	db 0
   6  0016              	db 0
   6  0017              	db 0
   6  0017              	db 16
   6  0018              	db 8
   6  0018              	db 5
   6  0019              	db 5
   6  0019              	db 3
   6  001A              	db 4
   6  001A              	db 4
   6  001B              	db 3
   6  001B              	db 15
   6  001C              	db 0
   6  001C              	db 8
   6  001D              	db 16
   6  001D              	db 16
   6  001E              	db 16
   6  001E              	db 8
   6  001F              	db 6
   6  001F              	db 12
   6  0020              	db 0
   6  0020              #pragma debug struct_end
   6  0020              #pragma debug struct_end
   6  0020              #pragma debug union_end
   6  0020              #pragma debug union_end
   6  0020              #pragma debug variable 44 1 ___pg "__pg" 1
   6  0020              #pragma debug struct_end
   6  0020              #pragma debug struct_end
   6  0020              #pragma debug union_end
   6  0020              #pragma debug union_end
   6  0020              #pragma debug variable 46 1 ___pgc "__pgc" 1
   6  0020              #pragma debug struct_end
   6  0020              #pragma debug struct_end
   6  0020              #pragma debug union_end
   6  0020              #pragma debug union_end
   6  0020              #pragma debug variable 48 1 ___ph "__ph" 1
   6  0020              #pragma debug struct_end
   6  0020              #pragma debug struct_end
   6  0020              #pragma debug union_end
   6  0020              #pragma debug union_end
   6  0020              #pragma debug variable 50 1 ___phc "__phc" 1
   6  0020              #pragma debug struct_end
   6  0020              #pragma debug struct_end
   6  0020              #pragma debug union_end
   6  0020              #pragma debug union_end
   6  0020              #pragma debug variable 52 1 ___wdtc "__wdtc" 1
  20  0020              #line 20 "C:\Users\YVTC\Desktop\單晶片微控制器(一)\0515\H5-10_1.c"
  20  0000              @code .section at 0 'code'
  20  0000  1F0B        	clr bp
  20  0001  2800     R  	jmp _main_startup1
  20  0002              
  20  0002              
  20  0002              ; 
  20  0002              ; Generated by holtek-gcc v3.18, Tue May 15 13:06:21 2018
  20  0002              ; Rebuild 126
  20  0002              ; end of file

"File: H5-10_1.c     Assembler  Version HGASM0202      Page 18


        0 Errors, 0