"File: H5-6EXT.c     Assembler  Version HGASM0202      Page 1


   1  0000              ; Generated by holtek-gcc v3.18, Tue May 15 09:12:53 2018
   2  0000              ; 
   3  0000              ; Configuration:
   4  0000              ;       with long instruction
   5  0000              ;       Multi-ROM, Multi-RAM
   6  0000              ;       bits_per_rom_unit:16
   7  0000              ;       with mp1
   8  0000              ;       with tbhp, address(0x9)
   9  0000              ;          Use tabrd-const
  10  0000              ;       
  11  0000              ; SFR address of long-instruction arch:
  12  0000              ;    mp0 = -1,1,0
  13  0000              ;    mp1 = 4,3,2
  14  0000              ;    mp2 = 14,13,12
  15  0000              ;    tbp = 9,7,8
  16  0000              ;    acc = 5
  17  0000              ;    pcl = 6
  18  0000              ;    status = 10
  19  0000              ;    bp = 11
  20  0000              ;    intc = 48
  21  0000              ;       
  22  0000              ;       
  23  0000              ; use 'tabrdc' instead of 'tabrd'
  24  0000              ;       
  25  0000              
  26  0000              #pragma translator "holtek-gcc 4.6.4" "3.18" "build 20130711"
  27  0000              ; Rebuild 126
  28  0000              
  29  0000              ir equ [2]
  30  0000              mp equ [3]
  31  0000              sbp equ [4]
  32  0000              acc equ [5]
  33  0000              bp equ [11]
  34  0000              tblp equ [7]
  35  0000              tbhp equ [9]
  36  0000              status equ [10]
  37  0000              c equ [10].0
  38  0000              ac equ [10].1
  39  0000              z equ [10].2
  40  0000              ov equ [10].3
  41  0000              cz equ [10].6
  42  0000              sc equ [10].7
  43  0000              intc equ [48]
  44  0000              
  45  0000              extern ra:byte
  46  0000              extern rb:byte
  47  0000              extern rc:byte
  48  0000              extern rd:byte
  49  0000              extern re:byte
  50  0000              extern rf:byte
  51  0000              extern rg:byte
  52  0000              extern rh:byte
  53  0000              extern _Crom2Prom:near
  54  0000              extern _Crom2PromNext:near
  55  0000              
  56  0000              RAMBANK 0 @BITDATASEC, @BITDATASEC1
  57  0000              @HCCINIT	.section 'data'
  58  0000              @HCCINIT0	.section 'data'
  59  0000              @BITDATASEC	 .section 'data'
"File: H5-6EXT.ASM   Assembler  Version HGASM0202      Page 2

  60  0000              @BITDATASEC1	 .section 'data'
  61  0000              
  62  0000              #pragma debug scope 1 1
  63  0000              	extern __DELAY3:near
  64  0000              	extern __DELAYX3:near
  65  0000              	extern __DELAYX6:near
  66  0000              	extern __DELAYY5:near
  67  0000              	extern __DELAYY3:near
  68  0000              	extern _builtin_holtek_delay_2:byte
  69  0000              ___pgc equ [43]
  70  0000              ___ph equ [46]
  71  0000              ___pg equ [42]
  72  0000              public _LCMWrite
  73  0000              #pragma debug scope 2 1

  55  0000              #line 55 "C:\Users\YVTC\Desktop\單晶片微控制器(一)\0508\H5-6EXT.c"
  55  0000              _LCMWrite .section 'code'
  55  0000              _LCMWrite proc
  55  0000              public _LCMWrite_2
  55  0000  0002[           local _LCMWrite_2 db 2 dup(?)	; 1,1
            00
            ]
  55  0000  0080     R  	mov _LCMWrite_2[1],a
  55  0001              #pragma debug variable 8 2 _LCMWrite_2+1 "DCFlag"
  55  0001              #pragma debug variable 8 2 _LCMWrite_2+0 "CD"
  56  0001              #line 56 "C:\Users\YVTC\Desktop\單晶片微控制器(一)\0508\H5-6EXT.c"
  56  0001  1FAB        	set [43]
  57  0002              #line 57 "C:\Users\YVTC\Desktop\單晶片微控制器(一)\0508\H5-6EXT.c"
  57  0002  342E        	clr [46].0
  57  0003  30AE        	set [46].1
  58  0004              #line 58 "C:\Users\YVTC\Desktop\單晶片微控制器(一)\0508\H5-6EXT.c"
  58  0004              ;# 58 "C:\Users\YVTC\Desktop\單晶片微控制器(一)\0508\H5-6EXT.c" 1
  58  0004  0000        	nop
  58  0005              _L3:
  60  0005              #line 60 "C:\Users\YVTC\Desktop\單晶片微控制器(一)\0508\H5-6EXT.c"
  60  0005  312E        	set [46].2
  60  0006              ;# 60 "C:\Users\YVTC\Desktop\單晶片微控制器(一)\0508\H5-6EXT.c" 1
  60  0006  0000        	nop
  61  0007              #line 61 "C:\Users\YVTC\Desktop\單晶片微控制器(一)\0508\H5-6EXT.c"
  61  0007  072A        	mov a,[42]
  61  0008  0080     E  	mov ra,a
  62  0009              #line 62 "C:\Users\YVTC\Desktop\單晶片微控制器(一)\0508\H5-6EXT.c"
  62  0009  352E        	clr [46].2
  63  000A              #line 63 "C:\Users\YVTC\Desktop\單晶片微控制器(一)\0508\H5-6EXT.c"
  63  000A  3C00     E  	sz ra.7
  63  000B  2800     R  	jmp _L3
  64  000C              #line 64 "C:\Users\YVTC\Desktop\單晶片微控制器(一)\0508\H5-6EXT.c"
  64  000C  1F2B        	clr [43]
  65  000D              #line 65 "C:\Users\YVTC\Desktop\單晶片微控制器(一)\0508\H5-6EXT.c"
  65  000D  34AE        	clr [46].1
  66  000E              #line 66 "C:\Users\YVTC\Desktop\單晶片微控制器(一)\0508\H5-6EXT.c"
  66  000E  0700     R  	mov a,_LCMWrite_2[1]
  66  000F  0E01        	and a,1
  66  0010  0080     E  	mov rb,a
  66  0011  342E        	clr [46].0
  66  0012  0700     E  	mov a,rb
  66  0013  05AE        	orm a,[46]
  67  0014              #line 67 "C:\Users\YVTC\Desktop\單晶片微控制器(一)\0508\H5-6EXT.c"
  67  0014  0700     R  	mov a,_LCMWrite_2[0]
  67  0015  00AA        	mov [42],a
"File: H5-6EXT.c     Assembler  Version HGASM0202      Page 3

  68  0016              #line 68 "C:\Users\YVTC\Desktop\單晶片微控制器(一)\0508\H5-6EXT.c"
  68  0016  312E        	set [46].2
  68  0017              ;# 68 "C:\Users\YVTC\Desktop\單晶片微控制器(一)\0508\H5-6EXT.c" 1
  68  0017  0000        	nop
  68  0018  352E        	clr [46].2
  70  0019              #line 70 "C:\Users\YVTC\Desktop\單晶片微控制器(一)\0508\H5-6EXT.c"
  70  0019  0700     E  	mov a,ra
  70  001A  0003        	ret
  70  001B              _LCMWrite endp
  70  001B              #line 70 "C:\Users\YVTC\Desktop\單晶片微控制器(一)\0508\H5-6EXT.c"
  70  001B              #pragma debug scope 1 1
  70  001B              ___phc equ [47]
  70  001B              public _LCMInit
  70  001B              #pragma debug scope 3 1
  46  001B              #line 46 "C:\Users\YVTC\Desktop\單晶片微控制器(一)\0508\H5-6EXT.c"
  46  0000              _LCMInit .section 'code'
  46  0000              _LCMInit proc
  46  0000  352E        	clr [46].2
  46  0001  34AE        	clr [46].1
  46  0002  342E        	clr [46].0
  47  0003              #line 47 "C:\Users\YVTC\Desktop\單晶片微控制器(一)\0508\H5-6EXT.c"
  47  0003  352F        	clr [47].2
  47  0004  34AF        	clr [47].1
  47  0005  342F        	clr [47].0
  48  0006              #line 48 "C:\Users\YVTC\Desktop\單晶片微控制器(一)\0508\H5-6EXT.c"
  48  0006              ;# 48 "C:\Users\YVTC\Desktop\單晶片微控制器(一)\0508\H5-6EXT.c" 1
  48  0006              	IF 50000>263690
  48  0006              ;# 48 "C:\Users\YVTC\Desktop\單晶片微控制器(一)\0508\H5-6EXT.c" 1
  48  0006              	ERRMESSAGE 'the value 50000of the argument exceeds the maxinum 263690'
  48  0006              	ENDIF
  48  0006              ;# 48 "C:\Users\YVTC\Desktop\單晶片微控制器(一)\0508\H5-6EXT.c" 1
  48  0006              	IF 50000<0
  48  0006              ;# 48 "C:\Users\YVTC\Desktop\單晶片微控制器(一)\0508\H5-6EXT.c" 1
  48  0006              	ERRMESSAGE 'the value 50000 of the argument exceeds the mininum 0'
  48  0006              	ENDIF
  48  0006              ;# 48 "C:\Users\YVTC\Desktop\單晶片微控制器(一)\0508\H5-6EXT.c" 1
  48  0006              	IF 50000==0
  48  0006              ;# 48 "C:\Users\YVTC\Desktop\單晶片微控制器(一)\0508\H5-6EXT.c" 1
  48  0006              	JMP $
  48  0006              	ENDIF
  48  0006              ;# 48 "C:\Users\YVTC\Desktop\單晶片微控制器(一)\0508\H5-6EXT.c" 1
  48  0006              	IF (50000>=1) AND (50000<( 4 + __PBP__ * 2))
  48  0006              ;# 48 "C:\Users\YVTC\Desktop\單晶片微控制器(一)\0508\H5-6EXT.c" 1
  48  0006              	NOP
  48  0006              	ENDIF
  48  0006              ;# 48 "C:\Users\YVTC\Desktop\單晶片微控制器(一)\0508\H5-6EXT.c" 1
  48  0006              	IF (50000>=2) AND (50000<( 4 + __PBP__ * 2))
  48  0006              ;# 48 "C:\Users\YVTC\Desktop\單晶片微控制器(一)\0508\H5-6EXT.c" 1
  48  0006              	NOP
  48  0006              	ENDIF
  48  0006              ;# 48 "C:\Users\YVTC\Desktop\單晶片微控制器(一)\0508\H5-6EXT.c" 1
  48  0006              	IF (50000>=3) AND (50000<( 4 + __PBP__ * 2))
  48  0006              ;# 48 "C:\Users\YVTC\Desktop\單晶片微控制器(一)\0508\H5-6EXT.c" 1
  48  0006              	NOP
  48  0006              	ENDIF
  48  0006              ;# 48 "C:\Users\YVTC\Desktop\單晶片微控制器(一)\0508\H5-6EXT.c" 1
  48  0006              	IF (50000>=4) AND (50000<( 4 + __PBP__ * 2)) AND ( __PBP__ > 0 )
  48  0006              ;# 48 "C:\Users\YVTC\Desktop\單晶片微控制器(一)\0508\H5-6EXT.c" 1
  48  0006              	NOP
  48  0006              	ENDIF
"File: H5-6EXT.c     Assembler  Version HGASM0202      Page 4

  48  0006              ;# 48 "C:\Users\YVTC\Desktop\單晶片微控制器(一)\0508\H5-6EXT.c" 1
  48  0006              	IF (50000>=5) AND (50000<( 4 + __PBP__ * 2)) AND ( __PBP__ > 0 )
  48  0006              ;# 48 "C:\Users\YVTC\Desktop\單晶片微控制器(一)\0508\H5-6EXT.c" 1
  48  0006              	NOP
  48  0006              	ENDIF
  48  0006              ;# 48 "C:\Users\YVTC\Desktop\單晶片微控制器(一)\0508\H5-6EXT.c" 1
  48  0006              	IF (50000>=6) AND (50000<( 4 + __PBP__ * 2))  AND ( __PBP__ > 1 )
  48  0006              ;# 48 "C:\Users\YVTC\Desktop\單晶片微控制器(一)\0508\H5-6EXT.c" 1
  48  0006              	NOP
  48  0006              	ENDIF
  48  0006              ;# 48 "C:\Users\YVTC\Desktop\單晶片微控制器(一)\0508\H5-6EXT.c" 1
  48  0006              	IF (50000>=7) AND (50000<( 4 + __PBP__ * 2))  AND ( __PBP__ > 1 )
  48  0006              ;# 48 "C:\Users\YVTC\Desktop\單晶片微控制器(一)\0508\H5-6EXT.c" 1
  48  0006              	NOP
  48  0006              	ENDIF
  48  0006              ;# 48 "C:\Users\YVTC\Desktop\單晶片微控制器(一)\0508\H5-6EXT.c" 1
  48  0006              	IF (50000>=8) AND (50000<( 4 + __PBP__ * 2))  AND ( __PBP__ > 2 )
  48  0006              ;# 48 "C:\Users\YVTC\Desktop\單晶片微控制器(一)\0508\H5-6EXT.c" 1
  48  0006              	NOP
  48  0006              	ENDIF
  48  0006              ;# 48 "C:\Users\YVTC\Desktop\單晶片微控制器(一)\0508\H5-6EXT.c" 1
  48  0006              	IF (50000==9)  AND ( __PBP__ > 2 )
  48  0006              ;# 48 "C:\Users\YVTC\Desktop\單晶片微控制器(一)\0508\H5-6EXT.c" 1
  48  0006              	NOP
  48  0006              	ENDIF
  48  0006              ;# 48 "C:\Users\YVTC\Desktop\單晶片微控制器(一)\0508\H5-6EXT.c" 1
  48  0006              	IF (50000< ( 8 + __PBP__ * 2)) AND (50000>( 3 + __PBP__ * 2))
  48  0006              ;# 48 "C:\Users\YVTC\Desktop\單晶片微控制器(一)\0508\H5-6EXT.c" 1
  48  0006              	fcall __DELAY3 + ( 7 + __PBP__ * 2) -50000
  48  0006              	ENDIF
  48  0006              ;# 48 "C:\Users\YVTC\Desktop\單晶片微控制器(一)\0508\H5-6EXT.c" 1
  48  0006              	IF (50000< ( 0404h + __PBP__ * 2)) AND (50000>( 7 + __PBP__ * 2))
  48  0006              ;# 48 "C:\Users\YVTC\Desktop\單晶片微控制器(一)\0508\H5-6EXT.c" 1
  48  0006              	MOV A,(50000-( 4 + __PBP__ * 2))/4
  48  0006              ;# 48 "C:\Users\YVTC\Desktop\單晶片微控制器(一)\0508\H5-6EXT.c" 1
  48  0006              	fcall __DELAYX3 + 3 -((50000-( 4 + __PBP__ * 2)) MOD 4) 
  48  0006              	ENDIF
  48  0006              ;# 48 "C:\Users\YVTC\Desktop\單晶片微控制器(一)\0508\H5-6EXT.c" 1
  48  0006              	IF (50000< ( 040bh + __PBP__ * 2)) AND (50000> ( 0403h + __PBP__ * 2))
  48  0006              ;# 48 "C:\Users\YVTC\Desktop\單晶片微控制器(一)\0508\H5-6EXT.c" 1
  48  0006              	MOV A,0 
  48  0006              ;# 48 "C:\Users\YVTC\Desktop\單晶片微控制器(一)\0508\H5-6EXT.c" 1
  48  0006              	fcall __DELAYX6 + ( 040ah + __PBP__ * 2) -50000
  48  0006              	ENDIF
  48  0006              ;# 48 "C:\Users\YVTC\Desktop\單晶片微控制器(一)\0508\H5-6EXT.c" 1
  48  0006              	IF (50000 >= ( 040bh + __PBP__ * 2)) AND ((((50000-( 9 + __PBP__ * 2))%0402h)/4+1)>256)
  48  0006              ;# 48 "C:\Users\YVTC\Desktop\單晶片微控制器(一)\0508\H5-6EXT.c" 1
  48  0006              	MOV A,(50000-( 9 + __PBP__ * 2))/0402h
  48  0006              ;# 48 "C:\Users\YVTC\Desktop\單晶片微控制器(一)\0508\H5-6EXT.c" 1
  48  0006              	MOV _builtin_holtek_delay_2,A
  48  0006              ;# 48 "C:\Users\YVTC\Desktop\單晶片微控制器(一)\0508\H5-6EXT.c" 1
  48  0006              	MOV A,0
  48  0006              ;# 48 "C:\Users\YVTC\Desktop\單晶片微控制器(一)\0508\H5-6EXT.c" 1
  48  0006              	fcall __DELAYY5 +5- (((50000-( 9 + __PBP__ * 2))%0402h)%6) 
  48  0006              	ENDIF
  48  0006              ;# 48 "C:\Users\YVTC\Desktop\單晶片微控制器(一)\0508\H5-6EXT.c" 1
  48  0006              	IF (50000 >= ( 040bh + __PBP__ * 2)) AND ((((50000-( 9 + __PBP__ * 2))%0402h)/4+1)<=256)
  48  0006              ;# 48 "C:\Users\YVTC\Desktop\單晶片微控制器(一)\0508\H5-6EXT.c" 1
  48  0006  0F30        	MOV A,(50000-( 9 + __PBP__ * 2))/0402h
  48  0007              ;# 48 "C:\Users\YVTC\Desktop\單晶片微控制器(一)\0508\H5-6EXT.c" 1
"File: H5-6EXT.c     Assembler  Version HGASM0202      Page 5

  48  0007  0080     E  	MOV _builtin_holtek_delay_2,A
  48  0008              ;# 48 "C:\Users\YVTC\Desktop\單晶片微控制器(一)\0508\H5-6EXT.c" 1
  48  0008  0FB9        	MOV A,((50000-( 9 + __PBP__ * 2))%0402h)/4+1
  48  0009              ;# 48 "C:\Users\YVTC\Desktop\單晶片微控制器(一)\0508\H5-6EXT.c" 1
  48  0009              	fcall __DELAYY3 +3-(((50000-( 9 + __PBP__ * 2))%0402h)%4) 
  48  0010              	ENDIF
  49  0010              #line 49 "C:\Users\YVTC\Desktop\單晶片微控制器(一)\0508\H5-6EXT.c"
  49  0010  0F38        	mov a,56
  49  0011  0080     R  	mov _LCMWrite_2[0],a
  49  0012  0F00        	mov a,0
  49  0013              	fcall _LCMWrite
  50  001A              #line 50 "C:\Users\YVTC\Desktop\單晶片微控制器(一)\0508\H5-6EXT.c"
  50  001A  0F0F        	mov a,15
  50  001B  0080     R  	mov _LCMWrite_2[0],a
  50  001C  0F00        	mov a,0
  50  001D              	fcall _LCMWrite
  51  0024              #line 51 "C:\Users\YVTC\Desktop\單晶片微控制器(一)\0508\H5-6EXT.c"
  51  0024  0F06        	mov a,6
  51  0025  0080     R  	mov _LCMWrite_2[0],a
  51  0026  0F00        	mov a,0
  51  0027              	fcall _LCMWrite
  52  002E              #line 52 "C:\Users\YVTC\Desktop\單晶片微控制器(一)\0508\H5-6EXT.c"
  52  002E  0F01        	mov a,1
  52  002F  0080     R  	mov _LCMWrite_2[0],a
  52  0030  0F00        	mov a,0
  52  0031              	fcall _LCMWrite
  52  0038  0003        	ret
  52  0039              _LCMInit endp
  52  0039              #line 52 "C:\Users\YVTC\Desktop\單晶片微控制器(一)\0508\H5-6EXT.c"
  52  0039              #pragma debug scope 1 1
  52  0039              public _PAUSE
  52  0039              #pragma debug scope 4 1
  72  0039              #line 72 "C:\Users\YVTC\Desktop\單晶片微控制器(一)\0508\H5-6EXT.c"
  72  0000              _PAUSE .section 'code'
  72  0000              _PAUSE proc
  72  0000  00              local _PAUSE_2 db 1 dup(?)	; 0,1
  72  0000  0080     R  	mov _PAUSE_2[0],a
  72  0001              #pragma debug variable 8 4 _PAUSE_2+0 "i"
  73  0001              #line 73 "C:\Users\YVTC\Desktop\單晶片微控制器(一)\0508\H5-6EXT.c"
  73  0001  1F00     E  	clr ra
  73  0002  2800     R  	jmp _L7
  73  0003              _L8:
  73  0003              #line 73 "C:\Users\YVTC\Desktop\單晶片微控制器(一)\0508\H5-6EXT.c"
  73  0003              ;# 73 "C:\Users\YVTC\Desktop\單晶片微控制器(一)\0508\H5-6EXT.c" 1
  73  0003              	IF 20000>263690
  73  0003              ;# 73 "C:\Users\YVTC\Desktop\單晶片微控制器(一)\0508\H5-6EXT.c" 1
  73  0003              	ERRMESSAGE 'the value 20000of the argument exceeds the maxinum 263690'
  73  0003              	ENDIF
  73  0003              ;# 73 "C:\Users\YVTC\Desktop\單晶片微控制器(一)\0508\H5-6EXT.c" 1
  73  0003              	IF 20000<0
  73  0003              ;# 73 "C:\Users\YVTC\Desktop\單晶片微控制器(一)\0508\H5-6EXT.c" 1
  73  0003              	ERRMESSAGE 'the value 20000 of the argument exceeds the mininum 0'
  73  0003              	ENDIF
  73  0003              ;# 73 "C:\Users\YVTC\Desktop\單晶片微控制器(一)\0508\H5-6EXT.c" 1
  73  0003              	IF 20000==0
  73  0003              ;# 73 "C:\Users\YVTC\Desktop\單晶片微控制器(一)\0508\H5-6EXT.c" 1
  73  0003              	JMP $
  73  0003              	ENDIF
  73  0003              ;# 73 "C:\Users\YVTC\Desktop\單晶片微控制器(一)\0508\H5-6EXT.c" 1
  73  0003              	IF (20000>=1) AND (20000<( 4 + __PBP__ * 2))
"File: H5-6EXT.c     Assembler  Version HGASM0202      Page 6

  73  0003              ;# 73 "C:\Users\YVTC\Desktop\單晶片微控制器(一)\0508\H5-6EXT.c" 1
  73  0003              	NOP
  73  0003              	ENDIF
  73  0003              ;# 73 "C:\Users\YVTC\Desktop\單晶片微控制器(一)\0508\H5-6EXT.c" 1
  73  0003              	IF (20000>=2) AND (20000<( 4 + __PBP__ * 2))
  73  0003              ;# 73 "C:\Users\YVTC\Desktop\單晶片微控制器(一)\0508\H5-6EXT.c" 1
  73  0003              	NOP
  73  0003              	ENDIF
  73  0003              ;# 73 "C:\Users\YVTC\Desktop\單晶片微控制器(一)\0508\H5-6EXT.c" 1
  73  0003              	IF (20000>=3) AND (20000<( 4 + __PBP__ * 2))
  73  0003              ;# 73 "C:\Users\YVTC\Desktop\單晶片微控制器(一)\0508\H5-6EXT.c" 1
  73  0003              	NOP
  73  0003              	ENDIF
  73  0003              ;# 73 "C:\Users\YVTC\Desktop\單晶片微控制器(一)\0508\H5-6EXT.c" 1
  73  0003              	IF (20000>=4) AND (20000<( 4 + __PBP__ * 2)) AND ( __PBP__ > 0 )
  73  0003              ;# 73 "C:\Users\YVTC\Desktop\單晶片微控制器(一)\0508\H5-6EXT.c" 1
  73  0003              	NOP
  73  0003              	ENDIF
  73  0003              ;# 73 "C:\Users\YVTC\Desktop\單晶片微控制器(一)\0508\H5-6EXT.c" 1
  73  0003              	IF (20000>=5) AND (20000<( 4 + __PBP__ * 2)) AND ( __PBP__ > 0 )
  73  0003              ;# 73 "C:\Users\YVTC\Desktop\單晶片微控制器(一)\0508\H5-6EXT.c" 1
  73  0003              	NOP
  73  0003              	ENDIF
  73  0003              ;# 73 "C:\Users\YVTC\Desktop\單晶片微控制器(一)\0508\H5-6EXT.c" 1
  73  0003              	IF (20000>=6) AND (20000<( 4 + __PBP__ * 2))  AND ( __PBP__ > 1 )
  73  0003              ;# 73 "C:\Users\YVTC\Desktop\單晶片微控制器(一)\0508\H5-6EXT.c" 1
  73  0003              	NOP
  73  0003              	ENDIF
  73  0003              ;# 73 "C:\Users\YVTC\Desktop\單晶片微控制器(一)\0508\H5-6EXT.c" 1
  73  0003              	IF (20000>=7) AND (20000<( 4 + __PBP__ * 2))  AND ( __PBP__ > 1 )
  73  0003              ;# 73 "C:\Users\YVTC\Desktop\單晶片微控制器(一)\0508\H5-6EXT.c" 1
  73  0003              	NOP
  73  0003              	ENDIF
  73  0003              ;# 73 "C:\Users\YVTC\Desktop\單晶片微控制器(一)\0508\H5-6EXT.c" 1
  73  0003              	IF (20000>=8) AND (20000<( 4 + __PBP__ * 2))  AND ( __PBP__ > 2 )
  73  0003              ;# 73 "C:\Users\YVTC\Desktop\單晶片微控制器(一)\0508\H5-6EXT.c" 1
  73  0003              	NOP
  73  0003              	ENDIF
  73  0003              ;# 73 "C:\Users\YVTC\Desktop\單晶片微控制器(一)\0508\H5-6EXT.c" 1
  73  0003              	IF (20000==9)  AND ( __PBP__ > 2 )
  73  0003              ;# 73 "C:\Users\YVTC\Desktop\單晶片微控制器(一)\0508\H5-6EXT.c" 1
  73  0003              	NOP
  73  0003              	ENDIF
  73  0003              ;# 73 "C:\Users\YVTC\Desktop\單晶片微控制器(一)\0508\H5-6EXT.c" 1
  73  0003              	IF (20000< ( 8 + __PBP__ * 2)) AND (20000>( 3 + __PBP__ * 2))
  73  0003              ;# 73 "C:\Users\YVTC\Desktop\單晶片微控制器(一)\0508\H5-6EXT.c" 1
  73  0003              	fcall __DELAY3 + ( 7 + __PBP__ * 2) -20000
  73  0003              	ENDIF
  73  0003              ;# 73 "C:\Users\YVTC\Desktop\單晶片微控制器(一)\0508\H5-6EXT.c" 1
  73  0003              	IF (20000< ( 0404h + __PBP__ * 2)) AND (20000>( 7 + __PBP__ * 2))
  73  0003              ;# 73 "C:\Users\YVTC\Desktop\單晶片微控制器(一)\0508\H5-6EXT.c" 1
  73  0003              	MOV A,(20000-( 4 + __PBP__ * 2))/4
  73  0003              ;# 73 "C:\Users\YVTC\Desktop\單晶片微控制器(一)\0508\H5-6EXT.c" 1
  73  0003              	fcall __DELAYX3 + 3 -((20000-( 4 + __PBP__ * 2)) MOD 4) 
  73  0003              	ENDIF
  73  0003              ;# 73 "C:\Users\YVTC\Desktop\單晶片微控制器(一)\0508\H5-6EXT.c" 1
  73  0003              	IF (20000< ( 040bh + __PBP__ * 2)) AND (20000> ( 0403h + __PBP__ * 2))
  73  0003              ;# 73 "C:\Users\YVTC\Desktop\單晶片微控制器(一)\0508\H5-6EXT.c" 1
  73  0003              	MOV A,0 
  73  0003              ;# 73 "C:\Users\YVTC\Desktop\單晶片微控制器(一)\0508\H5-6EXT.c" 1
"File: H5-6EXT.c     Assembler  Version HGASM0202      Page 7

  73  0003              	fcall __DELAYX6 + ( 040ah + __PBP__ * 2) -20000
  73  0003              	ENDIF
  73  0003              ;# 73 "C:\Users\YVTC\Desktop\單晶片微控制器(一)\0508\H5-6EXT.c" 1
  73  0003              	IF (20000 >= ( 040bh + __PBP__ * 2)) AND ((((20000-( 9 + __PBP__ * 2))%0402h)/4+1)>256)
  73  0003              ;# 73 "C:\Users\YVTC\Desktop\單晶片微控制器(一)\0508\H5-6EXT.c" 1
  73  0003              	MOV A,(20000-( 9 + __PBP__ * 2))/0402h
  73  0003              ;# 73 "C:\Users\YVTC\Desktop\單晶片微控制器(一)\0508\H5-6EXT.c" 1
  73  0003              	MOV _builtin_holtek_delay_2,A
  73  0003              ;# 73 "C:\Users\YVTC\Desktop\單晶片微控制器(一)\0508\H5-6EXT.c" 1
  73  0003              	MOV A,0
  73  0003              ;# 73 "C:\Users\YVTC\Desktop\單晶片微控制器(一)\0508\H5-6EXT.c" 1
  73  0003              	fcall __DELAYY5 +5- (((20000-( 9 + __PBP__ * 2))%0402h)%6) 
  73  0003              	ENDIF
  73  0003              ;# 73 "C:\Users\YVTC\Desktop\單晶片微控制器(一)\0508\H5-6EXT.c" 1
  73  0003              	IF (20000 >= ( 040bh + __PBP__ * 2)) AND ((((20000-( 9 + __PBP__ * 2))%0402h)/4+1)<=256)
  73  0003              ;# 73 "C:\Users\YVTC\Desktop\單晶片微控制器(一)\0508\H5-6EXT.c" 1
  73  0003  0F13        	MOV A,(20000-( 9 + __PBP__ * 2))/0402h
  73  0004              ;# 73 "C:\Users\YVTC\Desktop\單晶片微控制器(一)\0508\H5-6EXT.c" 1
  73  0004  0080     E  	MOV _builtin_holtek_delay_2,A
  73  0005              ;# 73 "C:\Users\YVTC\Desktop\單晶片微控制器(一)\0508\H5-6EXT.c" 1
  73  0005  0F7C        	MOV A,((20000-( 9 + __PBP__ * 2))%0402h)/4+1
  73  0006              ;# 73 "C:\Users\YVTC\Desktop\單晶片微控制器(一)\0508\H5-6EXT.c" 1
  73  0006              	fcall __DELAYY3 +3-(((20000-( 9 + __PBP__ * 2))%0402h)%4) 
  73  000D              	ENDIF
  73  000D  1480     E  	inc ra
  73  000E              _L7:
  73  000E  0700     E  	mov a,ra
  73  000F  0200     R  	sub a,_PAUSE_2[0]
  73  0010  390A        	snz z
  73  0011  2800     R  	jmp _L8
  73  0012  0003        	ret
  73  0013              _PAUSE endp
  73  0013              #line 73 "C:\Users\YVTC\Desktop\單晶片微控制器(一)\0508\H5-6EXT.c"
  73  0013              #pragma debug scope 1 1
  73  0013              ___wdtc equ [62]
  73  0013              public _main
  73  0013              #pragma debug scope 5 1
  10  0013              #line 10 "C:\Users\YVTC\Desktop\單晶片微控制器(一)\0508\H5-6EXT.c"
  10  0013              IFDEF WITH_DEFAULT_STARTUP
  10  0013              extern _main_initial0:near
  10  0013              extern _main_startup:near
  10  0013              ENDIF
  10  0013              
  10  0013              ROMBANK 0 @start
  10  0000              @start .section com_l 'code'
  10  0000              _main_startup1:
  10  0000              @start .section com_e 'code'
  10  0000  0F00     R  	mov a,bank _main
  10  0001  008B        	mov bp,a
  10  0002  2800     R  	jmp _main
  10  0003              
  10  0000              _main .section 'code'
  10  0000              _main proc
  10  0000  00              local _main_2 db 1 dup(?)
  11  0001              #line 11 "C:\Users\YVTC\Desktop\單晶片微控制器(一)\0508\H5-6EXT.c"
  11  0000  0FAF        	mov a,175
  11  0001  00BE        	mov [62],a
  12  0002              #line 12 "C:\Users\YVTC\Desktop\單晶片微控制器(一)\0508\H5-6EXT.c"
  12  0002              	fcall _LCMInit
  12  0009              _L17:
"File: H5-6EXT.c     Assembler  Version HGASM0202      Page 8

  14  0009              #line 14 "C:\Users\YVTC\Desktop\單晶片微控制器(一)\0508\H5-6EXT.c"
  14  0009  0F01        	mov a,1
  14  000A  0080     R  	mov _LCMWrite_2[0],a
  14  000B  0F00        	mov a,0
  14  000C              	fcall _LCMWrite
  15  0013              #line 15 "C:\Users\YVTC\Desktop\單晶片微控制器(一)\0508\H5-6EXT.c"
  15  0013  0F06        	mov a,6
  15  0014  0080     R  	mov _LCMWrite_2[0],a
  15  0015  0F00        	mov a,0
  15  0016              	fcall _LCMWrite
  15  001D  0F14        	mov a,20
  15  001E  0080     R  	mov _main_2[0],a
  15  001F              _L11:
  17  001F              #line 17 "C:\Users\YVTC\Desktop\單晶片微控制器(一)\0508\H5-6EXT.c"
  17  001F  0F31        	mov a,49
  17  0020  0080     R  	mov _LCMWrite_2[0],a
  17  0021  0F01        	mov a,1
  17  0022              	fcall _LCMWrite
  17  0029  0F0A        	mov a,10
  17  002A              	fcall _PAUSE
  17  0031  1780     R  	sdz _main_2[0]
  17  0032  2800     R  	jmp _L11
  20  0033              #line 20 "C:\Users\YVTC\Desktop\單晶片微控制器(一)\0508\H5-6EXT.c"
  20  0033  0FDA        	mov a,218
  20  0034  0080     R  	mov _LCMWrite_2[0],a
  20  0035  0F00        	mov a,0
  20  0036              	fcall _LCMWrite
  21  003D              #line 21 "C:\Users\YVTC\Desktop\單晶片微控制器(一)\0508\H5-6EXT.c"
  21  003D  0F48        	mov a,72
  21  003E  0080     R  	mov _LCMWrite_2[0],a
  21  003F  0F01        	mov a,1
  21  0040              	fcall _LCMWrite
  22  0047              #line 22 "C:\Users\YVTC\Desktop\單晶片微控制器(一)\0508\H5-6EXT.c"
  22  0047  0F65        	mov a,101
  22  0048  0080     R  	mov _LCMWrite_2[0],a
  22  0049  0F01        	mov a,1
  22  004A              	fcall _LCMWrite
  23  0051              #line 23 "C:\Users\YVTC\Desktop\單晶片微控制器(一)\0508\H5-6EXT.c"
  23  0051  0F6C        	mov a,108
  23  0052  0080     R  	mov _LCMWrite_2[0],a
  23  0053  0F01        	mov a,1
  23  0054              	fcall _LCMWrite
  24  005B              #line 24 "C:\Users\YVTC\Desktop\單晶片微控制器(一)\0508\H5-6EXT.c"
  24  005B  0F6C        	mov a,108
  24  005C  0080     R  	mov _LCMWrite_2[0],a
  24  005D  0F01        	mov a,1
  24  005E              	fcall _LCMWrite
  25  0065              #line 25 "C:\Users\YVTC\Desktop\單晶片微控制器(一)\0508\H5-6EXT.c"
  25  0065  0F6F        	mov a,111
  25  0066  0080     R  	mov _LCMWrite_2[0],a
  25  0067  0F01        	mov a,1
  25  0068              	fcall _LCMWrite
  26  006F              #line 26 "C:\Users\YVTC\Desktop\單晶片微控制器(一)\0508\H5-6EXT.c"
  26  006F  0F21        	mov a,33
  26  0070  0080     R  	mov _LCMWrite_2[0],a
  26  0071  0F01        	mov a,1
  26  0072              	fcall _LCMWrite
  28  0079              #line 28 "C:\Users\YVTC\Desktop\單晶片微控制器(一)\0508\H5-6EXT.c"
  28  0079  0FD3        	mov a,211
  28  007A  0080     R  	mov _LCMWrite_2[0],a
"File: H5-6EXT.c     Assembler  Version HGASM0202      Page 9

  28  007B  0F00        	mov a,0
  28  007C              	fcall _LCMWrite
  29  0083              #line 29 "C:\Users\YVTC\Desktop\單晶片微控制器(一)\0508\H5-6EXT.c"
  29  0083  0F04        	mov a,4
  29  0084  0080     R  	mov _LCMWrite_2[0],a
  29  0085  0F00        	mov a,0
  29  0086              	fcall _LCMWrite
  29  008D  0F14        	mov a,20
  29  008E  0080     R  	mov _main_2[0],a
  29  008F              _L13:
  31  008F              #line 31 "C:\Users\YVTC\Desktop\單晶片微控制器(一)\0508\H5-6EXT.c"
  31  008F  0F32        	mov a,50
  31  0090  0080     R  	mov _LCMWrite_2[0],a
  31  0091  0F01        	mov a,1
  31  0092              	fcall _LCMWrite
  31  0099  0F0A        	mov a,10
  31  009A              	fcall _PAUSE
  31  00A1  1780     R  	sdz _main_2[0]
  31  00A2  2800     R  	jmp _L13
  30  00A3              #line 30 "C:\Users\YVTC\Desktop\單晶片微控制器(一)\0508\H5-6EXT.c"
  30  00A3  0F14        	mov a,20
  30  00A4  0080     R  	mov _main_2[0],a
  30  00A5              _L15:
  34  00A5              #line 34 "C:\Users\YVTC\Desktop\單晶片微控制器(一)\0508\H5-6EXT.c"
  34  00A5  0F18        	mov a,24
  34  00A6  0080     R  	mov _LCMWrite_2[0],a
  34  00A7  0F00        	mov a,0
  34  00A8              	fcall _LCMWrite
  35  00AF              #line 35 "C:\Users\YVTC\Desktop\單晶片微控制器(一)\0508\H5-6EXT.c"
  35  00AF  0F0A        	mov a,10
  35  00B0              	fcall _PAUSE
  35  00B7  1780     R  	sdz _main_2[0]
  35  00B8  2800     R  	jmp _L15
  37  00B9              #line 37 "C:\Users\YVTC\Desktop\單晶片微控制器(一)\0508\H5-6EXT.c"
  37  00B9  0F64        	mov a,100
  37  00BA              	fcall _PAUSE
  37  00C1  0F14        	mov a,20
  37  00C2  0080     R  	mov _main_2[0],a
  37  00C3              _L18:
  39  00C3              #line 39 "C:\Users\YVTC\Desktop\單晶片微控制器(一)\0508\H5-6EXT.c"
  39  00C3  0F1C        	mov a,28
  39  00C4  0080     R  	mov _LCMWrite_2[0],a
  39  00C5  0F00        	mov a,0
  39  00C6              	fcall _LCMWrite
  40  00CD              #line 40 "C:\Users\YVTC\Desktop\單晶片微控制器(一)\0508\H5-6EXT.c"
  40  00CD  0F0A        	mov a,10
  40  00CE              	fcall _PAUSE
  40  00D5  1780     R  	sdz _main_2[0]
  40  00D6  2800     R  	jmp _L18
  40  00D7  2800     R  	jmp _L17
  40  00D8  2800     R  	jmp $
  40  00D9              _main endp
  40  00D9              
  40  00D9              @dummy endp
  40  00D9              
  40  00D9              #line 40 "C:\Users\YVTC\Desktop\單晶片微控制器(一)\0508\H5-6EXT.c"
  40  00D9              #pragma debug scope 1 1
  40  00D9              #pragma debug struct_end
  40  00D9              #pragma debug struct_end
  40  00D9              #pragma debug union_end
"File: H5-6EXT.c     Assembler  Version HGASM0202      Page 10

  40  00D9              #pragma debug union_end
  40  00D9              #pragma debug variable 43 1 ___pg "__pg" 1
  40  00D9              #pragma debug struct_end
  40  00D9              #pragma debug struct_end
  40  00D9              #pragma debug union_end
  40  00D9              #pragma debug union_end
  40  00D9              #pragma debug variable 45 1 ___pgc "__pgc" 1
  40  00D9              #pragma debug struct_end
  40  00D9              #pragma debug struct_end
  40  00D9              #pragma debug union_end
  40  00D9              #pragma debug union_end
  40  00D9              #pragma debug variable 47 1 ___ph "__ph" 1
  40  00D9              #pragma debug struct_end
  40  00D9              #pragma debug struct_end
  40  00D9              #pragma debug union_end
  40  00D9              #pragma debug union_end
  40  00D9              #pragma debug variable 49 1 ___phc "__phc" 1
  40  00D9              #pragma debug struct_end
  40  00D9              #pragma debug struct_end
  40  00D9              #pragma debug union_end
  40  00D9              #pragma debug union_end
  40  00D9              #pragma debug variable 51 1 ___wdtc "__wdtc" 1
  10  00D9              #line 10 "C:\Users\YVTC\Desktop\單晶片微控制器(一)\0508\H5-6EXT.c"
  10  0000              @code .section at 0 'code'
  10  0000  1F0B        	clr bp
  10  0001  2800     R  	jmp _main_startup1
  10  0002              
  10  0002              
  10  0002              ; 
  10  0002              ; Generated by holtek-gcc v3.18, Tue May 15 09:12:53 2018
  10  0002              ; Rebuild 126
  10  0002              ; end of file


        0 Errors, 0