"File: HT24.c        Assembler  Version HGASM0202      Page 1


   1  0000              ; Generated by holtek-gcc v3.18, Tue May 22 11:33:54 2018
   2  0000              ; 
   3  0000              ; Configuration:
   4  0000              ;       with long instruction
   5  0000              ;       Multi-ROM, Multi-RAM
   6  0000              ;       bits_per_rom_unit:16
   7  0000              ;       with mp1
   8  0000              ;       with tbhp, address(0x9)
   9  0000              ;          Use tabrd-const
  10  0000              ;       
  11  0000              ; SFR address of long-instruction arch:
  12  0000              ;    mp0 = -1,1,0
  13  0000              ;    mp1 = 4,3,2
  14  0000              ;    mp2 = 14,13,12
  15  0000              ;    tbp = 9,7,8
  16  0000              ;    acc = 5
  17  0000              ;    pcl = 6
  18  0000              ;    status = 10
  19  0000              ;    bp = 11
  20  0000              ;    intc = 48
  21  0000              ;       
  22  0000              ;       
  23  0000              ; use 'tabrdc' instead of 'tabrd'
  24  0000              ;       
  25  0000              
  26  0000              #pragma translator "holtek-gcc 4.6.4" "3.18" "build 20130711"
  27  0000              ; Rebuild 126
  28  0000              
  29  0000              ir equ [2]
  30  0000              mp equ [3]
  31  0000              sbp equ [4]
  32  0000              acc equ [5]
  33  0000              bp equ [11]
  34  0000              tblp equ [7]
  35  0000              tbhp equ [9]
  36  0000              status equ [10]
  37  0000              c equ [10].0
  38  0000              ac equ [10].1
  39  0000              z equ [10].2
  40  0000              ov equ [10].3
  41  0000              cz equ [10].6
  42  0000              sc equ [10].7
  43  0000              intc equ [48]
  44  0000              
  45  0000              extern ra:byte
  46  0000              extern rb:byte
  47  0000              extern rc:byte
  48  0000              extern rd:byte
  49  0000              extern re:byte
  50  0000              extern rf:byte
  51  0000              extern rg:byte
  52  0000              extern rh:byte
  53  0000              extern _Crom2Prom:near
  54  0000              extern _Crom2PromNext:near
  55  0000              
  56  0000              RAMBANK 0 @BITDATASEC, @BITDATASEC1
  57  0000              @HCCINIT	.section 'data'
  58  0000              @HCCINIT0	.section 'data'
  59  0000              @BITDATASEC	 .section 'data'
"File: HT24.ASM      Assembler  Version HGASM0202      Page 2

  60  0000              @BITDATASEC1	 .section 'data'
  61  0000              
  62  0000              #pragma debug scope 1 1
  63  0000              	extern __DELAY3:near
  64  0000              	extern __DELAYX3:near
  65  0000              	extern __DELAYX6:near
  66  0000              	extern __DELAYY5:near
  67  0000              	extern __DELAYY3:near
  68  0000              	extern _builtin_holtek_delay_2:byte
  69  0000              ___pa equ [18]
  70  0000              ___pac equ [19]
  71  0000              public _I2C_START
  72  0000              #pragma debug scope 2 1

  88  0000              #line 88 "C:\Users\YVTC\Desktop\單晶片微控制器(一)\0522\HT24.c"
  88  0000              _I2C_START .section 'code'
  88  0000              _I2C_START proc
  88  0000  3712        	clr [18].6
  88  0001  3392        	set [18].7
  89  0002              #line 89 "C:\Users\YVTC\Desktop\單晶片微控制器(一)\0522\HT24.c"
  89  0002  3713        	clr [19].6
  89  0003  3793        	clr [19].7
  90  0004              #line 90 "C:\Users\YVTC\Desktop\單晶片微控制器(一)\0522\HT24.c"
  90  0004  3312        	set [18].6
  91  0005              #line 91 "C:\Users\YVTC\Desktop\單晶片微控制器(一)\0522\HT24.c"
  91  0005              ;# 91 "C:\Users\YVTC\Desktop\單晶片微控制器(一)\0522\HT24.c" 1
  91  0005              	IF 1>263690
  91  0005              ;# 91 "C:\Users\YVTC\Desktop\單晶片微控制器(一)\0522\HT24.c" 1
  91  0005              	ERRMESSAGE 'the value 1of the argument exceeds the maxinum 263690'
  91  0005              	ENDIF
  91  0005              ;# 91 "C:\Users\YVTC\Desktop\單晶片微控制器(一)\0522\HT24.c" 1
  91  0005              	IF 1<0
  91  0005              ;# 91 "C:\Users\YVTC\Desktop\單晶片微控制器(一)\0522\HT24.c" 1
  91  0005              	ERRMESSAGE 'the value 1 of the argument exceeds the mininum 0'
  91  0005              	ENDIF
  91  0005              ;# 91 "C:\Users\YVTC\Desktop\單晶片微控制器(一)\0522\HT24.c" 1
  91  0005              	IF 1==0
  91  0005              ;# 91 "C:\Users\YVTC\Desktop\單晶片微控制器(一)\0522\HT24.c" 1
  91  0005              	JMP $
  91  0005              	ENDIF
  91  0005              ;# 91 "C:\Users\YVTC\Desktop\單晶片微控制器(一)\0522\HT24.c" 1
  91  0005              	IF (1>=1) AND (1<( 4 + __PBP__ * 2))
  91  0005              ;# 91 "C:\Users\YVTC\Desktop\單晶片微控制器(一)\0522\HT24.c" 1
  91  0005  0000        	NOP
  91  0006              	ENDIF
  91  0006              ;# 91 "C:\Users\YVTC\Desktop\單晶片微控制器(一)\0522\HT24.c" 1
  91  0006              	IF (1>=2) AND (1<( 4 + __PBP__ * 2))
  91  0006              ;# 91 "C:\Users\YVTC\Desktop\單晶片微控制器(一)\0522\HT24.c" 1
  91  0006              	NOP
  91  0006              	ENDIF
  91  0006              ;# 91 "C:\Users\YVTC\Desktop\單晶片微控制器(一)\0522\HT24.c" 1
  91  0006              	IF (1>=3) AND (1<( 4 + __PBP__ * 2))
  91  0006              ;# 91 "C:\Users\YVTC\Desktop\單晶片微控制器(一)\0522\HT24.c" 1
  91  0006              	NOP
  91  0006              	ENDIF
  91  0006              ;# 91 "C:\Users\YVTC\Desktop\單晶片微控制器(一)\0522\HT24.c" 1
  91  0006              	IF (1>=4) AND (1<( 4 + __PBP__ * 2)) AND ( __PBP__ > 0 )
  91  0006              ;# 91 "C:\Users\YVTC\Desktop\單晶片微控制器(一)\0522\HT24.c" 1
  91  0006              	NOP
  91  0006              	ENDIF
"File: HT24.c        Assembler  Version HGASM0202      Page 3

  91  0006              ;# 91 "C:\Users\YVTC\Desktop\單晶片微控制器(一)\0522\HT24.c" 1
  91  0006              	IF (1>=5) AND (1<( 4 + __PBP__ * 2)) AND ( __PBP__ > 0 )
  91  0006              ;# 91 "C:\Users\YVTC\Desktop\單晶片微控制器(一)\0522\HT24.c" 1
  91  0006              	NOP
  91  0006              	ENDIF
  91  0006              ;# 91 "C:\Users\YVTC\Desktop\單晶片微控制器(一)\0522\HT24.c" 1
  91  0006              	IF (1>=6) AND (1<( 4 + __PBP__ * 2))  AND ( __PBP__ > 1 )
  91  0006              ;# 91 "C:\Users\YVTC\Desktop\單晶片微控制器(一)\0522\HT24.c" 1
  91  0006              	NOP
  91  0006              	ENDIF
  91  0006              ;# 91 "C:\Users\YVTC\Desktop\單晶片微控制器(一)\0522\HT24.c" 1
  91  0006              	IF (1>=7) AND (1<( 4 + __PBP__ * 2))  AND ( __PBP__ > 1 )
  91  0006              ;# 91 "C:\Users\YVTC\Desktop\單晶片微控制器(一)\0522\HT24.c" 1
  91  0006              	NOP
  91  0006              	ENDIF
  91  0006              ;# 91 "C:\Users\YVTC\Desktop\單晶片微控制器(一)\0522\HT24.c" 1
  91  0006              	IF (1>=8) AND (1<( 4 + __PBP__ * 2))  AND ( __PBP__ > 2 )
  91  0006              ;# 91 "C:\Users\YVTC\Desktop\單晶片微控制器(一)\0522\HT24.c" 1
  91  0006              	NOP
  91  0006              	ENDIF
  91  0006              ;# 91 "C:\Users\YVTC\Desktop\單晶片微控制器(一)\0522\HT24.c" 1
  91  0006              	IF (1==9)  AND ( __PBP__ > 2 )
  91  0006              ;# 91 "C:\Users\YVTC\Desktop\單晶片微控制器(一)\0522\HT24.c" 1
  91  0006              	NOP
  91  0006              	ENDIF
  91  0006              ;# 91 "C:\Users\YVTC\Desktop\單晶片微控制器(一)\0522\HT24.c" 1
  91  0006              	IF (1< ( 8 + __PBP__ * 2)) AND (1>( 3 + __PBP__ * 2))
  91  0006              ;# 91 "C:\Users\YVTC\Desktop\單晶片微控制器(一)\0522\HT24.c" 1
  91  0006              	fcall __DELAY3 + ( 7 + __PBP__ * 2) -1
  91  0006              	ENDIF
  91  0006              ;# 91 "C:\Users\YVTC\Desktop\單晶片微控制器(一)\0522\HT24.c" 1
  91  0006              	IF (1< ( 0404h + __PBP__ * 2)) AND (1>( 7 + __PBP__ * 2))
  91  0006              ;# 91 "C:\Users\YVTC\Desktop\單晶片微控制器(一)\0522\HT24.c" 1
  91  0006              	MOV A,(1-( 4 + __PBP__ * 2))/4
  91  0006              ;# 91 "C:\Users\YVTC\Desktop\單晶片微控制器(一)\0522\HT24.c" 1
  91  0006              	fcall __DELAYX3 + 3 -((1-( 4 + __PBP__ * 2)) MOD 4) 
  91  0006              	ENDIF
  91  0006              ;# 91 "C:\Users\YVTC\Desktop\單晶片微控制器(一)\0522\HT24.c" 1
  91  0006              	IF (1< ( 040bh + __PBP__ * 2)) AND (1> ( 0403h + __PBP__ * 2))
  91  0006              ;# 91 "C:\Users\YVTC\Desktop\單晶片微控制器(一)\0522\HT24.c" 1
  91  0006              	MOV A,0 
  91  0006              ;# 91 "C:\Users\YVTC\Desktop\單晶片微控制器(一)\0522\HT24.c" 1
  91  0006              	fcall __DELAYX6 + ( 040ah + __PBP__ * 2) -1
  91  0006              	ENDIF
  91  0006              ;# 91 "C:\Users\YVTC\Desktop\單晶片微控制器(一)\0522\HT24.c" 1
  91  0006              	IF (1 >= ( 040bh + __PBP__ * 2)) AND ((((1-( 9 + __PBP__ * 2))%0402h)/4+1)>256)
  91  0006              ;# 91 "C:\Users\YVTC\Desktop\單晶片微控制器(一)\0522\HT24.c" 1
  91  0006              	MOV A,(1-( 9 + __PBP__ * 2))/0402h
  91  0006              ;# 91 "C:\Users\YVTC\Desktop\單晶片微控制器(一)\0522\HT24.c" 1
  91  0006              	MOV _builtin_holtek_delay_2,A
  91  0006              ;# 91 "C:\Users\YVTC\Desktop\單晶片微控制器(一)\0522\HT24.c" 1
  91  0006              	MOV A,0
  91  0006              ;# 91 "C:\Users\YVTC\Desktop\單晶片微控制器(一)\0522\HT24.c" 1
  91  0006              	fcall __DELAYY5 +5- (((1-( 9 + __PBP__ * 2))%0402h)%6) 
  91  0006              	ENDIF
  91  0006              ;# 91 "C:\Users\YVTC\Desktop\單晶片微控制器(一)\0522\HT24.c" 1
  91  0006              	IF (1 >= ( 040bh + __PBP__ * 2)) AND ((((1-( 9 + __PBP__ * 2))%0402h)/4+1)<=256)
  91  0006              ;# 91 "C:\Users\YVTC\Desktop\單晶片微控制器(一)\0522\HT24.c" 1
  91  0006              	MOV A,(1-( 9 + __PBP__ * 2))/0402h
  91  0006              ;# 91 "C:\Users\YVTC\Desktop\單晶片微控制器(一)\0522\HT24.c" 1
"File: HT24.c        Assembler  Version HGASM0202      Page 4

  91  0006              	MOV _builtin_holtek_delay_2,A
  91  0006              ;# 91 "C:\Users\YVTC\Desktop\單晶片微控制器(一)\0522\HT24.c" 1
  91  0006              	MOV A,((1-( 9 + __PBP__ * 2))%0402h)/4+1
  91  0006              ;# 91 "C:\Users\YVTC\Desktop\單晶片微控制器(一)\0522\HT24.c" 1
  91  0006              	fcall __DELAYY3 +3-(((1-( 9 + __PBP__ * 2))%0402h)%4) 
  91  0006              	ENDIF
  92  0006              #line 92 "C:\Users\YVTC\Desktop\單晶片微控制器(一)\0522\HT24.c"
  92  0006  3792        	clr [18].7
  93  0007              #line 93 "C:\Users\YVTC\Desktop\單晶片微控制器(一)\0522\HT24.c"
  93  0007              ;# 93 "C:\Users\YVTC\Desktop\單晶片微控制器(一)\0522\HT24.c" 1
  93  0007              	IF 1>263690
  93  0007              ;# 93 "C:\Users\YVTC\Desktop\單晶片微控制器(一)\0522\HT24.c" 1
  93  0007              	ERRMESSAGE 'the value 1of the argument exceeds the maxinum 263690'
  93  0007              	ENDIF
  93  0007              ;# 93 "C:\Users\YVTC\Desktop\單晶片微控制器(一)\0522\HT24.c" 1
  93  0007              	IF 1<0
  93  0007              ;# 93 "C:\Users\YVTC\Desktop\單晶片微控制器(一)\0522\HT24.c" 1
  93  0007              	ERRMESSAGE 'the value 1 of the argument exceeds the mininum 0'
  93  0007              	ENDIF
  93  0007              ;# 93 "C:\Users\YVTC\Desktop\單晶片微控制器(一)\0522\HT24.c" 1
  93  0007              	IF 1==0
  93  0007              ;# 93 "C:\Users\YVTC\Desktop\單晶片微控制器(一)\0522\HT24.c" 1
  93  0007              	JMP $
  93  0007              	ENDIF
  93  0007              ;# 93 "C:\Users\YVTC\Desktop\單晶片微控制器(一)\0522\HT24.c" 1
  93  0007              	IF (1>=1) AND (1<( 4 + __PBP__ * 2))
  93  0007              ;# 93 "C:\Users\YVTC\Desktop\單晶片微控制器(一)\0522\HT24.c" 1
  93  0007  0000        	NOP
  93  0008              	ENDIF
  93  0008              ;# 93 "C:\Users\YVTC\Desktop\單晶片微控制器(一)\0522\HT24.c" 1
  93  0008              	IF (1>=2) AND (1<( 4 + __PBP__ * 2))
  93  0008              ;# 93 "C:\Users\YVTC\Desktop\單晶片微控制器(一)\0522\HT24.c" 1
  93  0008              	NOP
  93  0008              	ENDIF
  93  0008              ;# 93 "C:\Users\YVTC\Desktop\單晶片微控制器(一)\0522\HT24.c" 1
  93  0008              	IF (1>=3) AND (1<( 4 + __PBP__ * 2))
  93  0008              ;# 93 "C:\Users\YVTC\Desktop\單晶片微控制器(一)\0522\HT24.c" 1
  93  0008              	NOP
  93  0008              	ENDIF
  93  0008              ;# 93 "C:\Users\YVTC\Desktop\單晶片微控制器(一)\0522\HT24.c" 1
  93  0008              	IF (1>=4) AND (1<( 4 + __PBP__ * 2)) AND ( __PBP__ > 0 )
  93  0008              ;# 93 "C:\Users\YVTC\Desktop\單晶片微控制器(一)\0522\HT24.c" 1
  93  0008              	NOP
  93  0008              	ENDIF
  93  0008              ;# 93 "C:\Users\YVTC\Desktop\單晶片微控制器(一)\0522\HT24.c" 1
  93  0008              	IF (1>=5) AND (1<( 4 + __PBP__ * 2)) AND ( __PBP__ > 0 )
  93  0008              ;# 93 "C:\Users\YVTC\Desktop\單晶片微控制器(一)\0522\HT24.c" 1
  93  0008              	NOP
  93  0008              	ENDIF
  93  0008              ;# 93 "C:\Users\YVTC\Desktop\單晶片微控制器(一)\0522\HT24.c" 1
  93  0008              	IF (1>=6) AND (1<( 4 + __PBP__ * 2))  AND ( __PBP__ > 1 )
  93  0008              ;# 93 "C:\Users\YVTC\Desktop\單晶片微控制器(一)\0522\HT24.c" 1
  93  0008              	NOP
  93  0008              	ENDIF
  93  0008              ;# 93 "C:\Users\YVTC\Desktop\單晶片微控制器(一)\0522\HT24.c" 1
  93  0008              	IF (1>=7) AND (1<( 4 + __PBP__ * 2))  AND ( __PBP__ > 1 )
  93  0008              ;# 93 "C:\Users\YVTC\Desktop\單晶片微控制器(一)\0522\HT24.c" 1
  93  0008              	NOP
  93  0008              	ENDIF
  93  0008              ;# 93 "C:\Users\YVTC\Desktop\單晶片微控制器(一)\0522\HT24.c" 1
"File: HT24.c        Assembler  Version HGASM0202      Page 5

  93  0008              	IF (1>=8) AND (1<( 4 + __PBP__ * 2))  AND ( __PBP__ > 2 )
  93  0008              ;# 93 "C:\Users\YVTC\Desktop\單晶片微控制器(一)\0522\HT24.c" 1
  93  0008              	NOP
  93  0008              	ENDIF
  93  0008              ;# 93 "C:\Users\YVTC\Desktop\單晶片微控制器(一)\0522\HT24.c" 1
  93  0008              	IF (1==9)  AND ( __PBP__ > 2 )
  93  0008              ;# 93 "C:\Users\YVTC\Desktop\單晶片微控制器(一)\0522\HT24.c" 1
  93  0008              	NOP
  93  0008              	ENDIF
  93  0008              ;# 93 "C:\Users\YVTC\Desktop\單晶片微控制器(一)\0522\HT24.c" 1
  93  0008              	IF (1< ( 8 + __PBP__ * 2)) AND (1>( 3 + __PBP__ * 2))
  93  0008              ;# 93 "C:\Users\YVTC\Desktop\單晶片微控制器(一)\0522\HT24.c" 1
  93  0008              	fcall __DELAY3 + ( 7 + __PBP__ * 2) -1
  93  0008              	ENDIF
  93  0008              ;# 93 "C:\Users\YVTC\Desktop\單晶片微控制器(一)\0522\HT24.c" 1
  93  0008              	IF (1< ( 0404h + __PBP__ * 2)) AND (1>( 7 + __PBP__ * 2))
  93  0008              ;# 93 "C:\Users\YVTC\Desktop\單晶片微控制器(一)\0522\HT24.c" 1
  93  0008              	MOV A,(1-( 4 + __PBP__ * 2))/4
  93  0008              ;# 93 "C:\Users\YVTC\Desktop\單晶片微控制器(一)\0522\HT24.c" 1
  93  0008              	fcall __DELAYX3 + 3 -((1-( 4 + __PBP__ * 2)) MOD 4) 
  93  0008              	ENDIF
  93  0008              ;# 93 "C:\Users\YVTC\Desktop\單晶片微控制器(一)\0522\HT24.c" 1
  93  0008              	IF (1< ( 040bh + __PBP__ * 2)) AND (1> ( 0403h + __PBP__ * 2))
  93  0008              ;# 93 "C:\Users\YVTC\Desktop\單晶片微控制器(一)\0522\HT24.c" 1
  93  0008              	MOV A,0 
  93  0008              ;# 93 "C:\Users\YVTC\Desktop\單晶片微控制器(一)\0522\HT24.c" 1
  93  0008              	fcall __DELAYX6 + ( 040ah + __PBP__ * 2) -1
  93  0008              	ENDIF
  93  0008              ;# 93 "C:\Users\YVTC\Desktop\單晶片微控制器(一)\0522\HT24.c" 1
  93  0008              	IF (1 >= ( 040bh + __PBP__ * 2)) AND ((((1-( 9 + __PBP__ * 2))%0402h)/4+1)>256)
  93  0008              ;# 93 "C:\Users\YVTC\Desktop\單晶片微控制器(一)\0522\HT24.c" 1
  93  0008              	MOV A,(1-( 9 + __PBP__ * 2))/0402h
  93  0008              ;# 93 "C:\Users\YVTC\Desktop\單晶片微控制器(一)\0522\HT24.c" 1
  93  0008              	MOV _builtin_holtek_delay_2,A
  93  0008              ;# 93 "C:\Users\YVTC\Desktop\單晶片微控制器(一)\0522\HT24.c" 1
  93  0008              	MOV A,0
  93  0008              ;# 93 "C:\Users\YVTC\Desktop\單晶片微控制器(一)\0522\HT24.c" 1
  93  0008              	fcall __DELAYY5 +5- (((1-( 9 + __PBP__ * 2))%0402h)%6) 
  93  0008              	ENDIF
  93  0008              ;# 93 "C:\Users\YVTC\Desktop\單晶片微控制器(一)\0522\HT24.c" 1
  93  0008              	IF (1 >= ( 040bh + __PBP__ * 2)) AND ((((1-( 9 + __PBP__ * 2))%0402h)/4+1)<=256)
  93  0008              ;# 93 "C:\Users\YVTC\Desktop\單晶片微控制器(一)\0522\HT24.c" 1
  93  0008              	MOV A,(1-( 9 + __PBP__ * 2))/0402h
  93  0008              ;# 93 "C:\Users\YVTC\Desktop\單晶片微控制器(一)\0522\HT24.c" 1
  93  0008              	MOV _builtin_holtek_delay_2,A
  93  0008              ;# 93 "C:\Users\YVTC\Desktop\單晶片微控制器(一)\0522\HT24.c" 1
  93  0008              	MOV A,((1-( 9 + __PBP__ * 2))%0402h)/4+1
  93  0008              ;# 93 "C:\Users\YVTC\Desktop\單晶片微控制器(一)\0522\HT24.c" 1
  93  0008              	fcall __DELAYY3 +3-(((1-( 9 + __PBP__ * 2))%0402h)%4) 
  93  0008              	ENDIF
  94  0008              #line 94 "C:\Users\YVTC\Desktop\單晶片微控制器(一)\0522\HT24.c"
  94  0008  3712        	clr [18].6
  94  0009  0003        	ret
  94  000A              _I2C_START endp
  94  000A              #line 94 "C:\Users\YVTC\Desktop\單晶片微控制器(一)\0522\HT24.c"
  94  000A              #pragma debug scope 1 1
  94  000A              public _I2C_STOP
  94  000A              #pragma debug scope 3 1
  97  000A              #line 97 "C:\Users\YVTC\Desktop\單晶片微控制器(一)\0522\HT24.c"
  97  0000              _I2C_STOP .section 'code'
"File: HT24.c        Assembler  Version HGASM0202      Page 6

  97  0000              _I2C_STOP proc
  97  0000  3792        	clr [18].7
  97  0001  3793        	clr [19].7
  98  0002              #line 98 "C:\Users\YVTC\Desktop\單晶片微控制器(一)\0522\HT24.c"
  98  0002  3312        	set [18].6
  99  0003              #line 99 "C:\Users\YVTC\Desktop\單晶片微控制器(一)\0522\HT24.c"
  99  0003              ;# 99 "C:\Users\YVTC\Desktop\單晶片微控制器(一)\0522\HT24.c" 1
  99  0003              	IF 1>263690
  99  0003              ;# 99 "C:\Users\YVTC\Desktop\單晶片微控制器(一)\0522\HT24.c" 1
  99  0003              	ERRMESSAGE 'the value 1of the argument exceeds the maxinum 263690'
  99  0003              	ENDIF
  99  0003              ;# 99 "C:\Users\YVTC\Desktop\單晶片微控制器(一)\0522\HT24.c" 1
  99  0003              	IF 1<0
  99  0003              ;# 99 "C:\Users\YVTC\Desktop\單晶片微控制器(一)\0522\HT24.c" 1
  99  0003              	ERRMESSAGE 'the value 1 of the argument exceeds the mininum 0'
  99  0003              	ENDIF
  99  0003              ;# 99 "C:\Users\YVTC\Desktop\單晶片微控制器(一)\0522\HT24.c" 1
  99  0003              	IF 1==0
  99  0003              ;# 99 "C:\Users\YVTC\Desktop\單晶片微控制器(一)\0522\HT24.c" 1
  99  0003              	JMP $
  99  0003              	ENDIF
  99  0003              ;# 99 "C:\Users\YVTC\Desktop\單晶片微控制器(一)\0522\HT24.c" 1
  99  0003              	IF (1>=1) AND (1<( 4 + __PBP__ * 2))
  99  0003              ;# 99 "C:\Users\YVTC\Desktop\單晶片微控制器(一)\0522\HT24.c" 1
  99  0003  0000        	NOP
  99  0004              	ENDIF
  99  0004              ;# 99 "C:\Users\YVTC\Desktop\單晶片微控制器(一)\0522\HT24.c" 1
  99  0004              	IF (1>=2) AND (1<( 4 + __PBP__ * 2))
  99  0004              ;# 99 "C:\Users\YVTC\Desktop\單晶片微控制器(一)\0522\HT24.c" 1
  99  0004              	NOP
  99  0004              	ENDIF
  99  0004              ;# 99 "C:\Users\YVTC\Desktop\單晶片微控制器(一)\0522\HT24.c" 1
  99  0004              	IF (1>=3) AND (1<( 4 + __PBP__ * 2))
  99  0004              ;# 99 "C:\Users\YVTC\Desktop\單晶片微控制器(一)\0522\HT24.c" 1
  99  0004              	NOP
  99  0004              	ENDIF
  99  0004              ;# 99 "C:\Users\YVTC\Desktop\單晶片微控制器(一)\0522\HT24.c" 1
  99  0004              	IF (1>=4) AND (1<( 4 + __PBP__ * 2)) AND ( __PBP__ > 0 )
  99  0004              ;# 99 "C:\Users\YVTC\Desktop\單晶片微控制器(一)\0522\HT24.c" 1
  99  0004              	NOP
  99  0004              	ENDIF
  99  0004              ;# 99 "C:\Users\YVTC\Desktop\單晶片微控制器(一)\0522\HT24.c" 1
  99  0004              	IF (1>=5) AND (1<( 4 + __PBP__ * 2)) AND ( __PBP__ > 0 )
  99  0004              ;# 99 "C:\Users\YVTC\Desktop\單晶片微控制器(一)\0522\HT24.c" 1
  99  0004              	NOP
  99  0004              	ENDIF
  99  0004              ;# 99 "C:\Users\YVTC\Desktop\單晶片微控制器(一)\0522\HT24.c" 1
  99  0004              	IF (1>=6) AND (1<( 4 + __PBP__ * 2))  AND ( __PBP__ > 1 )
  99  0004              ;# 99 "C:\Users\YVTC\Desktop\單晶片微控制器(一)\0522\HT24.c" 1
  99  0004              	NOP
  99  0004              	ENDIF
  99  0004              ;# 99 "C:\Users\YVTC\Desktop\單晶片微控制器(一)\0522\HT24.c" 1
  99  0004              	IF (1>=7) AND (1<( 4 + __PBP__ * 2))  AND ( __PBP__ > 1 )
  99  0004              ;# 99 "C:\Users\YVTC\Desktop\單晶片微控制器(一)\0522\HT24.c" 1
  99  0004              	NOP
  99  0004              	ENDIF
  99  0004              ;# 99 "C:\Users\YVTC\Desktop\單晶片微控制器(一)\0522\HT24.c" 1
  99  0004              	IF (1>=8) AND (1<( 4 + __PBP__ * 2))  AND ( __PBP__ > 2 )
  99  0004              ;# 99 "C:\Users\YVTC\Desktop\單晶片微控制器(一)\0522\HT24.c" 1
  99  0004              	NOP
"File: HT24.c        Assembler  Version HGASM0202      Page 7

  99  0004              	ENDIF
  99  0004              ;# 99 "C:\Users\YVTC\Desktop\單晶片微控制器(一)\0522\HT24.c" 1
  99  0004              	IF (1==9)  AND ( __PBP__ > 2 )
  99  0004              ;# 99 "C:\Users\YVTC\Desktop\單晶片微控制器(一)\0522\HT24.c" 1
  99  0004              	NOP
  99  0004              	ENDIF
  99  0004              ;# 99 "C:\Users\YVTC\Desktop\單晶片微控制器(一)\0522\HT24.c" 1
  99  0004              	IF (1< ( 8 + __PBP__ * 2)) AND (1>( 3 + __PBP__ * 2))
  99  0004              ;# 99 "C:\Users\YVTC\Desktop\單晶片微控制器(一)\0522\HT24.c" 1
  99  0004              	fcall __DELAY3 + ( 7 + __PBP__ * 2) -1
  99  0004              	ENDIF
  99  0004              ;# 99 "C:\Users\YVTC\Desktop\單晶片微控制器(一)\0522\HT24.c" 1
  99  0004              	IF (1< ( 0404h + __PBP__ * 2)) AND (1>( 7 + __PBP__ * 2))
  99  0004              ;# 99 "C:\Users\YVTC\Desktop\單晶片微控制器(一)\0522\HT24.c" 1
  99  0004              	MOV A,(1-( 4 + __PBP__ * 2))/4
  99  0004              ;# 99 "C:\Users\YVTC\Desktop\單晶片微控制器(一)\0522\HT24.c" 1
  99  0004              	fcall __DELAYX3 + 3 -((1-( 4 + __PBP__ * 2)) MOD 4) 
  99  0004              	ENDIF
  99  0004              ;# 99 "C:\Users\YVTC\Desktop\單晶片微控制器(一)\0522\HT24.c" 1
  99  0004              	IF (1< ( 040bh + __PBP__ * 2)) AND (1> ( 0403h + __PBP__ * 2))
  99  0004              ;# 99 "C:\Users\YVTC\Desktop\單晶片微控制器(一)\0522\HT24.c" 1
  99  0004              	MOV A,0 
  99  0004              ;# 99 "C:\Users\YVTC\Desktop\單晶片微控制器(一)\0522\HT24.c" 1
  99  0004              	fcall __DELAYX6 + ( 040ah + __PBP__ * 2) -1
  99  0004              	ENDIF
  99  0004              ;# 99 "C:\Users\YVTC\Desktop\單晶片微控制器(一)\0522\HT24.c" 1
  99  0004              	IF (1 >= ( 040bh + __PBP__ * 2)) AND ((((1-( 9 + __PBP__ * 2))%0402h)/4+1)>256)
  99  0004              ;# 99 "C:\Users\YVTC\Desktop\單晶片微控制器(一)\0522\HT24.c" 1
  99  0004              	MOV A,(1-( 9 + __PBP__ * 2))/0402h
  99  0004              ;# 99 "C:\Users\YVTC\Desktop\單晶片微控制器(一)\0522\HT24.c" 1
  99  0004              	MOV _builtin_holtek_delay_2,A
  99  0004              ;# 99 "C:\Users\YVTC\Desktop\單晶片微控制器(一)\0522\HT24.c" 1
  99  0004              	MOV A,0
  99  0004              ;# 99 "C:\Users\YVTC\Desktop\單晶片微控制器(一)\0522\HT24.c" 1
  99  0004              	fcall __DELAYY5 +5- (((1-( 9 + __PBP__ * 2))%0402h)%6) 
  99  0004              	ENDIF
  99  0004              ;# 99 "C:\Users\YVTC\Desktop\單晶片微控制器(一)\0522\HT24.c" 1
  99  0004              	IF (1 >= ( 040bh + __PBP__ * 2)) AND ((((1-( 9 + __PBP__ * 2))%0402h)/4+1)<=256)
  99  0004              ;# 99 "C:\Users\YVTC\Desktop\單晶片微控制器(一)\0522\HT24.c" 1
  99  0004              	MOV A,(1-( 9 + __PBP__ * 2))/0402h
  99  0004              ;# 99 "C:\Users\YVTC\Desktop\單晶片微控制器(一)\0522\HT24.c" 1
  99  0004              	MOV _builtin_holtek_delay_2,A
  99  0004              ;# 99 "C:\Users\YVTC\Desktop\單晶片微控制器(一)\0522\HT24.c" 1
  99  0004              	MOV A,((1-( 9 + __PBP__ * 2))%0402h)/4+1
  99  0004              ;# 99 "C:\Users\YVTC\Desktop\單晶片微控制器(一)\0522\HT24.c" 1
  99  0004              	fcall __DELAYY3 +3-(((1-( 9 + __PBP__ * 2))%0402h)%4) 
  99  0004              	ENDIF
 100  0004              #line 100 "C:\Users\YVTC\Desktop\單晶片微控制器(一)\0522\HT24.c"
 100  0004  3392        	set [18].7
 101  0005              #line 101 "C:\Users\YVTC\Desktop\單晶片微控制器(一)\0522\HT24.c"
 101  0005              ;# 101 "C:\Users\YVTC\Desktop\單晶片微控制器(一)\0522\HT24.c" 1
 101  0005              	IF 1>263690
 101  0005              ;# 101 "C:\Users\YVTC\Desktop\單晶片微控制器(一)\0522\HT24.c" 1
 101  0005              	ERRMESSAGE 'the value 1of the argument exceeds the maxinum 263690'
 101  0005              	ENDIF
 101  0005              ;# 101 "C:\Users\YVTC\Desktop\單晶片微控制器(一)\0522\HT24.c" 1
 101  0005              	IF 1<0
 101  0005              ;# 101 "C:\Users\YVTC\Desktop\單晶片微控制器(一)\0522\HT24.c" 1
 101  0005              	ERRMESSAGE 'the value 1 of the argument exceeds the mininum 0'
 101  0005              	ENDIF
"File: HT24.c        Assembler  Version HGASM0202      Page 8

 101  0005              ;# 101 "C:\Users\YVTC\Desktop\單晶片微控制器(一)\0522\HT24.c" 1
 101  0005              	IF 1==0
 101  0005              ;# 101 "C:\Users\YVTC\Desktop\單晶片微控制器(一)\0522\HT24.c" 1
 101  0005              	JMP $
 101  0005              	ENDIF
 101  0005              ;# 101 "C:\Users\YVTC\Desktop\單晶片微控制器(一)\0522\HT24.c" 1
 101  0005              	IF (1>=1) AND (1<( 4 + __PBP__ * 2))
 101  0005              ;# 101 "C:\Users\YVTC\Desktop\單晶片微控制器(一)\0522\HT24.c" 1
 101  0005  0000        	NOP
 101  0006              	ENDIF
 101  0006              ;# 101 "C:\Users\YVTC\Desktop\單晶片微控制器(一)\0522\HT24.c" 1
 101  0006              	IF (1>=2) AND (1<( 4 + __PBP__ * 2))
 101  0006              ;# 101 "C:\Users\YVTC\Desktop\單晶片微控制器(一)\0522\HT24.c" 1
 101  0006              	NOP
 101  0006              	ENDIF
 101  0006              ;# 101 "C:\Users\YVTC\Desktop\單晶片微控制器(一)\0522\HT24.c" 1
 101  0006              	IF (1>=3) AND (1<( 4 + __PBP__ * 2))
 101  0006              ;# 101 "C:\Users\YVTC\Desktop\單晶片微控制器(一)\0522\HT24.c" 1
 101  0006              	NOP
 101  0006              	ENDIF
 101  0006              ;# 101 "C:\Users\YVTC\Desktop\單晶片微控制器(一)\0522\HT24.c" 1
 101  0006              	IF (1>=4) AND (1<( 4 + __PBP__ * 2)) AND ( __PBP__ > 0 )
 101  0006              ;# 101 "C:\Users\YVTC\Desktop\單晶片微控制器(一)\0522\HT24.c" 1
 101  0006              	NOP
 101  0006              	ENDIF
 101  0006              ;# 101 "C:\Users\YVTC\Desktop\單晶片微控制器(一)\0522\HT24.c" 1
 101  0006              	IF (1>=5) AND (1<( 4 + __PBP__ * 2)) AND ( __PBP__ > 0 )
 101  0006              ;# 101 "C:\Users\YVTC\Desktop\單晶片微控制器(一)\0522\HT24.c" 1
 101  0006              	NOP
 101  0006              	ENDIF
 101  0006              ;# 101 "C:\Users\YVTC\Desktop\單晶片微控制器(一)\0522\HT24.c" 1
 101  0006              	IF (1>=6) AND (1<( 4 + __PBP__ * 2))  AND ( __PBP__ > 1 )
 101  0006              ;# 101 "C:\Users\YVTC\Desktop\單晶片微控制器(一)\0522\HT24.c" 1
 101  0006              	NOP
 101  0006              	ENDIF
 101  0006              ;# 101 "C:\Users\YVTC\Desktop\單晶片微控制器(一)\0522\HT24.c" 1
 101  0006              	IF (1>=7) AND (1<( 4 + __PBP__ * 2))  AND ( __PBP__ > 1 )
 101  0006              ;# 101 "C:\Users\YVTC\Desktop\單晶片微控制器(一)\0522\HT24.c" 1
 101  0006              	NOP
 101  0006              	ENDIF
 101  0006              ;# 101 "C:\Users\YVTC\Desktop\單晶片微控制器(一)\0522\HT24.c" 1
 101  0006              	IF (1>=8) AND (1<( 4 + __PBP__ * 2))  AND ( __PBP__ > 2 )
 101  0006              ;# 101 "C:\Users\YVTC\Desktop\單晶片微控制器(一)\0522\HT24.c" 1
 101  0006              	NOP
 101  0006              	ENDIF
 101  0006              ;# 101 "C:\Users\YVTC\Desktop\單晶片微控制器(一)\0522\HT24.c" 1
 101  0006              	IF (1==9)  AND ( __PBP__ > 2 )
 101  0006              ;# 101 "C:\Users\YVTC\Desktop\單晶片微控制器(一)\0522\HT24.c" 1
 101  0006              	NOP
 101  0006              	ENDIF
 101  0006              ;# 101 "C:\Users\YVTC\Desktop\單晶片微控制器(一)\0522\HT24.c" 1
 101  0006              	IF (1< ( 8 + __PBP__ * 2)) AND (1>( 3 + __PBP__ * 2))
 101  0006              ;# 101 "C:\Users\YVTC\Desktop\單晶片微控制器(一)\0522\HT24.c" 1
 101  0006              	fcall __DELAY3 + ( 7 + __PBP__ * 2) -1
 101  0006              	ENDIF
 101  0006              ;# 101 "C:\Users\YVTC\Desktop\單晶片微控制器(一)\0522\HT24.c" 1
 101  0006              	IF (1< ( 0404h + __PBP__ * 2)) AND (1>( 7 + __PBP__ * 2))
 101  0006              ;# 101 "C:\Users\YVTC\Desktop\單晶片微控制器(一)\0522\HT24.c" 1
 101  0006              	MOV A,(1-( 4 + __PBP__ * 2))/4
 101  0006              ;# 101 "C:\Users\YVTC\Desktop\單晶片微控制器(一)\0522\HT24.c" 1
"File: HT24.c        Assembler  Version HGASM0202      Page 9

 101  0006              	fcall __DELAYX3 + 3 -((1-( 4 + __PBP__ * 2)) MOD 4) 
 101  0006              	ENDIF
 101  0006              ;# 101 "C:\Users\YVTC\Desktop\單晶片微控制器(一)\0522\HT24.c" 1
 101  0006              	IF (1< ( 040bh + __PBP__ * 2)) AND (1> ( 0403h + __PBP__ * 2))
 101  0006              ;# 101 "C:\Users\YVTC\Desktop\單晶片微控制器(一)\0522\HT24.c" 1
 101  0006              	MOV A,0 
 101  0006              ;# 101 "C:\Users\YVTC\Desktop\單晶片微控制器(一)\0522\HT24.c" 1
 101  0006              	fcall __DELAYX6 + ( 040ah + __PBP__ * 2) -1
 101  0006              	ENDIF
 101  0006              ;# 101 "C:\Users\YVTC\Desktop\單晶片微控制器(一)\0522\HT24.c" 1
 101  0006              	IF (1 >= ( 040bh + __PBP__ * 2)) AND ((((1-( 9 + __PBP__ * 2))%0402h)/4+1)>256)
 101  0006              ;# 101 "C:\Users\YVTC\Desktop\單晶片微控制器(一)\0522\HT24.c" 1
 101  0006              	MOV A,(1-( 9 + __PBP__ * 2))/0402h
 101  0006              ;# 101 "C:\Users\YVTC\Desktop\單晶片微控制器(一)\0522\HT24.c" 1
 101  0006              	MOV _builtin_holtek_delay_2,A
 101  0006              ;# 101 "C:\Users\YVTC\Desktop\單晶片微控制器(一)\0522\HT24.c" 1
 101  0006              	MOV A,0
 101  0006              ;# 101 "C:\Users\YVTC\Desktop\單晶片微控制器(一)\0522\HT24.c" 1
 101  0006              	fcall __DELAYY5 +5- (((1-( 9 + __PBP__ * 2))%0402h)%6) 
 101  0006              	ENDIF
 101  0006              ;# 101 "C:\Users\YVTC\Desktop\單晶片微控制器(一)\0522\HT24.c" 1
 101  0006              	IF (1 >= ( 040bh + __PBP__ * 2)) AND ((((1-( 9 + __PBP__ * 2))%0402h)/4+1)<=256)
 101  0006              ;# 101 "C:\Users\YVTC\Desktop\單晶片微控制器(一)\0522\HT24.c" 1
 101  0006              	MOV A,(1-( 9 + __PBP__ * 2))/0402h
 101  0006              ;# 101 "C:\Users\YVTC\Desktop\單晶片微控制器(一)\0522\HT24.c" 1
 101  0006              	MOV _builtin_holtek_delay_2,A
 101  0006              ;# 101 "C:\Users\YVTC\Desktop\單晶片微控制器(一)\0522\HT24.c" 1
 101  0006              	MOV A,((1-( 9 + __PBP__ * 2))%0402h)/4+1
 101  0006              ;# 101 "C:\Users\YVTC\Desktop\單晶片微控制器(一)\0522\HT24.c" 1
 101  0006              	fcall __DELAYY3 +3-(((1-( 9 + __PBP__ * 2))%0402h)%4) 
 101  0006              	ENDIF
 102  0006              #line 102 "C:\Users\YVTC\Desktop\單晶片微控制器(一)\0522\HT24.c"
 102  0006  3712        	clr [18].6
 102  0007  0003        	ret
 102  0008              _I2C_STOP endp
 102  0008              #line 102 "C:\Users\YVTC\Desktop\單晶片微控制器(一)\0522\HT24.c"
 102  0008              #pragma debug scope 1 1
 102  0008              public _CheckACK
 102  0008              #pragma debug scope 4 1
 105  0008              #line 105 "C:\Users\YVTC\Desktop\單晶片微控制器(一)\0522\HT24.c"
 105  0000              _CheckACK .section 'code'
 105  0000              _CheckACK proc
 105  0000  3393        	set [19].7
 106  0001              #line 106 "C:\Users\YVTC\Desktop\單晶片微控制器(一)\0522\HT24.c"
 106  0001  3312        	set [18].6
 106  0002              ;# 106 "C:\Users\YVTC\Desktop\單晶片微控制器(一)\0522\HT24.c" 1
 106  0002              	IF 1>263690
 106  0002              ;# 106 "C:\Users\YVTC\Desktop\單晶片微控制器(一)\0522\HT24.c" 1
 106  0002              	ERRMESSAGE 'the value 1of the argument exceeds the maxinum 263690'
 106  0002              	ENDIF
 106  0002              ;# 106 "C:\Users\YVTC\Desktop\單晶片微控制器(一)\0522\HT24.c" 1
 106  0002              	IF 1<0
 106  0002              ;# 106 "C:\Users\YVTC\Desktop\單晶片微控制器(一)\0522\HT24.c" 1
 106  0002              	ERRMESSAGE 'the value 1 of the argument exceeds the mininum 0'
 106  0002              	ENDIF
 106  0002              ;# 106 "C:\Users\YVTC\Desktop\單晶片微控制器(一)\0522\HT24.c" 1
 106  0002              	IF 1==0
 106  0002              ;# 106 "C:\Users\YVTC\Desktop\單晶片微控制器(一)\0522\HT24.c" 1
 106  0002              	JMP $
 106  0002              	ENDIF
"File: HT24.c        Assembler  Version HGASM0202      Page 10

 106  0002              ;# 106 "C:\Users\YVTC\Desktop\單晶片微控制器(一)\0522\HT24.c" 1
 106  0002              	IF (1>=1) AND (1<( 4 + __PBP__ * 2))
 106  0002              ;# 106 "C:\Users\YVTC\Desktop\單晶片微控制器(一)\0522\HT24.c" 1
 106  0002  0000        	NOP
 106  0003              	ENDIF
 106  0003              ;# 106 "C:\Users\YVTC\Desktop\單晶片微控制器(一)\0522\HT24.c" 1
 106  0003              	IF (1>=2) AND (1<( 4 + __PBP__ * 2))
 106  0003              ;# 106 "C:\Users\YVTC\Desktop\單晶片微控制器(一)\0522\HT24.c" 1
 106  0003              	NOP
 106  0003              	ENDIF
 106  0003              ;# 106 "C:\Users\YVTC\Desktop\單晶片微控制器(一)\0522\HT24.c" 1
 106  0003              	IF (1>=3) AND (1<( 4 + __PBP__ * 2))
 106  0003              ;# 106 "C:\Users\YVTC\Desktop\單晶片微控制器(一)\0522\HT24.c" 1
 106  0003              	NOP
 106  0003              	ENDIF
 106  0003              ;# 106 "C:\Users\YVTC\Desktop\單晶片微控制器(一)\0522\HT24.c" 1
 106  0003              	IF (1>=4) AND (1<( 4 + __PBP__ * 2)) AND ( __PBP__ > 0 )
 106  0003              ;# 106 "C:\Users\YVTC\Desktop\單晶片微控制器(一)\0522\HT24.c" 1
 106  0003              	NOP
 106  0003              	ENDIF
 106  0003              ;# 106 "C:\Users\YVTC\Desktop\單晶片微控制器(一)\0522\HT24.c" 1
 106  0003              	IF (1>=5) AND (1<( 4 + __PBP__ * 2)) AND ( __PBP__ > 0 )
 106  0003              ;# 106 "C:\Users\YVTC\Desktop\單晶片微控制器(一)\0522\HT24.c" 1
 106  0003              	NOP
 106  0003              	ENDIF
 106  0003              ;# 106 "C:\Users\YVTC\Desktop\單晶片微控制器(一)\0522\HT24.c" 1
 106  0003              	IF (1>=6) AND (1<( 4 + __PBP__ * 2))  AND ( __PBP__ > 1 )
 106  0003              ;# 106 "C:\Users\YVTC\Desktop\單晶片微控制器(一)\0522\HT24.c" 1
 106  0003              	NOP
 106  0003              	ENDIF
 106  0003              ;# 106 "C:\Users\YVTC\Desktop\單晶片微控制器(一)\0522\HT24.c" 1
 106  0003              	IF (1>=7) AND (1<( 4 + __PBP__ * 2))  AND ( __PBP__ > 1 )
 106  0003              ;# 106 "C:\Users\YVTC\Desktop\單晶片微控制器(一)\0522\HT24.c" 1
 106  0003              	NOP
 106  0003              	ENDIF
 106  0003              ;# 106 "C:\Users\YVTC\Desktop\單晶片微控制器(一)\0522\HT24.c" 1
 106  0003              	IF (1>=8) AND (1<( 4 + __PBP__ * 2))  AND ( __PBP__ > 2 )
 106  0003              ;# 106 "C:\Users\YVTC\Desktop\單晶片微控制器(一)\0522\HT24.c" 1
 106  0003              	NOP
 106  0003              	ENDIF
 106  0003              ;# 106 "C:\Users\YVTC\Desktop\單晶片微控制器(一)\0522\HT24.c" 1
 106  0003              	IF (1==9)  AND ( __PBP__ > 2 )
 106  0003              ;# 106 "C:\Users\YVTC\Desktop\單晶片微控制器(一)\0522\HT24.c" 1
 106  0003              	NOP
 106  0003              	ENDIF
 106  0003              ;# 106 "C:\Users\YVTC\Desktop\單晶片微控制器(一)\0522\HT24.c" 1
 106  0003              	IF (1< ( 8 + __PBP__ * 2)) AND (1>( 3 + __PBP__ * 2))
 106  0003              ;# 106 "C:\Users\YVTC\Desktop\單晶片微控制器(一)\0522\HT24.c" 1
 106  0003              	fcall __DELAY3 + ( 7 + __PBP__ * 2) -1
 106  0003              	ENDIF
 106  0003              ;# 106 "C:\Users\YVTC\Desktop\單晶片微控制器(一)\0522\HT24.c" 1
 106  0003              	IF (1< ( 0404h + __PBP__ * 2)) AND (1>( 7 + __PBP__ * 2))
 106  0003              ;# 106 "C:\Users\YVTC\Desktop\單晶片微控制器(一)\0522\HT24.c" 1
 106  0003              	MOV A,(1-( 4 + __PBP__ * 2))/4
 106  0003              ;# 106 "C:\Users\YVTC\Desktop\單晶片微控制器(一)\0522\HT24.c" 1
 106  0003              	fcall __DELAYX3 + 3 -((1-( 4 + __PBP__ * 2)) MOD 4) 
 106  0003              	ENDIF
 106  0003              ;# 106 "C:\Users\YVTC\Desktop\單晶片微控制器(一)\0522\HT24.c" 1
 106  0003              	IF (1< ( 040bh + __PBP__ * 2)) AND (1> ( 0403h + __PBP__ * 2))
 106  0003              ;# 106 "C:\Users\YVTC\Desktop\單晶片微控制器(一)\0522\HT24.c" 1
"File: HT24.c        Assembler  Version HGASM0202      Page 11

 106  0003              	MOV A,0 
 106  0003              ;# 106 "C:\Users\YVTC\Desktop\單晶片微控制器(一)\0522\HT24.c" 1
 106  0003              	fcall __DELAYX6 + ( 040ah + __PBP__ * 2) -1
 106  0003              	ENDIF
 106  0003              ;# 106 "C:\Users\YVTC\Desktop\單晶片微控制器(一)\0522\HT24.c" 1
 106  0003              	IF (1 >= ( 040bh + __PBP__ * 2)) AND ((((1-( 9 + __PBP__ * 2))%0402h)/4+1)>256)
 106  0003              ;# 106 "C:\Users\YVTC\Desktop\單晶片微控制器(一)\0522\HT24.c" 1
 106  0003              	MOV A,(1-( 9 + __PBP__ * 2))/0402h
 106  0003              ;# 106 "C:\Users\YVTC\Desktop\單晶片微控制器(一)\0522\HT24.c" 1
 106  0003              	MOV _builtin_holtek_delay_2,A
 106  0003              ;# 106 "C:\Users\YVTC\Desktop\單晶片微控制器(一)\0522\HT24.c" 1
 106  0003              	MOV A,0
 106  0003              ;# 106 "C:\Users\YVTC\Desktop\單晶片微控制器(一)\0522\HT24.c" 1
 106  0003              	fcall __DELAYY5 +5- (((1-( 9 + __PBP__ * 2))%0402h)%6) 
 106  0003              	ENDIF
 106  0003              ;# 106 "C:\Users\YVTC\Desktop\單晶片微控制器(一)\0522\HT24.c" 1
 106  0003              	IF (1 >= ( 040bh + __PBP__ * 2)) AND ((((1-( 9 + __PBP__ * 2))%0402h)/4+1)<=256)
 106  0003              ;# 106 "C:\Users\YVTC\Desktop\單晶片微控制器(一)\0522\HT24.c" 1
 106  0003              	MOV A,(1-( 9 + __PBP__ * 2))/0402h
 106  0003              ;# 106 "C:\Users\YVTC\Desktop\單晶片微控制器(一)\0522\HT24.c" 1
 106  0003              	MOV _builtin_holtek_delay_2,A
 106  0003              ;# 106 "C:\Users\YVTC\Desktop\單晶片微控制器(一)\0522\HT24.c" 1
 106  0003              	MOV A,((1-( 9 + __PBP__ * 2))%0402h)/4+1
 106  0003              ;# 106 "C:\Users\YVTC\Desktop\單晶片微控制器(一)\0522\HT24.c" 1
 106  0003              	fcall __DELAYY3 +3-(((1-( 9 + __PBP__ * 2))%0402h)%4) 
 106  0003              	ENDIF
 106  0003              _L5:
 107  0003              #line 107 "C:\Users\YVTC\Desktop\單晶片微控制器(一)\0522\HT24.c"
 107  0003  3F92        	sz [18].7
 107  0004  2800     R  	jmp _L5
 108  0005              #line 108 "C:\Users\YVTC\Desktop\單晶片微控制器(一)\0522\HT24.c"
 108  0005  3712        	clr [18].6
 108  0006  0003        	ret
 108  0007              _CheckACK endp
 108  0007              #line 108 "C:\Users\YVTC\Desktop\單晶片微控制器(一)\0522\HT24.c"
 108  0007              #pragma debug scope 1 1
 108  0007              public _WriteByte
 108  0007              #pragma debug scope 5 1
 148  0007              #line 148 "C:\Users\YVTC\Desktop\單晶片微控制器(一)\0522\HT24.c"
 148  0000              _WriteByte .section 'code'
 148  0000              _WriteByte proc
 148  0000  00              local _WriteByte_2 db 1 dup(?)	; 0,1
 148  0000  0080     R  	mov _WriteByte_2[0],a
 148  0001              #pragma debug variable 8 5 _WriteByte_2+0 "I2CData"
 149  0001              #line 149 "C:\Users\YVTC\Desktop\單晶片微控制器(一)\0522\HT24.c"
 149  0001  3712        	clr [18].6
 149  0002  3793        	clr [19].7
 149  0003  1F00     E  	clr ra
 148  0004              #line 148 "C:\Users\YVTC\Desktop\單晶片微控制器(一)\0522\HT24.c"
 148  0004  0F80        	mov a,128
 148  0005  0080     E  	mov rb,a
 148  0006              _L9:
 151  0006              #line 151 "C:\Users\YVTC\Desktop\單晶片微控制器(一)\0522\HT24.c"
 151  0006  0700     E  	mov a,rb
 151  0007  0600     R  	and a,_WriteByte_2[0]
 151  0008  0080     E  	mov rc,a
 151  0009  0F00        	mov a,0
 151  000A  0200     E  	sub a,rc
 151  000B  0080     E  	mov rd,a
 151  000C  0700     E  	mov a,rd
"File: HT24.c        Assembler  Version HGASM0202      Page 12

 151  000D  0580     E  	orm a,rc
 151  000E  0F80        	mov a,128
 151  000F  0680     E  	andm a,rc
 151  0010  3792        	clr [18].7
 151  0011  0700     E  	mov a,rc
 151  0012  0592        	orm a,[18]
 152  0013              #line 152 "C:\Users\YVTC\Desktop\單晶片微控制器(一)\0522\HT24.c"
 152  0013  3312        	set [18].6
 152  0014              ;# 152 "C:\Users\YVTC\Desktop\單晶片微控制器(一)\0522\HT24.c" 1
 152  0014              	IF 1>263690
 152  0014              ;# 152 "C:\Users\YVTC\Desktop\單晶片微控制器(一)\0522\HT24.c" 1
 152  0014              	ERRMESSAGE 'the value 1of the argument exceeds the maxinum 263690'
 152  0014              	ENDIF
 152  0014              ;# 152 "C:\Users\YVTC\Desktop\單晶片微控制器(一)\0522\HT24.c" 1
 152  0014              	IF 1<0
 152  0014              ;# 152 "C:\Users\YVTC\Desktop\單晶片微控制器(一)\0522\HT24.c" 1
 152  0014              	ERRMESSAGE 'the value 1 of the argument exceeds the mininum 0'
 152  0014              	ENDIF
 152  0014              ;# 152 "C:\Users\YVTC\Desktop\單晶片微控制器(一)\0522\HT24.c" 1
 152  0014              	IF 1==0
 152  0014              ;# 152 "C:\Users\YVTC\Desktop\單晶片微控制器(一)\0522\HT24.c" 1
 152  0014              	JMP $
 152  0014              	ENDIF
 152  0014              ;# 152 "C:\Users\YVTC\Desktop\單晶片微控制器(一)\0522\HT24.c" 1
 152  0014              	IF (1>=1) AND (1<( 4 + __PBP__ * 2))
 152  0014              ;# 152 "C:\Users\YVTC\Desktop\單晶片微控制器(一)\0522\HT24.c" 1
 152  0014  0000        	NOP
 152  0015              	ENDIF
 152  0015              ;# 152 "C:\Users\YVTC\Desktop\單晶片微控制器(一)\0522\HT24.c" 1
 152  0015              	IF (1>=2) AND (1<( 4 + __PBP__ * 2))
 152  0015              ;# 152 "C:\Users\YVTC\Desktop\單晶片微控制器(一)\0522\HT24.c" 1
 152  0015              	NOP
 152  0015              	ENDIF
 152  0015              ;# 152 "C:\Users\YVTC\Desktop\單晶片微控制器(一)\0522\HT24.c" 1
 152  0015              	IF (1>=3) AND (1<( 4 + __PBP__ * 2))
 152  0015              ;# 152 "C:\Users\YVTC\Desktop\單晶片微控制器(一)\0522\HT24.c" 1
 152  0015              	NOP
 152  0015              	ENDIF
 152  0015              ;# 152 "C:\Users\YVTC\Desktop\單晶片微控制器(一)\0522\HT24.c" 1
 152  0015              	IF (1>=4) AND (1<( 4 + __PBP__ * 2)) AND ( __PBP__ > 0 )
 152  0015              ;# 152 "C:\Users\YVTC\Desktop\單晶片微控制器(一)\0522\HT24.c" 1
 152  0015              	NOP
 152  0015              	ENDIF
 152  0015              ;# 152 "C:\Users\YVTC\Desktop\單晶片微控制器(一)\0522\HT24.c" 1
 152  0015              	IF (1>=5) AND (1<( 4 + __PBP__ * 2)) AND ( __PBP__ > 0 )
 152  0015              ;# 152 "C:\Users\YVTC\Desktop\單晶片微控制器(一)\0522\HT24.c" 1
 152  0015              	NOP
 152  0015              	ENDIF
 152  0015              ;# 152 "C:\Users\YVTC\Desktop\單晶片微控制器(一)\0522\HT24.c" 1
 152  0015              	IF (1>=6) AND (1<( 4 + __PBP__ * 2))  AND ( __PBP__ > 1 )
 152  0015              ;# 152 "C:\Users\YVTC\Desktop\單晶片微控制器(一)\0522\HT24.c" 1
 152  0015              	NOP
 152  0015              	ENDIF
 152  0015              ;# 152 "C:\Users\YVTC\Desktop\單晶片微控制器(一)\0522\HT24.c" 1
 152  0015              	IF (1>=7) AND (1<( 4 + __PBP__ * 2))  AND ( __PBP__ > 1 )
 152  0015              ;# 152 "C:\Users\YVTC\Desktop\單晶片微控制器(一)\0522\HT24.c" 1
 152  0015              	NOP
 152  0015              	ENDIF
 152  0015              ;# 152 "C:\Users\YVTC\Desktop\單晶片微控制器(一)\0522\HT24.c" 1
 152  0015              	IF (1>=8) AND (1<( 4 + __PBP__ * 2))  AND ( __PBP__ > 2 )
"File: HT24.c        Assembler  Version HGASM0202      Page 13

 152  0015              ;# 152 "C:\Users\YVTC\Desktop\單晶片微控制器(一)\0522\HT24.c" 1
 152  0015              	NOP
 152  0015              	ENDIF
 152  0015              ;# 152 "C:\Users\YVTC\Desktop\單晶片微控制器(一)\0522\HT24.c" 1
 152  0015              	IF (1==9)  AND ( __PBP__ > 2 )
 152  0015              ;# 152 "C:\Users\YVTC\Desktop\單晶片微控制器(一)\0522\HT24.c" 1
 152  0015              	NOP
 152  0015              	ENDIF
 152  0015              ;# 152 "C:\Users\YVTC\Desktop\單晶片微控制器(一)\0522\HT24.c" 1
 152  0015              	IF (1< ( 8 + __PBP__ * 2)) AND (1>( 3 + __PBP__ * 2))
 152  0015              ;# 152 "C:\Users\YVTC\Desktop\單晶片微控制器(一)\0522\HT24.c" 1
 152  0015              	fcall __DELAY3 + ( 7 + __PBP__ * 2) -1
 152  0015              	ENDIF
 152  0015              ;# 152 "C:\Users\YVTC\Desktop\單晶片微控制器(一)\0522\HT24.c" 1
 152  0015              	IF (1< ( 0404h + __PBP__ * 2)) AND (1>( 7 + __PBP__ * 2))
 152  0015              ;# 152 "C:\Users\YVTC\Desktop\單晶片微控制器(一)\0522\HT24.c" 1
 152  0015              	MOV A,(1-( 4 + __PBP__ * 2))/4
 152  0015              ;# 152 "C:\Users\YVTC\Desktop\單晶片微控制器(一)\0522\HT24.c" 1
 152  0015              	fcall __DELAYX3 + 3 -((1-( 4 + __PBP__ * 2)) MOD 4) 
 152  0015              	ENDIF
 152  0015              ;# 152 "C:\Users\YVTC\Desktop\單晶片微控制器(一)\0522\HT24.c" 1
 152  0015              	IF (1< ( 040bh + __PBP__ * 2)) AND (1> ( 0403h + __PBP__ * 2))
 152  0015              ;# 152 "C:\Users\YVTC\Desktop\單晶片微控制器(一)\0522\HT24.c" 1
 152  0015              	MOV A,0 
 152  0015              ;# 152 "C:\Users\YVTC\Desktop\單晶片微控制器(一)\0522\HT24.c" 1
 152  0015              	fcall __DELAYX6 + ( 040ah + __PBP__ * 2) -1
 152  0015              	ENDIF
 152  0015              ;# 152 "C:\Users\YVTC\Desktop\單晶片微控制器(一)\0522\HT24.c" 1
 152  0015              	IF (1 >= ( 040bh + __PBP__ * 2)) AND ((((1-( 9 + __PBP__ * 2))%0402h)/4+1)>256)
 152  0015              ;# 152 "C:\Users\YVTC\Desktop\單晶片微控制器(一)\0522\HT24.c" 1
 152  0015              	MOV A,(1-( 9 + __PBP__ * 2))/0402h
 152  0015              ;# 152 "C:\Users\YVTC\Desktop\單晶片微控制器(一)\0522\HT24.c" 1
 152  0015              	MOV _builtin_holtek_delay_2,A
 152  0015              ;# 152 "C:\Users\YVTC\Desktop\單晶片微控制器(一)\0522\HT24.c" 1
 152  0015              	MOV A,0
 152  0015              ;# 152 "C:\Users\YVTC\Desktop\單晶片微控制器(一)\0522\HT24.c" 1
 152  0015              	fcall __DELAYY5 +5- (((1-( 9 + __PBP__ * 2))%0402h)%6) 
 152  0015              	ENDIF
 152  0015              ;# 152 "C:\Users\YVTC\Desktop\單晶片微控制器(一)\0522\HT24.c" 1
 152  0015              	IF (1 >= ( 040bh + __PBP__ * 2)) AND ((((1-( 9 + __PBP__ * 2))%0402h)/4+1)<=256)
 152  0015              ;# 152 "C:\Users\YVTC\Desktop\單晶片微控制器(一)\0522\HT24.c" 1
 152  0015              	MOV A,(1-( 9 + __PBP__ * 2))/0402h
 152  0015              ;# 152 "C:\Users\YVTC\Desktop\單晶片微控制器(一)\0522\HT24.c" 1
 152  0015              	MOV _builtin_holtek_delay_2,A
 152  0015              ;# 152 "C:\Users\YVTC\Desktop\單晶片微控制器(一)\0522\HT24.c" 1
 152  0015              	MOV A,((1-( 9 + __PBP__ * 2))%0402h)/4+1
 152  0015              ;# 152 "C:\Users\YVTC\Desktop\單晶片微控制器(一)\0522\HT24.c" 1
 152  0015              	fcall __DELAYY3 +3-(((1-( 9 + __PBP__ * 2))%0402h)%4) 
 152  0015              	ENDIF
 153  0015              #line 153 "C:\Users\YVTC\Desktop\單晶片微控制器(一)\0522\HT24.c"
 153  0015  3712        	clr [18].6
 153  0016              ;# 153 "C:\Users\YVTC\Desktop\單晶片微控制器(一)\0522\HT24.c" 1
 153  0016              	IF 1>263690
 153  0016              ;# 153 "C:\Users\YVTC\Desktop\單晶片微控制器(一)\0522\HT24.c" 1
 153  0016              	ERRMESSAGE 'the value 1of the argument exceeds the maxinum 263690'
 153  0016              	ENDIF
 153  0016              ;# 153 "C:\Users\YVTC\Desktop\單晶片微控制器(一)\0522\HT24.c" 1
 153  0016              	IF 1<0
 153  0016              ;# 153 "C:\Users\YVTC\Desktop\單晶片微控制器(一)\0522\HT24.c" 1
 153  0016              	ERRMESSAGE 'the value 1 of the argument exceeds the mininum 0'
"File: HT24.c        Assembler  Version HGASM0202      Page 14

 153  0016              	ENDIF
 153  0016              ;# 153 "C:\Users\YVTC\Desktop\單晶片微控制器(一)\0522\HT24.c" 1
 153  0016              	IF 1==0
 153  0016              ;# 153 "C:\Users\YVTC\Desktop\單晶片微控制器(一)\0522\HT24.c" 1
 153  0016              	JMP $
 153  0016              	ENDIF
 153  0016              ;# 153 "C:\Users\YVTC\Desktop\單晶片微控制器(一)\0522\HT24.c" 1
 153  0016              	IF (1>=1) AND (1<( 4 + __PBP__ * 2))
 153  0016              ;# 153 "C:\Users\YVTC\Desktop\單晶片微控制器(一)\0522\HT24.c" 1
 153  0016  0000        	NOP
 153  0017              	ENDIF
 153  0017              ;# 153 "C:\Users\YVTC\Desktop\單晶片微控制器(一)\0522\HT24.c" 1
 153  0017              	IF (1>=2) AND (1<( 4 + __PBP__ * 2))
 153  0017              ;# 153 "C:\Users\YVTC\Desktop\單晶片微控制器(一)\0522\HT24.c" 1
 153  0017              	NOP
 153  0017              	ENDIF
 153  0017              ;# 153 "C:\Users\YVTC\Desktop\單晶片微控制器(一)\0522\HT24.c" 1
 153  0017              	IF (1>=3) AND (1<( 4 + __PBP__ * 2))
 153  0017              ;# 153 "C:\Users\YVTC\Desktop\單晶片微控制器(一)\0522\HT24.c" 1
 153  0017              	NOP
 153  0017              	ENDIF
 153  0017              ;# 153 "C:\Users\YVTC\Desktop\單晶片微控制器(一)\0522\HT24.c" 1
 153  0017              	IF (1>=4) AND (1<( 4 + __PBP__ * 2)) AND ( __PBP__ > 0 )
 153  0017              ;# 153 "C:\Users\YVTC\Desktop\單晶片微控制器(一)\0522\HT24.c" 1
 153  0017              	NOP
 153  0017              	ENDIF
 153  0017              ;# 153 "C:\Users\YVTC\Desktop\單晶片微控制器(一)\0522\HT24.c" 1
 153  0017              	IF (1>=5) AND (1<( 4 + __PBP__ * 2)) AND ( __PBP__ > 0 )
 153  0017              ;# 153 "C:\Users\YVTC\Desktop\單晶片微控制器(一)\0522\HT24.c" 1
 153  0017              	NOP
 153  0017              	ENDIF
 153  0017              ;# 153 "C:\Users\YVTC\Desktop\單晶片微控制器(一)\0522\HT24.c" 1
 153  0017              	IF (1>=6) AND (1<( 4 + __PBP__ * 2))  AND ( __PBP__ > 1 )
 153  0017              ;# 153 "C:\Users\YVTC\Desktop\單晶片微控制器(一)\0522\HT24.c" 1
 153  0017              	NOP
 153  0017              	ENDIF
 153  0017              ;# 153 "C:\Users\YVTC\Desktop\單晶片微控制器(一)\0522\HT24.c" 1
 153  0017              	IF (1>=7) AND (1<( 4 + __PBP__ * 2))  AND ( __PBP__ > 1 )
 153  0017              ;# 153 "C:\Users\YVTC\Desktop\單晶片微控制器(一)\0522\HT24.c" 1
 153  0017              	NOP
 153  0017              	ENDIF
 153  0017              ;# 153 "C:\Users\YVTC\Desktop\單晶片微控制器(一)\0522\HT24.c" 1
 153  0017              	IF (1>=8) AND (1<( 4 + __PBP__ * 2))  AND ( __PBP__ > 2 )
 153  0017              ;# 153 "C:\Users\YVTC\Desktop\單晶片微控制器(一)\0522\HT24.c" 1
 153  0017              	NOP
 153  0017              	ENDIF
 153  0017              ;# 153 "C:\Users\YVTC\Desktop\單晶片微控制器(一)\0522\HT24.c" 1
 153  0017              	IF (1==9)  AND ( __PBP__ > 2 )
 153  0017              ;# 153 "C:\Users\YVTC\Desktop\單晶片微控制器(一)\0522\HT24.c" 1
 153  0017              	NOP
 153  0017              	ENDIF
 153  0017              ;# 153 "C:\Users\YVTC\Desktop\單晶片微控制器(一)\0522\HT24.c" 1
 153  0017              	IF (1< ( 8 + __PBP__ * 2)) AND (1>( 3 + __PBP__ * 2))
 153  0017              ;# 153 "C:\Users\YVTC\Desktop\單晶片微控制器(一)\0522\HT24.c" 1
 153  0017              	fcall __DELAY3 + ( 7 + __PBP__ * 2) -1
 153  0017              	ENDIF
 153  0017              ;# 153 "C:\Users\YVTC\Desktop\單晶片微控制器(一)\0522\HT24.c" 1
 153  0017              	IF (1< ( 0404h + __PBP__ * 2)) AND (1>( 7 + __PBP__ * 2))
 153  0017              ;# 153 "C:\Users\YVTC\Desktop\單晶片微控制器(一)\0522\HT24.c" 1
 153  0017              	MOV A,(1-( 4 + __PBP__ * 2))/4
"File: HT24.c        Assembler  Version HGASM0202      Page 15

 153  0017              ;# 153 "C:\Users\YVTC\Desktop\單晶片微控制器(一)\0522\HT24.c" 1
 153  0017              	fcall __DELAYX3 + 3 -((1-( 4 + __PBP__ * 2)) MOD 4) 
 153  0017              	ENDIF
 153  0017              ;# 153 "C:\Users\YVTC\Desktop\單晶片微控制器(一)\0522\HT24.c" 1
 153  0017              	IF (1< ( 040bh + __PBP__ * 2)) AND (1> ( 0403h + __PBP__ * 2))
 153  0017              ;# 153 "C:\Users\YVTC\Desktop\單晶片微控制器(一)\0522\HT24.c" 1
 153  0017              	MOV A,0 
 153  0017              ;# 153 "C:\Users\YVTC\Desktop\單晶片微控制器(一)\0522\HT24.c" 1
 153  0017              	fcall __DELAYX6 + ( 040ah + __PBP__ * 2) -1
 153  0017              	ENDIF
 153  0017              ;# 153 "C:\Users\YVTC\Desktop\單晶片微控制器(一)\0522\HT24.c" 1
 153  0017              	IF (1 >= ( 040bh + __PBP__ * 2)) AND ((((1-( 9 + __PBP__ * 2))%0402h)/4+1)>256)
 153  0017              ;# 153 "C:\Users\YVTC\Desktop\單晶片微控制器(一)\0522\HT24.c" 1
 153  0017              	MOV A,(1-( 9 + __PBP__ * 2))/0402h
 153  0017              ;# 153 "C:\Users\YVTC\Desktop\單晶片微控制器(一)\0522\HT24.c" 1
 153  0017              	MOV _builtin_holtek_delay_2,A
 153  0017              ;# 153 "C:\Users\YVTC\Desktop\單晶片微控制器(一)\0522\HT24.c" 1
 153  0017              	MOV A,0
 153  0017              ;# 153 "C:\Users\YVTC\Desktop\單晶片微控制器(一)\0522\HT24.c" 1
 153  0017              	fcall __DELAYY5 +5- (((1-( 9 + __PBP__ * 2))%0402h)%6) 
 153  0017              	ENDIF
 153  0017              ;# 153 "C:\Users\YVTC\Desktop\單晶片微控制器(一)\0522\HT24.c" 1
 153  0017              	IF (1 >= ( 040bh + __PBP__ * 2)) AND ((((1-( 9 + __PBP__ * 2))%0402h)/4+1)<=256)
 153  0017              ;# 153 "C:\Users\YVTC\Desktop\單晶片微控制器(一)\0522\HT24.c" 1
 153  0017              	MOV A,(1-( 9 + __PBP__ * 2))/0402h
 153  0017              ;# 153 "C:\Users\YVTC\Desktop\單晶片微控制器(一)\0522\HT24.c" 1
 153  0017              	MOV _builtin_holtek_delay_2,A
 153  0017              ;# 153 "C:\Users\YVTC\Desktop\單晶片微控制器(一)\0522\HT24.c" 1
 153  0017              	MOV A,((1-( 9 + __PBP__ * 2))%0402h)/4+1
 153  0017              ;# 153 "C:\Users\YVTC\Desktop\單晶片微控制器(一)\0522\HT24.c" 1
 153  0017              	fcall __DELAYY3 +3-(((1-( 9 + __PBP__ * 2))%0402h)%4) 
 153  0017              	ENDIF
 154  0017              #line 154 "C:\Users\YVTC\Desktop\單晶片微控制器(一)\0522\HT24.c"
 154  0017  340A        	clr c
 154  0018  1B80     E  	rrc rb
 154  0019  1480     E  	inc ra
 155  001A              #line 155 "C:\Users\YVTC\Desktop\單晶片微控制器(一)\0522\HT24.c"
 155  001A  0700     E  	mov a,ra
 155  001B  0A08        	sub a,8
 155  001C  390A        	snz z
 155  001D  2800     R  	jmp _L9
 155  001E  0003        	ret
 155  001F              _WriteByte endp
 155  001F              #line 155 "C:\Users\YVTC\Desktop\單晶片微控制器(一)\0522\HT24.c"
 155  001F              #pragma debug scope 1 1
 155  001F              public _I2C_DeviceSelect
 155  001F              #pragma debug scope 6 1
 111  001F              #line 111 "C:\Users\YVTC\Desktop\單晶片微控制器(一)\0522\HT24.c"
 111  0000              _I2C_DeviceSelect .section 'code'
 111  0000              _I2C_DeviceSelect proc
 111  0000  00              local _I2C_DeviceSelect_2 db 1 dup(?)	; 0,1
 111  0000  0080     E  	mov ra,a
 111  0001              #pragma debug variable 8 6 _I2C_DeviceSelect_2+0 "FG_RW"
 111  0001  0FA0        	mov a,160
 111  0002  0580     E  	orm a,ra
 111  0003  0700     E  	mov a,ra
 111  0004              	fcall _WriteByte
 112  000B              #line 112 "C:\Users\YVTC\Desktop\單晶片微控制器(一)\0522\HT24.c"
 112  000B              	fcall _CheckACK
 112  0012  0003        	ret
"File: HT24.c        Assembler  Version HGASM0202      Page 16

 112  0013              _I2C_DeviceSelect endp
 112  0013              #line 112 "C:\Users\YVTC\Desktop\單晶片微控制器(一)\0522\HT24.c"
 112  0013              #pragma debug scope 1 1
 112  0013              public _I2C_SetAddress
 112  0013              #pragma debug scope 7 1
 115  0013              #line 115 "C:\Users\YVTC\Desktop\單晶片微控制器(一)\0522\HT24.c"
 115  0000              _I2C_SetAddress .section 'code'
 115  0000              _I2C_SetAddress proc
 115  0000              public _I2C_SetAddress_2
 115  0000  0002[           local _I2C_SetAddress_2 db 2 dup(?)	; 2,0
            00
            ]
 115  0002              #pragma debug variable 10 7 _I2C_SetAddress_2+0 "I2CAddress"
 115  0000  0700     R  	mov a,_I2C_SetAddress_2[0]
 115  0001  0080     E  	mov rb,a
 115  0002  0700     R  	mov a,_I2C_SetAddress_2[1]
 115  0003  0080     E  	mov rc,a
 115  0004  0700     E  	mov a,rc
 115  0005  0080     E  	mov rb,a
 115  0006  1F00     E  	clr rc
 115  0007  0700     E  	mov a,rb
 115  0008              	fcall _WriteByte
 116  000F              #line 116 "C:\Users\YVTC\Desktop\單晶片微控制器(一)\0522\HT24.c"
 116  000F              	fcall _CheckACK
 117  0016              #line 117 "C:\Users\YVTC\Desktop\單晶片微控制器(一)\0522\HT24.c"
 117  0016  0700     R  	mov a,_I2C_SetAddress_2[0]
 117  0017              	fcall _WriteByte
 118  001E              #line 118 "C:\Users\YVTC\Desktop\單晶片微控制器(一)\0522\HT24.c"
 118  001E              	fcall _CheckACK
 118  0025  0003        	ret
 118  0026              _I2C_SetAddress endp
 118  0026              #line 118 "C:\Users\YVTC\Desktop\單晶片微控制器(一)\0522\HT24.c"
 118  0026              #pragma debug scope 1 1
 118  0026              public _ReadByte
 118  0026              #pragma debug scope 8 1
 158  0026              #line 158 "C:\Users\YVTC\Desktop\單晶片微控制器(一)\0522\HT24.c"
 158  0000              _ReadByte .section 'code'
 158  0000              _ReadByte proc
 159  0000              #line 159 "C:\Users\YVTC\Desktop\單晶片微控制器(一)\0522\HT24.c"
 159  0000  3393        	set [19].7
 159  0001  1F00     E  	clr rb
 158  0002              #line 158 "C:\Users\YVTC\Desktop\單晶片微控制器(一)\0522\HT24.c"
 158  0002  0F80        	mov a,128
 158  0003  0080     E  	mov rc,a
 158  0004  1F00     E  	clr ra
 158  0005              _L15:
 161  0005              #line 161 "C:\Users\YVTC\Desktop\單晶片微控制器(一)\0522\HT24.c"
 161  0005  3312        	set [18].6
 161  0006              ;# 161 "C:\Users\YVTC\Desktop\單晶片微控制器(一)\0522\HT24.c" 1
 161  0006              	IF 1>263690
 161  0006              ;# 161 "C:\Users\YVTC\Desktop\單晶片微控制器(一)\0522\HT24.c" 1
 161  0006              	ERRMESSAGE 'the value 1of the argument exceeds the maxinum 263690'
 161  0006              	ENDIF
 161  0006              ;# 161 "C:\Users\YVTC\Desktop\單晶片微控制器(一)\0522\HT24.c" 1
 161  0006              	IF 1<0
 161  0006              ;# 161 "C:\Users\YVTC\Desktop\單晶片微控制器(一)\0522\HT24.c" 1
 161  0006              	ERRMESSAGE 'the value 1 of the argument exceeds the mininum 0'
 161  0006              	ENDIF
 161  0006              ;# 161 "C:\Users\YVTC\Desktop\單晶片微控制器(一)\0522\HT24.c" 1
 161  0006              	IF 1==0
"File: HT24.c        Assembler  Version HGASM0202      Page 17

 161  0006              ;# 161 "C:\Users\YVTC\Desktop\單晶片微控制器(一)\0522\HT24.c" 1
 161  0006              	JMP $
 161  0006              	ENDIF
 161  0006              ;# 161 "C:\Users\YVTC\Desktop\單晶片微控制器(一)\0522\HT24.c" 1
 161  0006              	IF (1>=1) AND (1<( 4 + __PBP__ * 2))
 161  0006              ;# 161 "C:\Users\YVTC\Desktop\單晶片微控制器(一)\0522\HT24.c" 1
 161  0006  0000        	NOP
 161  0007              	ENDIF
 161  0007              ;# 161 "C:\Users\YVTC\Desktop\單晶片微控制器(一)\0522\HT24.c" 1
 161  0007              	IF (1>=2) AND (1<( 4 + __PBP__ * 2))
 161  0007              ;# 161 "C:\Users\YVTC\Desktop\單晶片微控制器(一)\0522\HT24.c" 1
 161  0007              	NOP
 161  0007              	ENDIF
 161  0007              ;# 161 "C:\Users\YVTC\Desktop\單晶片微控制器(一)\0522\HT24.c" 1
 161  0007              	IF (1>=3) AND (1<( 4 + __PBP__ * 2))
 161  0007              ;# 161 "C:\Users\YVTC\Desktop\單晶片微控制器(一)\0522\HT24.c" 1
 161  0007              	NOP
 161  0007              	ENDIF
 161  0007              ;# 161 "C:\Users\YVTC\Desktop\單晶片微控制器(一)\0522\HT24.c" 1
 161  0007              	IF (1>=4) AND (1<( 4 + __PBP__ * 2)) AND ( __PBP__ > 0 )
 161  0007              ;# 161 "C:\Users\YVTC\Desktop\單晶片微控制器(一)\0522\HT24.c" 1
 161  0007              	NOP
 161  0007              	ENDIF
 161  0007              ;# 161 "C:\Users\YVTC\Desktop\單晶片微控制器(一)\0522\HT24.c" 1
 161  0007              	IF (1>=5) AND (1<( 4 + __PBP__ * 2)) AND ( __PBP__ > 0 )
 161  0007              ;# 161 "C:\Users\YVTC\Desktop\單晶片微控制器(一)\0522\HT24.c" 1
 161  0007              	NOP
 161  0007              	ENDIF
 161  0007              ;# 161 "C:\Users\YVTC\Desktop\單晶片微控制器(一)\0522\HT24.c" 1
 161  0007              	IF (1>=6) AND (1<( 4 + __PBP__ * 2))  AND ( __PBP__ > 1 )
 161  0007              ;# 161 "C:\Users\YVTC\Desktop\單晶片微控制器(一)\0522\HT24.c" 1
 161  0007              	NOP
 161  0007              	ENDIF
 161  0007              ;# 161 "C:\Users\YVTC\Desktop\單晶片微控制器(一)\0522\HT24.c" 1
 161  0007              	IF (1>=7) AND (1<( 4 + __PBP__ * 2))  AND ( __PBP__ > 1 )
 161  0007              ;# 161 "C:\Users\YVTC\Desktop\單晶片微控制器(一)\0522\HT24.c" 1
 161  0007              	NOP
 161  0007              	ENDIF
 161  0007              ;# 161 "C:\Users\YVTC\Desktop\單晶片微控制器(一)\0522\HT24.c" 1
 161  0007              	IF (1>=8) AND (1<( 4 + __PBP__ * 2))  AND ( __PBP__ > 2 )
 161  0007              ;# 161 "C:\Users\YVTC\Desktop\單晶片微控制器(一)\0522\HT24.c" 1
 161  0007              	NOP
 161  0007              	ENDIF
 161  0007              ;# 161 "C:\Users\YVTC\Desktop\單晶片微控制器(一)\0522\HT24.c" 1
 161  0007              	IF (1==9)  AND ( __PBP__ > 2 )
 161  0007              ;# 161 "C:\Users\YVTC\Desktop\單晶片微控制器(一)\0522\HT24.c" 1
 161  0007              	NOP
 161  0007              	ENDIF
 161  0007              ;# 161 "C:\Users\YVTC\Desktop\單晶片微控制器(一)\0522\HT24.c" 1
 161  0007              	IF (1< ( 8 + __PBP__ * 2)) AND (1>( 3 + __PBP__ * 2))
 161  0007              ;# 161 "C:\Users\YVTC\Desktop\單晶片微控制器(一)\0522\HT24.c" 1
 161  0007              	fcall __DELAY3 + ( 7 + __PBP__ * 2) -1
 161  0007              	ENDIF
 161  0007              ;# 161 "C:\Users\YVTC\Desktop\單晶片微控制器(一)\0522\HT24.c" 1
 161  0007              	IF (1< ( 0404h + __PBP__ * 2)) AND (1>( 7 + __PBP__ * 2))
 161  0007              ;# 161 "C:\Users\YVTC\Desktop\單晶片微控制器(一)\0522\HT24.c" 1
 161  0007              	MOV A,(1-( 4 + __PBP__ * 2))/4
 161  0007              ;# 161 "C:\Users\YVTC\Desktop\單晶片微控制器(一)\0522\HT24.c" 1
 161  0007              	fcall __DELAYX3 + 3 -((1-( 4 + __PBP__ * 2)) MOD 4) 
 161  0007              	ENDIF
"File: HT24.c        Assembler  Version HGASM0202      Page 18

 161  0007              ;# 161 "C:\Users\YVTC\Desktop\單晶片微控制器(一)\0522\HT24.c" 1
 161  0007              	IF (1< ( 040bh + __PBP__ * 2)) AND (1> ( 0403h + __PBP__ * 2))
 161  0007              ;# 161 "C:\Users\YVTC\Desktop\單晶片微控制器(一)\0522\HT24.c" 1
 161  0007              	MOV A,0 
 161  0007              ;# 161 "C:\Users\YVTC\Desktop\單晶片微控制器(一)\0522\HT24.c" 1
 161  0007              	fcall __DELAYX6 + ( 040ah + __PBP__ * 2) -1
 161  0007              	ENDIF
 161  0007              ;# 161 "C:\Users\YVTC\Desktop\單晶片微控制器(一)\0522\HT24.c" 1
 161  0007              	IF (1 >= ( 040bh + __PBP__ * 2)) AND ((((1-( 9 + __PBP__ * 2))%0402h)/4+1)>256)
 161  0007              ;# 161 "C:\Users\YVTC\Desktop\單晶片微控制器(一)\0522\HT24.c" 1
 161  0007              	MOV A,(1-( 9 + __PBP__ * 2))/0402h
 161  0007              ;# 161 "C:\Users\YVTC\Desktop\單晶片微控制器(一)\0522\HT24.c" 1
 161  0007              	MOV _builtin_holtek_delay_2,A
 161  0007              ;# 161 "C:\Users\YVTC\Desktop\單晶片微控制器(一)\0522\HT24.c" 1
 161  0007              	MOV A,0
 161  0007              ;# 161 "C:\Users\YVTC\Desktop\單晶片微控制器(一)\0522\HT24.c" 1
 161  0007              	fcall __DELAYY5 +5- (((1-( 9 + __PBP__ * 2))%0402h)%6) 
 161  0007              	ENDIF
 161  0007              ;# 161 "C:\Users\YVTC\Desktop\單晶片微控制器(一)\0522\HT24.c" 1
 161  0007              	IF (1 >= ( 040bh + __PBP__ * 2)) AND ((((1-( 9 + __PBP__ * 2))%0402h)/4+1)<=256)
 161  0007              ;# 161 "C:\Users\YVTC\Desktop\單晶片微控制器(一)\0522\HT24.c" 1
 161  0007              	MOV A,(1-( 9 + __PBP__ * 2))/0402h
 161  0007              ;# 161 "C:\Users\YVTC\Desktop\單晶片微控制器(一)\0522\HT24.c" 1
 161  0007              	MOV _builtin_holtek_delay_2,A
 161  0007              ;# 161 "C:\Users\YVTC\Desktop\單晶片微控制器(一)\0522\HT24.c" 1
 161  0007              	MOV A,((1-( 9 + __PBP__ * 2))%0402h)/4+1
 161  0007              ;# 161 "C:\Users\YVTC\Desktop\單晶片微控制器(一)\0522\HT24.c" 1
 161  0007              	fcall __DELAYY3 +3-(((1-( 9 + __PBP__ * 2))%0402h)%4) 
 161  0007              	ENDIF
 162  0007              #line 162 "C:\Users\YVTC\Desktop\單晶片微控制器(一)\0522\HT24.c"
 162  0007  3B92        	snz [18].7
 162  0008  2800     R  	jmp _L13
 162  0009  0700     E  	mov a,rc
 162  000A  0580     E  	orm a,ra
 162  000B              _L13:
 163  000B              #line 163 "C:\Users\YVTC\Desktop\單晶片微控制器(一)\0522\HT24.c"
 163  000B  3712        	clr [18].6
 163  000C              ;# 163 "C:\Users\YVTC\Desktop\單晶片微控制器(一)\0522\HT24.c" 1
 163  000C              	IF 1>263690
 163  000C              ;# 163 "C:\Users\YVTC\Desktop\單晶片微控制器(一)\0522\HT24.c" 1
 163  000C              	ERRMESSAGE 'the value 1of the argument exceeds the maxinum 263690'
 163  000C              	ENDIF
 163  000C              ;# 163 "C:\Users\YVTC\Desktop\單晶片微控制器(一)\0522\HT24.c" 1
 163  000C              	IF 1<0
 163  000C              ;# 163 "C:\Users\YVTC\Desktop\單晶片微控制器(一)\0522\HT24.c" 1
 163  000C              	ERRMESSAGE 'the value 1 of the argument exceeds the mininum 0'
 163  000C              	ENDIF
 163  000C              ;# 163 "C:\Users\YVTC\Desktop\單晶片微控制器(一)\0522\HT24.c" 1
 163  000C              	IF 1==0
 163  000C              ;# 163 "C:\Users\YVTC\Desktop\單晶片微控制器(一)\0522\HT24.c" 1
 163  000C              	JMP $
 163  000C              	ENDIF
 163  000C              ;# 163 "C:\Users\YVTC\Desktop\單晶片微控制器(一)\0522\HT24.c" 1
 163  000C              	IF (1>=1) AND (1<( 4 + __PBP__ * 2))
 163  000C              ;# 163 "C:\Users\YVTC\Desktop\單晶片微控制器(一)\0522\HT24.c" 1
 163  000C  0000        	NOP
 163  000D              	ENDIF
 163  000D              ;# 163 "C:\Users\YVTC\Desktop\單晶片微控制器(一)\0522\HT24.c" 1
 163  000D              	IF (1>=2) AND (1<( 4 + __PBP__ * 2))
 163  000D              ;# 163 "C:\Users\YVTC\Desktop\單晶片微控制器(一)\0522\HT24.c" 1
"File: HT24.c        Assembler  Version HGASM0202      Page 19

 163  000D              	NOP
 163  000D              	ENDIF
 163  000D              ;# 163 "C:\Users\YVTC\Desktop\單晶片微控制器(一)\0522\HT24.c" 1
 163  000D              	IF (1>=3) AND (1<( 4 + __PBP__ * 2))
 163  000D              ;# 163 "C:\Users\YVTC\Desktop\單晶片微控制器(一)\0522\HT24.c" 1
 163  000D              	NOP
 163  000D              	ENDIF
 163  000D              ;# 163 "C:\Users\YVTC\Desktop\單晶片微控制器(一)\0522\HT24.c" 1
 163  000D              	IF (1>=4) AND (1<( 4 + __PBP__ * 2)) AND ( __PBP__ > 0 )
 163  000D              ;# 163 "C:\Users\YVTC\Desktop\單晶片微控制器(一)\0522\HT24.c" 1
 163  000D              	NOP
 163  000D              	ENDIF
 163  000D              ;# 163 "C:\Users\YVTC\Desktop\單晶片微控制器(一)\0522\HT24.c" 1
 163  000D              	IF (1>=5) AND (1<( 4 + __PBP__ * 2)) AND ( __PBP__ > 0 )
 163  000D              ;# 163 "C:\Users\YVTC\Desktop\單晶片微控制器(一)\0522\HT24.c" 1
 163  000D              	NOP
 163  000D              	ENDIF
 163  000D              ;# 163 "C:\Users\YVTC\Desktop\單晶片微控制器(一)\0522\HT24.c" 1
 163  000D              	IF (1>=6) AND (1<( 4 + __PBP__ * 2))  AND ( __PBP__ > 1 )
 163  000D              ;# 163 "C:\Users\YVTC\Desktop\單晶片微控制器(一)\0522\HT24.c" 1
 163  000D              	NOP
 163  000D              	ENDIF
 163  000D              ;# 163 "C:\Users\YVTC\Desktop\單晶片微控制器(一)\0522\HT24.c" 1
 163  000D              	IF (1>=7) AND (1<( 4 + __PBP__ * 2))  AND ( __PBP__ > 1 )
 163  000D              ;# 163 "C:\Users\YVTC\Desktop\單晶片微控制器(一)\0522\HT24.c" 1
 163  000D              	NOP
 163  000D              	ENDIF
 163  000D              ;# 163 "C:\Users\YVTC\Desktop\單晶片微控制器(一)\0522\HT24.c" 1
 163  000D              	IF (1>=8) AND (1<( 4 + __PBP__ * 2))  AND ( __PBP__ > 2 )
 163  000D              ;# 163 "C:\Users\YVTC\Desktop\單晶片微控制器(一)\0522\HT24.c" 1
 163  000D              	NOP
 163  000D              	ENDIF
 163  000D              ;# 163 "C:\Users\YVTC\Desktop\單晶片微控制器(一)\0522\HT24.c" 1
 163  000D              	IF (1==9)  AND ( __PBP__ > 2 )
 163  000D              ;# 163 "C:\Users\YVTC\Desktop\單晶片微控制器(一)\0522\HT24.c" 1
 163  000D              	NOP
 163  000D              	ENDIF
 163  000D              ;# 163 "C:\Users\YVTC\Desktop\單晶片微控制器(一)\0522\HT24.c" 1
 163  000D              	IF (1< ( 8 + __PBP__ * 2)) AND (1>( 3 + __PBP__ * 2))
 163  000D              ;# 163 "C:\Users\YVTC\Desktop\單晶片微控制器(一)\0522\HT24.c" 1
 163  000D              	fcall __DELAY3 + ( 7 + __PBP__ * 2) -1
 163  000D              	ENDIF
 163  000D              ;# 163 "C:\Users\YVTC\Desktop\單晶片微控制器(一)\0522\HT24.c" 1
 163  000D              	IF (1< ( 0404h + __PBP__ * 2)) AND (1>( 7 + __PBP__ * 2))
 163  000D              ;# 163 "C:\Users\YVTC\Desktop\單晶片微控制器(一)\0522\HT24.c" 1
 163  000D              	MOV A,(1-( 4 + __PBP__ * 2))/4
 163  000D              ;# 163 "C:\Users\YVTC\Desktop\單晶片微控制器(一)\0522\HT24.c" 1
 163  000D              	fcall __DELAYX3 + 3 -((1-( 4 + __PBP__ * 2)) MOD 4) 
 163  000D              	ENDIF
 163  000D              ;# 163 "C:\Users\YVTC\Desktop\單晶片微控制器(一)\0522\HT24.c" 1
 163  000D              	IF (1< ( 040bh + __PBP__ * 2)) AND (1> ( 0403h + __PBP__ * 2))
 163  000D              ;# 163 "C:\Users\YVTC\Desktop\單晶片微控制器(一)\0522\HT24.c" 1
 163  000D              	MOV A,0 
 163  000D              ;# 163 "C:\Users\YVTC\Desktop\單晶片微控制器(一)\0522\HT24.c" 1
 163  000D              	fcall __DELAYX6 + ( 040ah + __PBP__ * 2) -1
 163  000D              	ENDIF
 163  000D              ;# 163 "C:\Users\YVTC\Desktop\單晶片微控制器(一)\0522\HT24.c" 1
 163  000D              	IF (1 >= ( 040bh + __PBP__ * 2)) AND ((((1-( 9 + __PBP__ * 2))%0402h)/4+1)>256)
 163  000D              ;# 163 "C:\Users\YVTC\Desktop\單晶片微控制器(一)\0522\HT24.c" 1
 163  000D              	MOV A,(1-( 9 + __PBP__ * 2))/0402h
"File: HT24.c        Assembler  Version HGASM0202      Page 20

 163  000D              ;# 163 "C:\Users\YVTC\Desktop\單晶片微控制器(一)\0522\HT24.c" 1
 163  000D              	MOV _builtin_holtek_delay_2,A
 163  000D              ;# 163 "C:\Users\YVTC\Desktop\單晶片微控制器(一)\0522\HT24.c" 1
 163  000D              	MOV A,0
 163  000D              ;# 163 "C:\Users\YVTC\Desktop\單晶片微控制器(一)\0522\HT24.c" 1
 163  000D              	fcall __DELAYY5 +5- (((1-( 9 + __PBP__ * 2))%0402h)%6) 
 163  000D              	ENDIF
 163  000D              ;# 163 "C:\Users\YVTC\Desktop\單晶片微控制器(一)\0522\HT24.c" 1
 163  000D              	IF (1 >= ( 040bh + __PBP__ * 2)) AND ((((1-( 9 + __PBP__ * 2))%0402h)/4+1)<=256)
 163  000D              ;# 163 "C:\Users\YVTC\Desktop\單晶片微控制器(一)\0522\HT24.c" 1
 163  000D              	MOV A,(1-( 9 + __PBP__ * 2))/0402h
 163  000D              ;# 163 "C:\Users\YVTC\Desktop\單晶片微控制器(一)\0522\HT24.c" 1
 163  000D              	MOV _builtin_holtek_delay_2,A
 163  000D              ;# 163 "C:\Users\YVTC\Desktop\單晶片微控制器(一)\0522\HT24.c" 1
 163  000D              	MOV A,((1-( 9 + __PBP__ * 2))%0402h)/4+1
 163  000D              ;# 163 "C:\Users\YVTC\Desktop\單晶片微控制器(一)\0522\HT24.c" 1
 163  000D              	fcall __DELAYY3 +3-(((1-( 9 + __PBP__ * 2))%0402h)%4) 
 163  000D              	ENDIF
 164  000D              #line 164 "C:\Users\YVTC\Desktop\單晶片微控制器(一)\0522\HT24.c"
 164  000D  340A        	clr c
 164  000E  1B80     E  	rrc rc
 164  000F  1480     E  	inc rb
 165  0010              #line 165 "C:\Users\YVTC\Desktop\單晶片微控制器(一)\0522\HT24.c"
 165  0010  0700     E  	mov a,rb
 165  0011  0A08        	sub a,8
 165  0012  390A        	snz z
 165  0013  2800     R  	jmp _L15
 167  0014              #line 167 "C:\Users\YVTC\Desktop\單晶片微控制器(一)\0522\HT24.c"
 167  0014  0700     E  	mov a,ra
 167  0015  0003        	ret
 167  0016              _ReadByte endp
 167  0016              #line 167 "C:\Users\YVTC\Desktop\單晶片微控制器(一)\0522\HT24.c"
 167  0016              #pragma debug scope 1 1
 167  0016              public _I2C_SeqRandomRead
 167  0016              #pragma debug scope 9 1
 121  0016              #line 121 "C:\Users\YVTC\Desktop\單晶片微控制器(一)\0522\HT24.c"
 121  0000              _I2C_SeqRandomRead .section 'code'
 121  0000              _I2C_SeqRandomRead proc
 121  0000              public _I2C_SeqRandomRead_2
 121  0000  0009[           local _I2C_SeqRandomRead_2 db 9 dup(?)	; 5,4
            00
            ]
 121  0009              #pragma debug variable 10 9 _I2C_SeqRandomRead_2+0 "Address"
 121  0009              #pragma debug pointer 42 8 9
 121  0009              #pragma debug pointer 42 8 9
 121  0009              #pragma debug variable 42 9 _I2C_SeqRandomRead_2+2 "ptr"
 121  0009              #pragma debug variable 8 9 _I2C_SeqRandomRead_2+4 "Count"
 122  0009              #line 122 "C:\Users\YVTC\Desktop\單晶片微控制器(一)\0522\HT24.c"
 122  0000              	fcall _I2C_START
 123  0007              #line 123 "C:\Users\YVTC\Desktop\單晶片微控制器(一)\0522\HT24.c"
 123  0007  0F00        	mov a,0
 123  0008              	fcall _I2C_DeviceSelect
 124  000F              #line 124 "C:\Users\YVTC\Desktop\單晶片微控制器(一)\0522\HT24.c"
 124  000F  0700     R  	mov a,_I2C_SeqRandomRead_2[0]
 124  0010  0080     R  	mov _I2C_SetAddress_2[0],a
 124  0011  0700     R  	mov a,_I2C_SeqRandomRead_2[1]
 124  0012  0080     R  	mov _I2C_SetAddress_2[1],a
 124  0013              	fcall _I2C_SetAddress
 125  001A              #line 125 "C:\Users\YVTC\Desktop\單晶片微控制器(一)\0522\HT24.c"
 125  001A              	fcall _I2C_START
"File: HT24.c        Assembler  Version HGASM0202      Page 21

 126  0021              #line 126 "C:\Users\YVTC\Desktop\單晶片微控制器(一)\0522\HT24.c"
 126  0021  0F01        	mov a,1
 126  0022              	fcall _I2C_DeviceSelect
 126  0029  0700     R  	mov a,_I2C_SeqRandomRead_2[4]
 126  002A  0080     R  	mov _I2C_SeqRandomRead_2[7],a
 126  002B  1F00     R  	clr _I2C_SeqRandomRead_2[8]
 127  002C              #line 127 "C:\Users\YVTC\Desktop\單晶片微控制器(一)\0522\HT24.c"
 127  002C  1F00     R  	clr _I2C_SeqRandomRead_2[5]
 127  002D  1F00     R  	clr _I2C_SeqRandomRead_2[6]
 127  002E              _L20:
 127  002E              #line 127 "C:\Users\YVTC\Desktop\單晶片微控制器(一)\0522\HT24.c"
 127  002E  0700     R  	mov a,_I2C_SeqRandomRead_2[5]
 127  002F  0200     R  	sub a,_I2C_SeqRandomRead_2[7]
 127  0030  0700     R  	mov a,_I2C_SeqRandomRead_2[6]
 127  0031  1200     R  	sbc a,_I2C_SeqRandomRead_2[8]
 127  0032  3F0A        	sz cz
 127  0033  2800     R  	jmp _L24
 128  0034              #line 128 "C:\Users\YVTC\Desktop\單晶片微控制器(一)\0522\HT24.c"
 128  0034              	fcall _ReadByte
 128  003B  0080     E  	mov ra,a
 128  003C  0700     R  	mov a,_I2C_SeqRandomRead_2[5]
 128  003D  0300     R  	add a,_I2C_SeqRandomRead_2[2]
 128  003E  0083        	mov mp,a
 128  003F  0700     R  	mov a,_I2C_SeqRandomRead_2[6]
 128  0040  1300     R  	adc a,_I2C_SeqRandomRead_2[3]
 128  0041  0084        	mov sbp,a
 128  0042  0700     E  	mov a,ra
 128  0043  0082        	mov ir,a
 129  0044              #line 129 "C:\Users\YVTC\Desktop\單晶片微控制器(一)\0522\HT24.c"
 129  0044  0FFF        	mov a,255
 129  0045  0300     R  	add a,_I2C_SeqRandomRead_2[4]
 129  0046  0080     E  	mov rb,a
 129  0047  0FFF        	mov a,255
 129  0048  1F00     E  	clr rc
 129  0049  1380     E  	adcm a,rc
 129  004A  0700     R  	mov a,_I2C_SeqRandomRead_2[5]
 129  004B  0200     E  	sub a,rb
 129  004C  0700     R  	mov a,_I2C_SeqRandomRead_2[6]
 129  004D  1200     E  	sbc a,rc
 129  004E  3B0A        	snz cz
 129  004F  2800     R  	jmp _L21
 129  0050  3392        	set [18].7
 129  0051  2800     R  	jmp _L22
 129  0052              _L21:
 129  0052  3792        	clr [18].7
 129  0053              _L22:
 130  0053              #line 130 "C:\Users\YVTC\Desktop\單晶片微控制器(一)\0522\HT24.c"
 130  0053  3793        	clr [19].7
 131  0054              #line 131 "C:\Users\YVTC\Desktop\單晶片微控制器(一)\0522\HT24.c"
 131  0054  3312        	set [18].6
 131  0055  3712        	clr [18].6
 131  0056  1480     R  	inc _I2C_SeqRandomRead_2[5]
 131  0057  3D0A        	sz z
 131  0058  1480     R  	inc _I2C_SeqRandomRead_2[6]
 131  0059  2800     R  	jmp _L20
 131  005A              _L24:
 133  005A              #line 133 "C:\Users\YVTC\Desktop\單晶片微控制器(一)\0522\HT24.c"
 133  005A              	fcall _I2C_STOP
 133  0061  0003        	ret
 133  0062              _I2C_SeqRandomRead endp
"File: HT24.c        Assembler  Version HGASM0202      Page 22

 133  0062              #line 133 "C:\Users\YVTC\Desktop\單晶片微控制器(一)\0522\HT24.c"
 133  0062              #pragma debug scope 1 1
 133  0062              ___pgc equ [43]
 133  0062              ___ph equ [46]
 133  0062              ___pg equ [42]
 133  0062              public _LCMWrite
 133  0062              #pragma debug scope 10 1
 178  0062              #line 178 "C:\Users\YVTC\Desktop\單晶片微控制器(一)\0522\HT24.c"
 178  0000              _LCMWrite .section 'code'
 178  0000              _LCMWrite proc
 178  0000              public _LCMWrite_2
 178  0000  0002[           local _LCMWrite_2 db 2 dup(?)	; 1,1
            00
            ]
 178  0000  0080     R  	mov _LCMWrite_2[1],a
 178  0001              #pragma debug variable 8 10 _LCMWrite_2+1 "DCFlag"
 178  0001              #pragma debug variable 8 10 _LCMWrite_2+0 "CD"
 179  0001              #line 179 "C:\Users\YVTC\Desktop\單晶片微控制器(一)\0522\HT24.c"
 179  0001  1FAB        	set [43]
 180  0002              #line 180 "C:\Users\YVTC\Desktop\單晶片微控制器(一)\0522\HT24.c"
 180  0002  342E        	clr [46].0
 180  0003  30AE        	set [46].1
 181  0004              #line 181 "C:\Users\YVTC\Desktop\單晶片微控制器(一)\0522\HT24.c"
 181  0004              ;# 181 "C:\Users\YVTC\Desktop\單晶片微控制器(一)\0522\HT24.c" 1
 181  0004  0000        	nop
 181  0005              _L27:
 183  0005              #line 183 "C:\Users\YVTC\Desktop\單晶片微控制器(一)\0522\HT24.c"
 183  0005  312E        	set [46].2
 183  0006              ;# 183 "C:\Users\YVTC\Desktop\單晶片微控制器(一)\0522\HT24.c" 1
 183  0006  0000        	nop
 184  0007              #line 184 "C:\Users\YVTC\Desktop\單晶片微控制器(一)\0522\HT24.c"
 184  0007  072A        	mov a,[42]
 184  0008  0080     E  	mov ra,a
 185  0009              #line 185 "C:\Users\YVTC\Desktop\單晶片微控制器(一)\0522\HT24.c"
 185  0009  352E        	clr [46].2
 186  000A              #line 186 "C:\Users\YVTC\Desktop\單晶片微控制器(一)\0522\HT24.c"
 186  000A  3C00     E  	sz ra.7
 186  000B  2800     R  	jmp _L27
 187  000C              #line 187 "C:\Users\YVTC\Desktop\單晶片微控制器(一)\0522\HT24.c"
 187  000C  1F2B        	clr [43]
 188  000D              #line 188 "C:\Users\YVTC\Desktop\單晶片微控制器(一)\0522\HT24.c"
 188  000D  34AE        	clr [46].1
 189  000E              #line 189 "C:\Users\YVTC\Desktop\單晶片微控制器(一)\0522\HT24.c"
 189  000E  0700     R  	mov a,_LCMWrite_2[1]
 189  000F  0E01        	and a,1
 189  0010  0080     E  	mov rb,a
 189  0011  342E        	clr [46].0
 189  0012  0700     E  	mov a,rb
 189  0013  05AE        	orm a,[46]
 190  0014              #line 190 "C:\Users\YVTC\Desktop\單晶片微控制器(一)\0522\HT24.c"
 190  0014  0700     R  	mov a,_LCMWrite_2[0]
 190  0015  00AA        	mov [42],a
 191  0016              #line 191 "C:\Users\YVTC\Desktop\單晶片微控制器(一)\0522\HT24.c"
 191  0016  312E        	set [46].2
 191  0017              ;# 191 "C:\Users\YVTC\Desktop\單晶片微控制器(一)\0522\HT24.c" 1
 191  0017  0000        	nop
 191  0018  352E        	clr [46].2
 193  0019              #line 193 "C:\Users\YVTC\Desktop\單晶片微控制器(一)\0522\HT24.c"
 193  0019  0700     E  	mov a,ra
 193  001A  0003        	ret
"File: HT24.c        Assembler  Version HGASM0202      Page 23

 193  001B              _LCMWrite endp
 193  001B              #line 193 "C:\Users\YVTC\Desktop\單晶片微控制器(一)\0522\HT24.c"
 193  001B              #pragma debug scope 1 1
 193  001B              ___pec equ [35]
 193  001B              ___pepu equ [33]
 193  001B              ___pe equ [34]
 193  001B              public _ScanKey
 193  001B              #pragma debug scope 11 1
 195  001B              #line 195 "C:\Users\YVTC\Desktop\單晶片微控制器(一)\0522\HT24.c"
 195  0000              _ScanKey .section 'code'
 195  0000              _ScanKey proc
 196  0000              #line 196 "C:\Users\YVTC\Desktop\單晶片微控制器(一)\0522\HT24.c"
 196  0000  0FF0        	mov a,240
 196  0001  00A3        	mov [35],a
 196  0002  0FF0        	mov a,240
 196  0003  00A1        	mov [33],a
 197  0004              #line 197 "C:\Users\YVTC\Desktop\單晶片微控制器(一)\0522\HT24.c"
 197  0004  0FFE        	mov a,254
 197  0005  00A2        	mov [34],a
 195  0006              #line 195 "C:\Users\YVTC\Desktop\單晶片微控制器(一)\0522\HT24.c"
 195  0006  1F00     E  	clr ra
 195  0007              _L33:
 199  0007              #line 199 "C:\Users\YVTC\Desktop\單晶片微控制器(一)\0522\HT24.c"
 199  0007  3BA2        	snz [34].7
 199  0008  2800     R  	jmp _L29
 201  0009              #line 201 "C:\Users\YVTC\Desktop\單晶片微控制器(一)\0522\HT24.c"
 201  0009  3F22        	sz [34].6
 201  000A  2800     R  	jmp _L30
 200  000B              #line 200 "C:\Users\YVTC\Desktop\單晶片微控制器(一)\0522\HT24.c"
 200  000B  1480     E  	inc ra
 200  000C  2800     R  	jmp _L29
 200  000D              _L30:
 203  000D              #line 203 "C:\Users\YVTC\Desktop\單晶片微控制器(一)\0522\HT24.c"
 203  000D  3EA2        	sz [34].5
 203  000E  2800     R  	jmp _L31
 202  000F              #line 202 "C:\Users\YVTC\Desktop\單晶片微控制器(一)\0522\HT24.c"
 202  000F  0F02        	mov a,2
 202  0010  0380     E  	addm a,ra
 202  0011  2800     R  	jmp _L29
 202  0012              _L31:
 205  0012              #line 205 "C:\Users\YVTC\Desktop\單晶片微控制器(一)\0522\HT24.c"
 205  0012  3E22        	sz [34].4
 205  0013  2800     R  	jmp _L32
 204  0014              #line 204 "C:\Users\YVTC\Desktop\單晶片微控制器(一)\0522\HT24.c"
 204  0014  0F03        	mov a,3
 204  0015  0380     E  	addm a,ra
 204  0016  2800     R  	jmp _L29
 204  0017              _L32:
 206  0017              #line 206 "C:\Users\YVTC\Desktop\單晶片微控制器(一)\0522\HT24.c"
 206  0017  0F04        	mov a,4
 206  0018  0380     E  	addm a,ra
 207  0019              #line 207 "C:\Users\YVTC\Desktop\單晶片微控制器(一)\0522\HT24.c"
 207  0019  0722        	mov a,[34]
 207  001A  03A2        	addm a,[34]
 207  001B  3022        	set [34].0
 198  001C              #line 198 "C:\Users\YVTC\Desktop\單晶片微控制器(一)\0522\HT24.c"
 198  001C  0700     E  	mov a,ra
 198  001D  0A10        	sub a,16
 198  001E  390A        	snz z
 198  001F  2800     R  	jmp _L33
"File: HT24.c        Assembler  Version HGASM0202      Page 24

 198  0020              _L29:
 210  0020              #line 210 "C:\Users\YVTC\Desktop\單晶片微控制器(一)\0522\HT24.c"
 210  0020  0700     E  	mov a,ra
 210  0021  0003        	ret
 210  0022              _ScanKey endp
 210  0022              #line 210 "C:\Users\YVTC\Desktop\單晶片微控制器(一)\0522\HT24.c"
 210  0022              #pragma debug scope 1 1
 210  0022              public _Delayms
 210  0022              #pragma debug scope 12 1
 212  0022              #line 212 "C:\Users\YVTC\Desktop\單晶片微控制器(一)\0522\HT24.c"
 212  0000              _Delayms .section 'code'
 212  0000              _Delayms proc
 212  0000              public _Delayms_2
 212  0000  0002[           local _Delayms_2 db 2 dup(?)	; 2,0
            00
            ]
 212  0002              #pragma debug variable 10 12 _Delayms_2+0 "del"
 213  0002              #line 213 "C:\Users\YVTC\Desktop\單晶片微控制器(一)\0522\HT24.c"
 213  0000  1F00     E  	clr rb
 213  0001  1F00     E  	clr rc
 213  0002  2800     R  	jmp _L38
 213  0003              _L39:
 213  0003              #line 213 "C:\Users\YVTC\Desktop\單晶片微控制器(一)\0522\HT24.c"
 213  0003              ;# 213 "C:\Users\YVTC\Desktop\單晶片微控制器(一)\0522\HT24.c" 1
 213  0003              	IF 2000>263690
 213  0003              ;# 213 "C:\Users\YVTC\Desktop\單晶片微控制器(一)\0522\HT24.c" 1
 213  0003              	ERRMESSAGE 'the value 2000of the argument exceeds the maxinum 263690'
 213  0003              	ENDIF
 213  0003              ;# 213 "C:\Users\YVTC\Desktop\單晶片微控制器(一)\0522\HT24.c" 1
 213  0003              	IF 2000<0
 213  0003              ;# 213 "C:\Users\YVTC\Desktop\單晶片微控制器(一)\0522\HT24.c" 1
 213  0003              	ERRMESSAGE 'the value 2000 of the argument exceeds the mininum 0'
 213  0003              	ENDIF
 213  0003              ;# 213 "C:\Users\YVTC\Desktop\單晶片微控制器(一)\0522\HT24.c" 1
 213  0003              	IF 2000==0
 213  0003              ;# 213 "C:\Users\YVTC\Desktop\單晶片微控制器(一)\0522\HT24.c" 1
 213  0003              	JMP $
 213  0003              	ENDIF
 213  0003              ;# 213 "C:\Users\YVTC\Desktop\單晶片微控制器(一)\0522\HT24.c" 1
 213  0003              	IF (2000>=1) AND (2000<( 4 + __PBP__ * 2))
 213  0003              ;# 213 "C:\Users\YVTC\Desktop\單晶片微控制器(一)\0522\HT24.c" 1
 213  0003              	NOP
 213  0003              	ENDIF
 213  0003              ;# 213 "C:\Users\YVTC\Desktop\單晶片微控制器(一)\0522\HT24.c" 1
 213  0003              	IF (2000>=2) AND (2000<( 4 + __PBP__ * 2))
 213  0003              ;# 213 "C:\Users\YVTC\Desktop\單晶片微控制器(一)\0522\HT24.c" 1
 213  0003              	NOP
 213  0003              	ENDIF
 213  0003              ;# 213 "C:\Users\YVTC\Desktop\單晶片微控制器(一)\0522\HT24.c" 1
 213  0003              	IF (2000>=3) AND (2000<( 4 + __PBP__ * 2))
 213  0003              ;# 213 "C:\Users\YVTC\Desktop\單晶片微控制器(一)\0522\HT24.c" 1
 213  0003              	NOP
 213  0003              	ENDIF
 213  0003              ;# 213 "C:\Users\YVTC\Desktop\單晶片微控制器(一)\0522\HT24.c" 1
 213  0003              	IF (2000>=4) AND (2000<( 4 + __PBP__ * 2)) AND ( __PBP__ > 0 )
 213  0003              ;# 213 "C:\Users\YVTC\Desktop\單晶片微控制器(一)\0522\HT24.c" 1
 213  0003              	NOP
 213  0003              	ENDIF
 213  0003              ;# 213 "C:\Users\YVTC\Desktop\單晶片微控制器(一)\0522\HT24.c" 1
 213  0003              	IF (2000>=5) AND (2000<( 4 + __PBP__ * 2)) AND ( __PBP__ > 0 )
"File: HT24.c        Assembler  Version HGASM0202      Page 25

 213  0003              ;# 213 "C:\Users\YVTC\Desktop\單晶片微控制器(一)\0522\HT24.c" 1
 213  0003              	NOP
 213  0003              	ENDIF
 213  0003              ;# 213 "C:\Users\YVTC\Desktop\單晶片微控制器(一)\0522\HT24.c" 1
 213  0003              	IF (2000>=6) AND (2000<( 4 + __PBP__ * 2))  AND ( __PBP__ > 1 )
 213  0003              ;# 213 "C:\Users\YVTC\Desktop\單晶片微控制器(一)\0522\HT24.c" 1
 213  0003              	NOP
 213  0003              	ENDIF
 213  0003              ;# 213 "C:\Users\YVTC\Desktop\單晶片微控制器(一)\0522\HT24.c" 1
 213  0003              	IF (2000>=7) AND (2000<( 4 + __PBP__ * 2))  AND ( __PBP__ > 1 )
 213  0003              ;# 213 "C:\Users\YVTC\Desktop\單晶片微控制器(一)\0522\HT24.c" 1
 213  0003              	NOP
 213  0003              	ENDIF
 213  0003              ;# 213 "C:\Users\YVTC\Desktop\單晶片微控制器(一)\0522\HT24.c" 1
 213  0003              	IF (2000>=8) AND (2000<( 4 + __PBP__ * 2))  AND ( __PBP__ > 2 )
 213  0003              ;# 213 "C:\Users\YVTC\Desktop\單晶片微控制器(一)\0522\HT24.c" 1
 213  0003              	NOP
 213  0003              	ENDIF
 213  0003              ;# 213 "C:\Users\YVTC\Desktop\單晶片微控制器(一)\0522\HT24.c" 1
 213  0003              	IF (2000==9)  AND ( __PBP__ > 2 )
 213  0003              ;# 213 "C:\Users\YVTC\Desktop\單晶片微控制器(一)\0522\HT24.c" 1
 213  0003              	NOP
 213  0003              	ENDIF
 213  0003              ;# 213 "C:\Users\YVTC\Desktop\單晶片微控制器(一)\0522\HT24.c" 1
 213  0003              	IF (2000< ( 8 + __PBP__ * 2)) AND (2000>( 3 + __PBP__ * 2))
 213  0003              ;# 213 "C:\Users\YVTC\Desktop\單晶片微控制器(一)\0522\HT24.c" 1
 213  0003              	fcall __DELAY3 + ( 7 + __PBP__ * 2) -2000
 213  0003              	ENDIF
 213  0003              ;# 213 "C:\Users\YVTC\Desktop\單晶片微控制器(一)\0522\HT24.c" 1
 213  0003              	IF (2000< ( 0404h + __PBP__ * 2)) AND (2000>( 7 + __PBP__ * 2))
 213  0003              ;# 213 "C:\Users\YVTC\Desktop\單晶片微控制器(一)\0522\HT24.c" 1
 213  0003              	MOV A,(2000-( 4 + __PBP__ * 2))/4
 213  0003              ;# 213 "C:\Users\YVTC\Desktop\單晶片微控制器(一)\0522\HT24.c" 1
 213  0003              	fcall __DELAYX3 + 3 -((2000-( 4 + __PBP__ * 2)) MOD 4) 
 213  0003              	ENDIF
 213  0003              ;# 213 "C:\Users\YVTC\Desktop\單晶片微控制器(一)\0522\HT24.c" 1
 213  0003              	IF (2000< ( 040bh + __PBP__ * 2)) AND (2000> ( 0403h + __PBP__ * 2))
 213  0003              ;# 213 "C:\Users\YVTC\Desktop\單晶片微控制器(一)\0522\HT24.c" 1
 213  0003              	MOV A,0 
 213  0003              ;# 213 "C:\Users\YVTC\Desktop\單晶片微控制器(一)\0522\HT24.c" 1
 213  0003              	fcall __DELAYX6 + ( 040ah + __PBP__ * 2) -2000
 213  0003              	ENDIF
 213  0003              ;# 213 "C:\Users\YVTC\Desktop\單晶片微控制器(一)\0522\HT24.c" 1
 213  0003              	IF (2000 >= ( 040bh + __PBP__ * 2)) AND ((((2000-( 9 + __PBP__ * 2))%0402h)/4+1)>256)
 213  0003              ;# 213 "C:\Users\YVTC\Desktop\單晶片微控制器(一)\0522\HT24.c" 1
 213  0003              	MOV A,(2000-( 9 + __PBP__ * 2))/0402h
 213  0003              ;# 213 "C:\Users\YVTC\Desktop\單晶片微控制器(一)\0522\HT24.c" 1
 213  0003              	MOV _builtin_holtek_delay_2,A
 213  0003              ;# 213 "C:\Users\YVTC\Desktop\單晶片微控制器(一)\0522\HT24.c" 1
 213  0003              	MOV A,0
 213  0003              ;# 213 "C:\Users\YVTC\Desktop\單晶片微控制器(一)\0522\HT24.c" 1
 213  0003              	fcall __DELAYY5 +5- (((2000-( 9 + __PBP__ * 2))%0402h)%6) 
 213  0003              	ENDIF
 213  0003              ;# 213 "C:\Users\YVTC\Desktop\單晶片微控制器(一)\0522\HT24.c" 1
 213  0003              	IF (2000 >= ( 040bh + __PBP__ * 2)) AND ((((2000-( 9 + __PBP__ * 2))%0402h)/4+1)<=256)
 213  0003              ;# 213 "C:\Users\YVTC\Desktop\單晶片微控制器(一)\0522\HT24.c" 1
 213  0003  0F01        	MOV A,(2000-( 9 + __PBP__ * 2))/0402h
 213  0004              ;# 213 "C:\Users\YVTC\Desktop\單晶片微控制器(一)\0522\HT24.c" 1
 213  0004  0080     E  	MOV _builtin_holtek_delay_2,A
 213  0005              ;# 213 "C:\Users\YVTC\Desktop\單晶片微控制器(一)\0522\HT24.c" 1
"File: HT24.c        Assembler  Version HGASM0202      Page 26

 213  0005  0FF1        	MOV A,((2000-( 9 + __PBP__ * 2))%0402h)/4+1
 213  0006              ;# 213 "C:\Users\YVTC\Desktop\單晶片微控制器(一)\0522\HT24.c" 1
 213  0006              	fcall __DELAYY3 +3-(((2000-( 9 + __PBP__ * 2))%0402h)%4) 
 213  000D              	ENDIF
 213  000D  1480     E  	inc rb
 213  000E  3D0A        	sz z
 213  000F  1480     E  	inc rc
 213  0010              _L38:
 213  0010  0700     E  	mov a,rb
 213  0011  0200     R  	sub a,_Delayms_2[0]
 213  0012  0700     E  	mov a,rc
 213  0013  1200     R  	sbc a,_Delayms_2[1]
 213  0014  3B0A        	snz cz
 213  0015  2800     R  	jmp _L39
 213  0016  0003        	ret
 213  0017              _Delayms endp
 213  0017              #line 213 "C:\Users\YVTC\Desktop\單晶片微控制器(一)\0522\HT24.c"
 213  0017              #pragma debug scope 1 1
 213  0017              public _Get3Keys
 213  0017              #pragma debug scope 13 1
  56  0017              #line 56 "C:\Users\YVTC\Desktop\單晶片微控制器(一)\0522\HT24.c"
  56  0000              _Get3Keys .section 'code'
  56  0000              _Get3Keys proc
  56  0000              public _Get3Keys_2
  56  0000  0004[           local _Get3Keys_2 db 4 dup(?)	; 2,2
            00
            ]
  56  0004              #pragma debug pointer 43 8 13
  56  0004              #pragma debug pointer 43 8 13
  56  0004              #pragma debug variable 43 13 _Get3Keys_2+0 "ptr"
  56  0004              #pragma debug variable 8 13 _Get3Keys_2+2 "key"
  56  0004              #pragma debug variable 8 13 _Get3Keys_2+3 "i"
  56  0000  1F00     R  	clr _Get3Keys_2[3]
  56  0001              _L43:
  58  0001              #line 58 "C:\Users\YVTC\Desktop\單晶片微控制器(一)\0522\HT24.c"
  58  0001              	fcall _ScanKey
  58  0008  0080     R  	mov _Get3Keys_2[2],a
  58  0009  0700     R  	mov a,_Get3Keys_2[2]
  58  000A  0A10        	sub a,16
  58  000B  3D0A        	sz z
  58  000C  2800     R  	jmp _L43
  59  000D              #line 59 "C:\Users\YVTC\Desktop\單晶片微控制器(一)\0522\HT24.c"
  59  000D  0F09        	mov a,9
  59  000E  0200     R  	sub a,_Get3Keys_2[2]
  59  000F  380A        	snz c
  59  0010  2800     R  	jmp _L44
  59  0011  0F02        	mov a,2
  59  0012  0200     R  	sub a,_Get3Keys_2[3]
  59  0013  380A        	snz c
  59  0014  2800     R  	jmp _L44
  60  0015              #line 60 "C:\Users\YVTC\Desktop\單晶片微控制器(一)\0522\HT24.c"
  60  0015  0700     R  	mov a,_Get3Keys_2[0]
  60  0016  0083        	mov mp,a
  60  0017  0700     R  	mov a,_Get3Keys_2[1]
  60  0018  0084        	mov sbp,a
  60  0019  0700     R  	mov a,_Get3Keys_2[2]
  60  001A  0082        	mov ir,a
  60  001B  1480     R  	inc _Get3Keys_2[0]
  60  001C  3D0A        	sz z
  60  001D  1480     R  	inc _Get3Keys_2[1]
"File: HT24.c        Assembler  Version HGASM0202      Page 27

  60  001E  1480     R  	inc _Get3Keys_2[3]
  61  001F              #line 61 "C:\Users\YVTC\Desktop\單晶片微控制器(一)\0522\HT24.c"
  61  001F  0700     R  	mov a,_Get3Keys_2[2]
  61  0020  0B30        	add a,48
  61  0021  0080     R  	mov _LCMWrite_2[0],a
  61  0022  0F01        	mov a,1
  61  0023              	fcall _LCMWrite
  61  002A              _L44:
  63  002A              #line 63 "C:\Users\YVTC\Desktop\單晶片微控制器(一)\0522\HT24.c"
  63  002A  0F0F        	mov a,15
  63  002B  0080     R  	mov _Delayms_2[0],a
  63  002C  1F00     R  	clr _Delayms_2[1]
  63  002D              	fcall _Delayms
  63  0034              _L46:
  63  0034              	fcall _ScanKey
  63  003B  0080     E  	mov ra,a
  63  003C  0700     E  	mov a,ra
  63  003D  0A10        	sub a,16
  63  003E  390A        	snz z
  63  003F  2800     R  	jmp _L46
  63  0040  0F0F        	mov a,15
  63  0041  0080     R  	mov _Delayms_2[0],a
  63  0042  1F00     R  	clr _Delayms_2[1]
  63  0043              	fcall _Delayms
  64  004A              #line 64 "C:\Users\YVTC\Desktop\單晶片微控制器(一)\0522\HT24.c"
  64  004A  0700     R  	mov a,_Get3Keys_2[2]
  64  004B  0A0F        	sub a,15
  64  004C  390A        	snz z
  64  004D  2800     R  	jmp _L47
  64  004E  0700     R  	mov a,_Get3Keys_2[3]
  64  004F  0A03        	sub a,3
  64  0050  390A        	snz z
  64  0051  2800     R  	jmp _L43
  64  0052  1F00     E  	clr ra
  64  0053  2800     R  	jmp _L48
  64  0054              _L47:
  65  0054              #line 65 "C:\Users\YVTC\Desktop\單晶片微控制器(一)\0522\HT24.c"
  65  0054  0700     R  	mov a,_Get3Keys_2[2]
  65  0055  0A0E        	sub a,14
  65  0056  390A        	snz z
  65  0057  2800     R  	jmp _L43
  65  0058  0F01        	mov a,1
  65  0059  0080     E  	mov ra,a
  65  005A              _L48:
  67  005A              #line 67 "C:\Users\YVTC\Desktop\單晶片微控制器(一)\0522\HT24.c"
  67  005A  0700     E  	mov a,ra
  67  005B  0003        	ret
  67  005C              _Get3Keys endp
  67  005C              #line 67 "C:\Users\YVTC\Desktop\單晶片微控制器(一)\0522\HT24.c"
  67  005C              #pragma debug scope 1 1
  67  005C              ___tm0al equ [98]
  67  005C              ___tm0ah equ [99]
  67  005C              ___tm0c0 equ [94]
  67  005C              public _Verify
  67  005C              #pragma debug scope 14 1
  69  005C              #line 69 "C:\Users\YVTC\Desktop\單晶片微控制器(一)\0522\HT24.c"
  69  0000              _Verify .section 'code'
  69  0000              _Verify proc
  69  0000              public _Verify_2
  69  0000  0005[           local _Verify_2 db 5 dup(?)	; 4,1
"File: HT24.c        Assembler  Version HGASM0202      Page 28

            00
            ]
  69  0005              #pragma debug pointer 44 8 14
  69  0005              #pragma debug pointer 44 8 14
  69  0005              #pragma debug variable 44 14 _Verify_2+0 "ptr1"
  69  0005              #pragma debug variable 44 14 _Verify_2+2 "ptr2"
  69  0005              #pragma debug variable 8 14 _Verify_2+4 "flag"
  69  0000  1F00     E  	clr rb
  69  0001  1F00     E  	clr rc
  69  0002  1F00     R  	clr _Verify_2[4]
  69  0003              _L54:
  71  0003              #line 71 "C:\Users\YVTC\Desktop\單晶片微控制器(一)\0522\HT24.c"
  71  0003  0700     E  	mov a,rb
  71  0004  0300     R  	add a,_Verify_2[0]
  71  0005  0083        	mov mp,a
  71  0006  0700     E  	mov a,rc
  71  0007  1300     R  	adc a,_Verify_2[1]
  71  0008  0084        	mov sbp,a
  71  0009              	fcall _Crom2Prom
  71  0010  0080     E  	mov rd,a
  71  0011  0700     E  	mov a,rb
  71  0012  0300     R  	add a,_Verify_2[2]
  71  0013  0083        	mov mp,a
  71  0014  0700     E  	mov a,rc
  71  0015  1300     R  	adc a,_Verify_2[3]
  71  0016  0084        	mov sbp,a
  71  0017              	fcall _Crom2Prom
  71  001E  0080     E  	mov ra,a
  71  001F  0700     E  	mov a,rd
  71  0020  0200     E  	sub a,ra
  71  0021  3D0A        	sz z
  71  0022  2800     R  	jmp _L52
  71  0023  1480     R  	inc _Verify_2[4]
  71  0024              _L52:
  71  0024  1480     E  	inc rb
  71  0025  3D0A        	sz z
  71  0026  1480     E  	inc rc
  70  0027              #line 70 "C:\Users\YVTC\Desktop\單晶片微控制器(一)\0522\HT24.c"
  70  0027  0700     E  	mov a,rb
  70  0028  0C04        	xor a,4
  70  0029  0500     E  	or a,rc
  70  002A  390A        	snz z
  70  002B  2800     R  	jmp _L54
  73  002C              #line 73 "C:\Users\YVTC\Desktop\單晶片微控制器(一)\0522\HT24.c"
  73  002C  0FC0        	mov a,192
  73  002D  0080     R  	mov _LCMWrite_2[0],a
  73  002E  0F00        	mov a,0
  73  002F              	fcall _LCMWrite
  74  0036              #line 74 "C:\Users\YVTC\Desktop\單晶片微控制器(一)\0522\HT24.c"
  74  0036  1080     R  	sz _Verify_2[4]
  74  0037  2800     R  	jmp _L55
  74  0038  1F00     R  	clr _Verify_2[4]
  74  0039  2800     R  	jmp _L56
  74  003A              _L55:
  74  003A  1F00     R  	clr _Verify_2[4]
  74  003B              _L57:
  75  003B              #line 75 "C:\Users\YVTC\Desktop\單晶片微控制器(一)\0522\HT24.c"
  75  003B  0F00     R  	mov a,low offset _Str4
  75  003C  0300     R  	add a,_Verify_2[4]
  75  003D  0083        	mov mp,a
"File: HT24.c        Assembler  Version HGASM0202      Page 29

  75  003E  0F00     R  	mov a,high offset _Str4
  75  003F  1F04        	clr sbp
  75  0040  1384        	adcm a,sbp
  75  0041              	fcall _Crom2Prom
  75  0048  0080     E  	mov ra,a
  75  0049  1E00     E  	snz ra
  75  004A  2800     R  	jmp _L61
  75  004B  1480     R  	inc _Verify_2[4]
  75  004C  0700     E  	mov a,ra
  75  004D  0080     R  	mov _LCMWrite_2[0],a
  75  004E  0F01        	mov a,1
  75  004F              	fcall _LCMWrite
  75  0056  2800     R  	jmp _L57
  75  0057              _L61:
  76  0057              #line 76 "C:\Users\YVTC\Desktop\單晶片微控制器(一)\0522\HT24.c"
  76  0057  0FD0        	mov a,208
  76  0058  00E2        	mov [98],a
  76  0059  0F07        	mov a,7
  76  005A  00E3        	mov [99],a
  77  005B              #line 77 "C:\Users\YVTC\Desktop\單晶片微控制器(一)\0522\HT24.c"
  77  005B  31DE        	set [94].3
  77  005C  0FE8        	mov a,-24
  77  005D  0080     R  	mov _Delayms_2[0],a
  77  005E  0F03        	mov a,3
  77  005F  0080     R  	mov _Delayms_2[1],a
  77  0060              	fcall _Delayms
  77  0067  35DE        	clr [94].3
  77  0068  2800     R  	jmp _L51
  77  0069              _L56:
  80  0069              #line 80 "C:\Users\YVTC\Desktop\單晶片微控制器(一)\0522\HT24.c"
  80  0069  0F00     R  	mov a,low offset _Str3
  80  006A  0300     R  	add a,_Verify_2[4]
  80  006B  0083        	mov mp,a
  80  006C  0F00     R  	mov a,high offset _Str3
  80  006D  1F04        	clr sbp
  80  006E  1384        	adcm a,sbp
  80  006F              	fcall _Crom2Prom
  80  0076  0080     E  	mov ra,a
  80  0077  1E00     E  	snz ra
  80  0078  2800     R  	jmp _L62
  80  0079  1480     R  	inc _Verify_2[4]
  80  007A  0700     E  	mov a,ra
  80  007B  0080     R  	mov _LCMWrite_2[0],a
  80  007C  0F01        	mov a,1
  80  007D              	fcall _LCMWrite
  80  0084  2800     R  	jmp _L56
  80  0085              _L62:
  82  0085              #line 82 "C:\Users\YVTC\Desktop\單晶片微控制器(一)\0522\HT24.c"
  82  0085  0FF4        	mov a,244
  82  0086  00E2        	mov [98],a
  82  0087  0F01        	mov a,1
  82  0088  00E3        	mov [99],a
  83  0089              #line 83 "C:\Users\YVTC\Desktop\單晶片微控制器(一)\0522\HT24.c"
  83  0089  31DE        	set [94].3
  83  008A  0FC8        	mov a,-56
  83  008B  0080     R  	mov _Delayms_2[0],a
  83  008C  1F00     R  	clr _Delayms_2[1]
  83  008D              	fcall _Delayms
  83  0094  35DE        	clr [94].3
  83  0095  0F64        	mov a,100
"File: HT24.c        Assembler  Version HGASM0202      Page 30

  83  0096  0080     R  	mov _Delayms_2[0],a
  83  0097  1F00     R  	clr _Delayms_2[1]
  83  0098              	fcall _Delayms
  82  009F              #line 82 "C:\Users\YVTC\Desktop\單晶片微控制器(一)\0522\HT24.c"
  82  009F  0FF4        	mov a,244
  82  00A0  00E2        	mov [98],a
  82  00A1  0F01        	mov a,1
  82  00A2  00E3        	mov [99],a
  83  00A3              #line 83 "C:\Users\YVTC\Desktop\單晶片微控制器(一)\0522\HT24.c"
  83  00A3  31DE        	set [94].3
  83  00A4  0FC8        	mov a,-56
  83  00A5  0080     R  	mov _Delayms_2[0],a
  83  00A6  1F00     R  	clr _Delayms_2[1]
  83  00A7              	fcall _Delayms
  83  00AE  35DE        	clr [94].3
  83  00AF  0F64        	mov a,100
  83  00B0  0080     R  	mov _Delayms_2[0],a
  83  00B1  1F00     R  	clr _Delayms_2[1]
  83  00B2              	fcall _Delayms
  83  00B9              _L51:
  83  00B9  0003        	ret
  83  00BA              _Verify endp
  83  00BA              #line 83 "C:\Users\YVTC\Desktop\單晶片微控制器(一)\0522\HT24.c"
  83  00BA              #pragma debug scope 1 1
  83  00BA              public _I2C_PageWrite
  83  00BA              #pragma debug scope 15 1
 136  00BA              #line 136 "C:\Users\YVTC\Desktop\單晶片微控制器(一)\0522\HT24.c"
 136  0000              _I2C_PageWrite .section 'code'
 136  0000              _I2C_PageWrite proc
 136  0000              public _I2C_PageWrite_2
 136  0000  0009[           local _I2C_PageWrite_2 db 9 dup(?)	; 5,4
            00
            ]
 136  0009              #pragma debug variable 10 15 _I2C_PageWrite_2+0 "Address"
 136  0009              #pragma debug pointer 45 8 15
 136  0009              #pragma debug pointer 45 8 15
 136  0009              #pragma debug variable 45 15 _I2C_PageWrite_2+2 "ptr"
 136  0009              #pragma debug variable 8 15 _I2C_PageWrite_2+4 "Count"
 137  0009              #line 137 "C:\Users\YVTC\Desktop\單晶片微控制器(一)\0522\HT24.c"
 137  0000              	fcall _I2C_START
 138  0007              #line 138 "C:\Users\YVTC\Desktop\單晶片微控制器(一)\0522\HT24.c"
 138  0007  0F00        	mov a,0
 138  0008              	fcall _I2C_DeviceSelect
 139  000F              #line 139 "C:\Users\YVTC\Desktop\單晶片微控制器(一)\0522\HT24.c"
 139  000F  0700     R  	mov a,_I2C_PageWrite_2[0]
 139  0010  0080     R  	mov _I2C_SetAddress_2[0],a
 139  0011  0700     R  	mov a,_I2C_PageWrite_2[1]
 139  0012  0080     R  	mov _I2C_SetAddress_2[1],a
 139  0013              	fcall _I2C_SetAddress
 139  001A  0700     R  	mov a,_I2C_PageWrite_2[2]
 139  001B  0080     R  	mov _I2C_PageWrite_2[5],a
 139  001C  0700     R  	mov a,_I2C_PageWrite_2[3]
 139  001D  0080     R  	mov _I2C_PageWrite_2[6],a
 139  001E  0700     R  	mov a,_I2C_PageWrite_2[4]
 139  001F  0300     R  	add a,_I2C_PageWrite_2[5]
 139  0020  0080     R  	mov _I2C_PageWrite_2[7],a
 139  0021  1F05        	clr acc
 139  0022  1300     R  	adc a,_I2C_PageWrite_2[6]
 139  0023  0080     R  	mov _I2C_PageWrite_2[8],a
 139  0024              _L64:
"File: HT24.c        Assembler  Version HGASM0202      Page 31

 140  0024              #line 140 "C:\Users\YVTC\Desktop\單晶片微控制器(一)\0522\HT24.c"
 140  0024  0700     R  	mov a,_I2C_PageWrite_2[5]
 140  0025  0200     R  	sub a,_I2C_PageWrite_2[7]
 140  0026  0700     R  	mov a,_I2C_PageWrite_2[6]
 140  0027  1200     R  	sbc a,_I2C_PageWrite_2[8]
 140  0028  3F0A        	sz cz
 140  0029  2800     R  	jmp _L66
 141  002A              #line 141 "C:\Users\YVTC\Desktop\單晶片微控制器(一)\0522\HT24.c"
 141  002A  0700     R  	mov a,_I2C_PageWrite_2[5]
 141  002B  0083        	mov mp,a
 141  002C  0700     R  	mov a,_I2C_PageWrite_2[6]
 141  002D  0084        	mov sbp,a
 141  002E              	fcall _Crom2Prom
 141  0035              	fcall _WriteByte
 142  003C              #line 142 "C:\Users\YVTC\Desktop\單晶片微控制器(一)\0522\HT24.c"
 142  003C              	fcall _CheckACK
 142  0043  1480     R  	inc _I2C_PageWrite_2[5]
 142  0044  3D0A        	sz z
 142  0045  1480     R  	inc _I2C_PageWrite_2[6]
 142  0046  2800     R  	jmp _L64
 142  0047              _L66:
 144  0047              #line 144 "C:\Users\YVTC\Desktop\單晶片微控制器(一)\0522\HT24.c"
 144  0047              	fcall _I2C_STOP
 145  004E              #line 145 "C:\Users\YVTC\Desktop\單晶片微控制器(一)\0522\HT24.c"
 145  004E  0F05        	mov a,5
 145  004F  0080     R  	mov _Delayms_2[0],a
 145  0050  1F00     R  	clr _Delayms_2[1]
 145  0051              	fcall _Delayms
 145  0058  0003        	ret
 145  0059              _I2C_PageWrite endp
 145  0059              #line 145 "C:\Users\YVTC\Desktop\單晶片微控制器(一)\0522\HT24.c"
 145  0059              #pragma debug scope 1 1
 145  0059              ___phc equ [47]
 145  0059              public _LCMInit
 145  0059              #pragma debug scope 16 1
 169  0059              #line 169 "C:\Users\YVTC\Desktop\單晶片微控制器(一)\0522\HT24.c"
 169  0000              _LCMInit .section 'code'
 169  0000              _LCMInit proc
 169  0000  352E        	clr [46].2
 169  0001  34AE        	clr [46].1
 169  0002  342E        	clr [46].0
 170  0003              #line 170 "C:\Users\YVTC\Desktop\單晶片微控制器(一)\0522\HT24.c"
 170  0003  352F        	clr [47].2
 170  0004  34AF        	clr [47].1
 170  0005  342F        	clr [47].0
 171  0006              #line 171 "C:\Users\YVTC\Desktop\單晶片微控制器(一)\0522\HT24.c"
 171  0006  0F28        	mov a,40
 171  0007  0080     R  	mov _Delayms_2[0],a
 171  0008  1F00     R  	clr _Delayms_2[1]
 171  0009              	fcall _Delayms
 172  0010              #line 172 "C:\Users\YVTC\Desktop\單晶片微控制器(一)\0522\HT24.c"
 172  0010  0F38        	mov a,56
 172  0011  0080     R  	mov _LCMWrite_2[0],a
 172  0012  0F00        	mov a,0
 172  0013              	fcall _LCMWrite
 173  001A              #line 173 "C:\Users\YVTC\Desktop\單晶片微控制器(一)\0522\HT24.c"
 173  001A  0F0F        	mov a,15
 173  001B  0080     R  	mov _LCMWrite_2[0],a
 173  001C  0F00        	mov a,0
 173  001D              	fcall _LCMWrite
"File: HT24.c        Assembler  Version HGASM0202      Page 32

 174  0024              #line 174 "C:\Users\YVTC\Desktop\單晶片微控制器(一)\0522\HT24.c"
 174  0024  0F06        	mov a,6
 174  0025  0080     R  	mov _LCMWrite_2[0],a
 174  0026  0F00        	mov a,0
 174  0027              	fcall _LCMWrite
 175  002E              #line 175 "C:\Users\YVTC\Desktop\單晶片微控制器(一)\0522\HT24.c"
 175  002E  0F01        	mov a,1
 175  002F  0080     R  	mov _LCMWrite_2[0],a
 175  0030  0F00        	mov a,0
 175  0031              	fcall _LCMWrite
 175  0038  0003        	ret
 175  0039              _LCMInit endp
 175  0039              #line 175 "C:\Users\YVTC\Desktop\單晶片微控制器(一)\0522\HT24.c"
 175  0039              #pragma debug scope 1 1
 175  0039              ___wdtc equ [62]
 175  0039              ___tm0c1 equ [95]
 175  0039              ___pcs2 equ [362]
 175  0039              public _main
 175  0039              #pragma debug scope 17 1
   6  0039              #line 6 "C:\Users\YVTC\Desktop\單晶片微控制器(一)\0522\HT24.c"
   6  0039              IFDEF WITH_DEFAULT_STARTUP
   6  0039              extern _main_initial0:near
   6  0039              extern _main_startup:near
   6  0039              ENDIF
   6  0039              
   6  0039              ROMBANK 0 @start
   6  0000              @start .section com_l 'code'
   6  0000              _main_startup1:
   6  0000              @start .section com_e 'code'
   6  0000  0F00     R  	mov a,bank _main
   6  0001  008B        	mov bp,a
   6  0002  2800     R  	jmp _main
   6  0003              
   6  0000              _main .section 'code'
   6  0000              _main proc
   6  0000  000A[           local _main_2 db 10 dup(?)
            00
            ]
   6  000A              #pragma debug variable 8 17 _main_2+9 "Flag"
   6  000A              #pragma debug variable 8 17 _main_2+8 "Key"
   6  000A              #pragma debug array 46 8 4 17
   6  000A              #pragma debug array 46 8 4 17
   6  000A              #pragma debug variable 46 17 _main_2+4 "SaveCode"
   6  000A              #pragma debug variable 46 17 _main_2+0 "InputCode"
   7  000A              #line 7 "C:\Users\YVTC\Desktop\單晶片微控制器(一)\0522\HT24.c"
   7  0000  0FAF        	mov a,175
   7  0001  00BE        	mov [62],a
   8  0002              #line 8 "C:\Users\YVTC\Desktop\單晶片微控制器(一)\0522\HT24.c"
   8  0002  1F5E        	clr [94]
   8  0003  0F31        	mov a,49
   8  0004  00DF        	mov [95],a
   9  0005              #line 9 "C:\Users\YVTC\Desktop\單晶片微控制器(一)\0522\HT24.c"
   9  0005  0F20        	mov a,32
   9  0006  80EA 0001   	lmov [362],a
  10  0008              #line 10 "C:\Users\YVTC\Desktop\單晶片微控制器(一)\0522\HT24.c"
  10  0008              	fcall _LCMInit
   6  000F              #line 6 "C:\Users\YVTC\Desktop\單晶片微控制器(一)\0522\HT24.c"
   6  000F  0F0B        	mov a,11
   6  0010  0080     R  	mov _main_2[8],a
   6  0011              _L92:
"File: HT24.c        Assembler  Version HGASM0202      Page 33

  12  0011              #line 12 "C:\Users\YVTC\Desktop\單晶片微控制器(一)\0522\HT24.c"
  12  0011  0700     R  	mov a,_main_2[8]
  12  0012  0A0A        	sub a,10
  12  0013  3D0A        	sz z
  12  0014  2800     R  	jmp _L70
  12  0015  0700     R  	mov a,_main_2[8]
  12  0016  0A0B        	sub a,11
  12  0017  390A        	snz z
  12  0018  2800     R  	jmp _L94
  19  0019              #line 19 "C:\Users\YVTC\Desktop\單晶片微控制器(一)\0522\HT24.c"
  19  0019  0F01        	mov a,1
  19  001A  0080     R  	mov _LCMWrite_2[0],a
  19  001B  0F00        	mov a,0
  19  001C              	fcall _LCMWrite
  20  0023              #line 20 "C:\Users\YVTC\Desktop\單晶片微控制器(一)\0522\HT24.c"
  20  0023  1F00     R  	clr _main_2[8]
  20  0024  2800     R  	jmp _L75
  20  0025              _L70:
  14  0025              #line 14 "C:\Users\YVTC\Desktop\單晶片微控制器(一)\0522\HT24.c"
  14  0025  0F01        	mov a,1
  14  0026  0080     R  	mov _LCMWrite_2[0],a
  14  0027  0F00        	mov a,0
  14  0028              	fcall _LCMWrite
  15  002F              #line 15 "C:\Users\YVTC\Desktop\單晶片微控制器(一)\0522\HT24.c"
  15  002F  1F00     R  	clr _main_2[8]
  15  0030              _L72:
  15  0030  0F00     R  	mov a,low offset _Str2
  15  0031  0300     R  	add a,_main_2[8]
  15  0032  0083        	mov mp,a
  15  0033  0F00     R  	mov a,high offset _Str2
  15  0034  1F04        	clr sbp
  15  0035  1384        	adcm a,sbp
  15  0036              	fcall _Crom2Prom
  15  003D  0080     E  	mov ra,a
  15  003E  1E00     E  	snz ra
  15  003F  2800     R  	jmp _L95
  15  0040  1480     R  	inc _main_2[8]
  15  0041  0700     E  	mov a,ra
  15  0042  0080     R  	mov _LCMWrite_2[0],a
  15  0043  0F01        	mov a,1
  15  0044              	fcall _LCMWrite
  15  004B  2800     R  	jmp _L72
  15  004C              _L95:
  16  004C              #line 16 "C:\Users\YVTC\Desktop\單晶片微控制器(一)\0522\HT24.c"
  16  004C  1F00     R  	clr _main_2[9]
  16  004D  2800     R  	jmp _L89
  16  004E              _L75:
  20  004E              #line 20 "C:\Users\YVTC\Desktop\單晶片微控制器(一)\0522\HT24.c"
  20  004E  0F00     R  	mov a,low offset _Str1
  20  004F  0300     R  	add a,_main_2[8]
  20  0050  0083        	mov mp,a
  20  0051  0F00     R  	mov a,high offset _Str1
  20  0052  1F04        	clr sbp
  20  0053  1384        	adcm a,sbp
  20  0054              	fcall _Crom2Prom
  20  005B  0080     E  	mov ra,a
  20  005C  1E00     E  	snz ra
  20  005D  2800     R  	jmp _L87
  20  005E  1480     R  	inc _main_2[8]
  20  005F  0700     E  	mov a,ra
"File: HT24.c        Assembler  Version HGASM0202      Page 34

  20  0060  0080     R  	mov _LCMWrite_2[0],a
  20  0061  0F01        	mov a,1
  20  0062              	fcall _LCMWrite
  20  0069  2800     R  	jmp _L75
  20  006A              _L87:
  21  006A              #line 21 "C:\Users\YVTC\Desktop\單晶片微控制器(一)\0522\HT24.c"
  21  006A  0F01        	mov a,1
  21  006B  0080     R  	mov _main_2[9],a
  21  006C  2800     R  	jmp _L89
  21  006D              _L94:
  24  006D              #line 24 "C:\Users\YVTC\Desktop\單晶片微控制器(一)\0522\HT24.c"
  24  006D  0F09        	mov a,9
  24  006E  0200     R  	sub a,_main_2[8]
  24  006F  380A        	snz c
  24  0070  2800     R  	jmp _L89
  25  0071              #line 25 "C:\Users\YVTC\Desktop\單晶片微控制器(一)\0522\HT24.c"
  25  0071  0700     R  	mov a,_main_2[8]
  25  0072  0B30        	add a,48
  25  0073  0080     R  	mov _LCMWrite_2[0],a
  25  0074  0F01        	mov a,1
  25  0075              	fcall _LCMWrite
  26  007C              #line 26 "C:\Users\YVTC\Desktop\單晶片微控制器(一)\0522\HT24.c"
  26  007C  0F00     R  	mov a,low offset _main_2
  26  007D  0080     E  	mov rb,a
  26  007E  0F00     R  	mov a,high offset _main_2
  26  007F  0080     E  	mov rc,a
  26  0080  1080     R  	sz _main_2[9]
  26  0081  2800     R  	jmp _L77
  26  0082  0F04        	mov a,4
  26  0083  0380     E  	addm a,rb
  26  0084  0F00        	mov a,0
  26  0085  1380     E  	adcm a,rc
  26  0086              _L77:
  27  0086              #line 27 "C:\Users\YVTC\Desktop\單晶片微控制器(一)\0522\HT24.c"
  27  0086  0700     E  	mov a,rb
  27  0087  0083        	mov mp,a
  27  0088  0700     E  	mov a,rc
  27  0089  0084        	mov sbp,a
  27  008A  0700     R  	mov a,_main_2[8]
  27  008B  0082        	mov ir,a
  28  008C              #line 28 "C:\Users\YVTC\Desktop\單晶片微控制器(一)\0522\HT24.c"
  28  008C  0F01        	mov a,1
  28  008D  0300     E  	add a,rb
  28  008E  0080     R  	mov _Get3Keys_2[0],a
  28  008F  0F00        	mov a,0
  28  0090  1300     E  	adc a,rc
  28  0091  0080     R  	mov _Get3Keys_2[1],a
  28  0092              	fcall _Get3Keys
  28  0099  0080     E  	mov ra,a
  28  009A  1E00     E  	snz ra
  28  009B  2800     R  	jmp _L78
  29  009C              #line 29 "C:\Users\YVTC\Desktop\單晶片微控制器(一)\0522\HT24.c"
  29  009C  0F8B        	mov a,139
  29  009D  0080     R  	mov _LCMWrite_2[0],a
  29  009E  0F00        	mov a,0
  29  009F              	fcall _LCMWrite
  30  00A6              #line 30 "C:\Users\YVTC\Desktop\單晶片微控制器(一)\0522\HT24.c"
  30  00A6  0F05        	mov a,5
  30  00A7  0080     R  	mov _main_2[8],a
  30  00A8              _L79:
"File: HT24.c        Assembler  Version HGASM0202      Page 35

  30  00A8  1780     R  	sdz _main_2[8]
  30  00A9  2800     R  	jmp _LI1
  30  00AA  2800     R  	jmp _L96
  30  00AB              _LI1:
  30  00AB  0F20        	mov a,32
  30  00AC  0080     R  	mov _LCMWrite_2[0],a
  30  00AD  0F01        	mov a,1
  30  00AE              	fcall _LCMWrite
  30  00B5  2800     R  	jmp _L79
  30  00B6              _L96:
  31  00B6              #line 31 "C:\Users\YVTC\Desktop\單晶片微控制器(一)\0522\HT24.c"
  31  00B6  0F8B        	mov a,139
  31  00B7  0080     R  	mov _LCMWrite_2[0],a
  31  00B8  0F00        	mov a,0
  31  00B9              	fcall _LCMWrite
  32  00C0              #line 32 "C:\Users\YVTC\Desktop\單晶片微控制器(一)\0522\HT24.c"
  32  00C0  2800     R  	jmp _L89
  32  00C1              _L78:
  34  00C1              #line 34 "C:\Users\YVTC\Desktop\單晶片微控制器(一)\0522\HT24.c"
  34  00C1  1E00     R  	snz _main_2[9]
  34  00C2  2800     R  	jmp _L81
  35  00C3              #line 35 "C:\Users\YVTC\Desktop\單晶片微控制器(一)\0522\HT24.c"
  35  00C3  0F04        	mov a,4
  35  00C4  0080     R  	mov _I2C_SeqRandomRead_2[4],a
  35  00C5  0F00     R  	mov a,low offset _main_2
  35  00C6  0080     E  	mov ra,a
  35  00C7  0F00     R  	mov a,high offset _main_2
  35  00C8  0080     E  	mov rb,a
  35  00C9  0F04        	mov a,4
  35  00CA  0300     E  	add a,ra
  35  00CB  0080     R  	mov _I2C_SeqRandomRead_2[2],a
  35  00CC  0F00        	mov a,0
  35  00CD  1300     E  	adc a,rb
  35  00CE  0080     R  	mov _I2C_SeqRandomRead_2[3],a
  35  00CF  1F00     R  	clr _I2C_SeqRandomRead_2[0]
  35  00D0  1F00     R  	clr _I2C_SeqRandomRead_2[1]
  35  00D1              	fcall _I2C_SeqRandomRead
  36  00D8              #line 36 "C:\Users\YVTC\Desktop\單晶片微控制器(一)\0522\HT24.c"
  36  00D8  0F00     R  	mov a,low offset _main_2
  36  00D9  0080     E  	mov ra,a
  36  00DA  0F00     R  	mov a,high offset _main_2
  36  00DB  0080     E  	mov rb,a
  36  00DC  0F04        	mov a,4
  36  00DD  0300     E  	add a,ra
  36  00DE  0080     R  	mov _Verify_2[2],a
  36  00DF  0F00        	mov a,0
  36  00E0  1300     E  	adc a,rb
  36  00E1  0080     R  	mov _Verify_2[3],a
  36  00E2  0F00     R  	mov a,low offset _main_2
  36  00E3  0080     R  	mov _Verify_2[0],a
  36  00E4  0F00     R  	mov a,high offset _main_2
  36  00E5  0080     R  	mov _Verify_2[1],a
  36  00E6              	fcall _Verify
  36  00ED  2800     R  	jmp _L82
  36  00EE              _L81:
  39  00EE              #line 39 "C:\Users\YVTC\Desktop\單晶片微控制器(一)\0522\HT24.c"
  39  00EE  0F04        	mov a,4
  39  00EF  0080     R  	mov _I2C_PageWrite_2[4],a
  39  00F0  0F00     R  	mov a,low offset _main_2
  39  00F1  0080     E  	mov ra,a
"File: HT24.c        Assembler  Version HGASM0202      Page 36

  39  00F2  0F00     R  	mov a,high offset _main_2
  39  00F3  0080     E  	mov rb,a
  39  00F4  0F04        	mov a,4
  39  00F5  0300     E  	add a,ra
  39  00F6  0080     R  	mov _I2C_PageWrite_2[2],a
  39  00F7  0F00        	mov a,0
  39  00F8  1300     E  	adc a,rb
  39  00F9  0080     R  	mov _I2C_PageWrite_2[3],a
  39  00FA  1F00     R  	clr _I2C_PageWrite_2[0]
  39  00FB  1F00     R  	clr _I2C_PageWrite_2[1]
  39  00FC              	fcall _I2C_PageWrite
  40  0103              #line 40 "C:\Users\YVTC\Desktop\單晶片微控制器(一)\0522\HT24.c"
  40  0103  0FC0        	mov a,192
  40  0104  0080     R  	mov _LCMWrite_2[0],a
  40  0105  0F00        	mov a,0
  40  0106              	fcall _LCMWrite
  40  010D  1F00     R  	clr _main_2[8]
  40  010E              _L83:
  41  010E              #line 41 "C:\Users\YVTC\Desktop\單晶片微控制器(一)\0522\HT24.c"
  41  010E  0F00     R  	mov a,low offset _Str5
  41  010F  0300     R  	add a,_main_2[8]
  41  0110  0083        	mov mp,a
  41  0111  0F00     R  	mov a,high offset _Str5
  41  0112  1F04        	clr sbp
  41  0113  1384        	adcm a,sbp
  41  0114              	fcall _Crom2Prom
  41  011B  0080     E  	mov ra,a
  41  011C  1E00     E  	snz ra
  41  011D  2800     R  	jmp _L97
  41  011E  1480     R  	inc _main_2[8]
  41  011F  0700     E  	mov a,ra
  41  0120  0080     R  	mov _LCMWrite_2[0],a
  41  0121  0F01        	mov a,1
  41  0122              	fcall _LCMWrite
  41  0129  2800     R  	jmp _L83
  41  012A              _L97:
  42  012A              #line 42 "C:\Users\YVTC\Desktop\單晶片微控制器(一)\0522\HT24.c"
  42  012A  0FE8        	mov a,232
  42  012B  00E2        	mov [98],a
  42  012C  0F03        	mov a,3
  42  012D  00E3        	mov [99],a
  43  012E              #line 43 "C:\Users\YVTC\Desktop\單晶片微控制器(一)\0522\HT24.c"
  43  012E  31DE        	set [94].3
  43  012F  0FC8        	mov a,-56
  43  0130  0080     R  	mov _Delayms_2[0],a
  43  0131  1F00     R  	clr _Delayms_2[1]
  43  0132              	fcall _Delayms
  43  0139  35DE        	clr [94].3
  43  013A              _L82:
  45  013A              #line 45 "C:\Users\YVTC\Desktop\單晶片微控制器(一)\0522\HT24.c"
  45  013A  0FD0        	mov a,-48
  45  013B  0080     R  	mov _Delayms_2[0],a
  45  013C  0F07        	mov a,7
  45  013D  0080     R  	mov _Delayms_2[1],a
  45  013E              	fcall _Delayms
  46  0145              #line 46 "C:\Users\YVTC\Desktop\單晶片微控制器(一)\0522\HT24.c"
  46  0145  0F01        	mov a,1
  46  0146  0080     R  	mov _LCMWrite_2[0],a
  46  0147  0F00        	mov a,0
  46  0148              	fcall _LCMWrite
"File: HT24.c        Assembler  Version HGASM0202      Page 37

  47  014F              #line 47 "C:\Users\YVTC\Desktop\單晶片微控制器(一)\0522\HT24.c"
  47  014F  1F00     R  	clr _main_2[8]
  47  0150              _L85:
  47  0150  0F00     R  	mov a,low offset _Str1
  47  0151  0300     R  	add a,_main_2[8]
  47  0152  0083        	mov mp,a
  47  0153  0F00     R  	mov a,high offset _Str1
  47  0154  1F04        	clr sbp
  47  0155  1384        	adcm a,sbp
  47  0156              	fcall _Crom2Prom
  47  015D  0080     E  	mov ra,a
  47  015E  1E00     E  	snz ra
  47  015F  2800     R  	jmp _L87
  47  0160  1480     R  	inc _main_2[8]
  47  0161  0700     E  	mov a,ra
  47  0162  0080     R  	mov _LCMWrite_2[0],a
  47  0163  0F01        	mov a,1
  47  0164              	fcall _LCMWrite
  47  016B  2800     R  	jmp _L85
  47  016C              _L89:
  51  016C              #line 51 "C:\Users\YVTC\Desktop\單晶片微控制器(一)\0522\HT24.c"
  51  016C              	fcall _ScanKey
  51  0173  0080     R  	mov _main_2[8],a
  51  0174  0700     R  	mov a,_main_2[8]
  51  0175  0A10        	sub a,16
  51  0176  3D0A        	sz z
  51  0177  2800     R  	jmp _L89
  52  0178              #line 52 "C:\Users\YVTC\Desktop\單晶片微控制器(一)\0522\HT24.c"
  52  0178  0F0F        	mov a,15
  52  0179  0080     R  	mov _Delayms_2[0],a
  52  017A  1F00     R  	clr _Delayms_2[1]
  52  017B              	fcall _Delayms
  52  0182              _L91:
  52  0182              	fcall _ScanKey
  52  0189  0080     E  	mov ra,a
  52  018A  0700     E  	mov a,ra
  52  018B  0A10        	sub a,16
  52  018C  390A        	snz z
  52  018D  2800     R  	jmp _L91
  52  018E  0F0F        	mov a,15
  52  018F  0080     R  	mov _Delayms_2[0],a
  52  0190  1F00     R  	clr _Delayms_2[1]
  52  0191              	fcall _Delayms
  53  0198              #line 53 "C:\Users\YVTC\Desktop\單晶片微控制器(一)\0522\HT24.c"
  53  0198  2800     R  	jmp _L92
  53  0199  2800     R  	jmp $
  53  019A              _main endp
  53  019A              
  53  019A              @dummy endp
  53  019A              
  53  019A              #line 53 "C:\Users\YVTC\Desktop\單晶片微控制器(一)\0522\HT24.c"
  53  019A              #pragma debug scope 1 1
  53  019A              public _Str5
  53  0000              @crom	.section 'crom'

  27  0000              #line 27 "C:\Users\YVTC\Desktop\單晶片微控制器(一)\0522\HT24.h"
  27  0000              @crom	.section	'crom'
  27  0000              _Str5:
  27  0000              #pragma debug array 47 8 9 1
  27  0000              #pragma debug array 47 8 9 1
"File: HT24.h        Assembler  Version HGASM0202      Page 38

  27  0000              #pragma debug variable 47 1 _Str5 "Str5"
  27  0000              	db 053h,061h,076h,065h,020h,04fh,04bh,021h,00h
  27  0005              public _Str4
  26  0005              #line 26 "C:\Users\YVTC\Desktop\單晶片微控制器(一)\0522\HT24.h"
  26  0005              @crom	.section	'crom'
  26  0005              _Str4:
  26  0005              #pragma debug array 48 8 8 1
  26  0005              #pragma debug array 48 8 8 1
  26  0005              #pragma debug variable 48 1 _Str4 "Str4"
  26  0005              	db 053h,06fh,072h,072h,079h,021h,021h,00h
  26  0009              public _Str3
  25  0009              #line 25 "C:\Users\YVTC\Desktop\單晶片微控制器(一)\0522\HT24.h"
  25  0009              @crom	.section	'crom'
  25  0009              _Str3:
  25  0009              #pragma debug array 49 8 10 1
  25  0009              #pragma debug array 49 8 10 1
  25  0009              #pragma debug variable 49 1 _Str3 "Str3"
  25  0009              	db 047h,06fh,06fh,064h,020h,04ah,06fh,062h,021h,00h
  25  000E              public _Str2
  24  000E              #line 24 "C:\Users\YVTC\Desktop\單晶片微控制器(一)\0522\HT24.h"
  24  000E              @crom	.section	'crom'
  24  000E              _Str2:
  24  000E              #pragma debug array 50 8 12 1
  24  000E              #pragma debug array 50 8 12 1
  24  000E              #pragma debug variable 50 1 _Str2 "Str2"
  24  000E              	db 053h,061h,076h,065h,020h,020h,043h,06fh,064h,065h
  24  0013              	db 03ah,00h
  24  0014              public _Str1
  23  0014              #line 23 "C:\Users\YVTC\Desktop\單晶片微控制器(一)\0522\HT24.h"
  23  0014              @crom	.section	'crom'
  23  0014              _Str1:
  23  0014              #pragma debug variable 50 1 _Str1 "Str1"
  23  0014              	db 049h,06eh,070h,075h,074h,020h,043h,06fh,064h,065h
  23  0019              	db 03ah,00h
  23  001A              #pragma debug struct_end
  23  001A              #pragma debug struct_end
  23  001A              #pragma debug union_end
  23  001A              #pragma debug union_end
  23  001A              #pragma debug variable 52 1 ___pa "__pa" 1
  23  001A              #pragma debug struct_end
  23  001A              #pragma debug struct_end
  23  001A              #pragma debug union_end
  23  001A              #pragma debug union_end
  23  001A              #pragma debug variable 54 1 ___pac "__pac" 1
  23  001A              #pragma debug struct_end
  23  001A              #pragma debug struct_end
  23  001A              #pragma debug union_end
  23  001A              #pragma debug union_end
  23  001A              #pragma debug variable 56 1 ___pepu "__pepu" 1
  23  001A              #pragma debug struct_end
  23  001A              #pragma debug struct_end
  23  001A              #pragma debug union_end
  23  001A              #pragma debug union_end
  23  001A              #pragma debug variable 58 1 ___pe "__pe" 1
  23  001A              #pragma debug struct_end
  23  001A              #pragma debug struct_end
  23  001A              #pragma debug union_end
  23  001A              #pragma debug union_end
  23  001A              #pragma debug variable 60 1 ___pec "__pec" 1
  23  001A              #pragma debug struct_end
"File: HT24.h        Assembler  Version HGASM0202      Page 39

  23  001A              #pragma debug struct_end
  23  001A              #pragma debug union_end
  23  001A              #pragma debug union_end
  23  001A              #pragma debug variable 62 1 ___pg "__pg" 1
  23  001A              #pragma debug struct_end
  23  001A              #pragma debug struct_end
  23  001A              #pragma debug union_end
  23  001A              #pragma debug union_end
  23  001A              #pragma debug variable 64 1 ___pgc "__pgc" 1
  23  001A              #pragma debug struct_end
  23  001A              #pragma debug struct_end
  23  001A              #pragma debug union_end
  23  001A              #pragma debug union_end
  23  001A              #pragma debug variable 66 1 ___ph "__ph" 1
  23  001A              #pragma debug struct_end
  23  001A              #pragma debug struct_end
  23  001A              #pragma debug union_end
  23  001A              #pragma debug union_end
  23  001A              #pragma debug variable 68 1 ___phc "__phc" 1
  23  001A              #pragma debug struct_end
  23  001A              #pragma debug struct_end
  23  001A              #pragma debug union_end
  23  001A              #pragma debug union_end
  23  001A              #pragma debug variable 70 1 ___wdtc "__wdtc" 1
  23  001A              #pragma debug struct_end
  23  001A              #pragma debug struct_end
  23  001A              #pragma debug union_end
  23  001A              #pragma debug union_end
  23  001A              #pragma debug variable 72 1 ___tm0c0 "__tm0c0" 1
  23  001A              #pragma debug struct_end
  23  001A              #pragma debug struct_end
  23  001A              #pragma debug union_end
  23  001A              #pragma debug union_end
  23  001A              #pragma debug variable 74 1 ___tm0c1 "__tm0c1" 1
  23  001A              #pragma debug variable 8 1 ___tm0al "__tm0al" 1
  23  001A              #pragma debug variable 8 1 ___tm0ah "__tm0ah" 1
  23  001A              #pragma debug struct_end
  23  001A              #pragma debug struct_end
  23  001A              #pragma debug union_end
  23  001A              #pragma debug union_end
  23  001A              #pragma debug variable 76 1 ___pcs2 "__pcs2" 1

   6  001A              #line 6 "C:\Users\YVTC\Desktop\單晶片微控制器(一)\0522\HT24.c"
   6  0000              @code .section at 0 'code'
   6  0000  1F0B        	clr bp
   6  0001  2800     R  	jmp _main_startup1
   6  0002              
   6  0002              
   6  0002              ; 
   6  0002              ; Generated by holtek-gcc v3.18, Tue May 22 11:33:54 2018
   6  0002              ; Rebuild 126
   6  0002              ; end of file


        0 Errors, 0