"File: IRLEDControl.c  Assembler  Version HGASM0202      Page 1


   1  0000              ; Generated by holtek-gcc v3.18, Tue May 22 14:18:12 2018
   2  0000              ; 
   3  0000              ; Configuration:
   4  0000              ;       with long instruction
   5  0000              ;       Multi-ROM, Multi-RAM
   6  0000              ;       bits_per_rom_unit:16
   7  0000              ;       with mp1
   8  0000              ;       with tbhp, address(0x9)
   9  0000              ;          Use tabrd-const
  10  0000              ;       
  11  0000              ; SFR address of long-instruction arch:
  12  0000              ;    mp0 = -1,1,0
  13  0000              ;    mp1 = 4,3,2
  14  0000              ;    mp2 = 14,13,12
  15  0000              ;    tbp = 9,7,8
  16  0000              ;    acc = 5
  17  0000              ;    pcl = 6
  18  0000              ;    status = 10
  19  0000              ;    bp = 11
  20  0000              ;    intc = 48
  21  0000              ;       
  22  0000              ;       
  23  0000              ; use 'tabrdc' instead of 'tabrd'
  24  0000              ;       
  25  0000              
  26  0000              #pragma translator "holtek-gcc 4.6.4" "3.18" "build 20130711"
  27  0000              ; Rebuild 126
  28  0000              
  29  0000              ir equ [2]
  30  0000              mp equ [3]
  31  0000              sbp equ [4]
  32  0000              acc equ [5]
  33  0000              bp equ [11]
  34  0000              tblp equ [7]
  35  0000              tbhp equ [9]
  36  0000              status equ [10]
  37  0000              c equ [10].0
  38  0000              ac equ [10].1
  39  0000              z equ [10].2
  40  0000              ov equ [10].3
  41  0000              cz equ [10].6
  42  0000              sc equ [10].7
  43  0000              intc equ [48]
  44  0000              
  45  0000              extern ra:byte
  46  0000              extern rb:byte
  47  0000              extern rc:byte
  48  0000              extern rd:byte
  49  0000              extern re:byte
  50  0000              extern rf:byte
  51  0000              extern rg:byte
  52  0000              extern rh:byte
  53  0000              extern _Crom2Prom:near
  54  0000              extern _Crom2PromNext:near
  55  0000              
  56  0000              RAMBANK 0 @BITDATASEC, @BITDATASEC1
  57  0000              @HCCINIT	.section 'data'
  58  0000              @HCCINIT0	.section 'data'
  59  0000              @BITDATASEC	 .section 'data'
"File: IRLEDControl.ASM  Assembler  Version HGASM0202      Page 2

  60  0000              @BITDATASEC1	 .section 'data'
  61  0000              
  62  0000              #pragma debug scope 1 1
  63  0000              	extern __DELAY3:near
  64  0000              	extern __DELAYX3:near
  65  0000              	extern __DELAYX6:near
  66  0000              	extern __DELAYY5:near
  67  0000              	extern __DELAYY3:near
  68  0000              	extern _builtin_holtek_delay_2:byte
  69  0000              ___pd equ [30]
  70  0000              public _LED
  71  0000              #pragma debug scope 2 1

  53  0000              #line 53 "C:\Users\YVTC\Desktop\單晶片微控制器(一)\0522\IRLEDControl.c"
  53  0000              _LED .section 'code'
  53  0000              _LED proc
  53  0000              public _LED_2
  53  0000  0002[           local _LED_2 db 2 dup(?)	; 2,0
            00
            ]
  53  0002              #pragma debug variable 10 2 _LED_2+0 "cmd"
  53  0000  0700     R  	mov a,_LED_2[0]
  53  0001  0A45        	sub a,69
  53  0002  0700     R  	mov a,_LED_2[1]
  53  0003  08BA        	sbc a,186
  53  0004  3F0A        	sz cz
  53  0005  2800     R  	jmp _L3
  53  0006              #line 53 "C:\Users\YVTC\Desktop\單晶片微控制器(一)\0522\IRLEDControl.c"
  53  0006  0700     R  	mov a,_LED_2[0]
  53  0007  0A44        	sub a,68
  53  0008  0700     R  	mov a,_LED_2[1]
  53  0009  08BB        	sbc a,187
  53  000A  3F0A        	sz cz
  53  000B  2800     R  	jmp _L4
  53  000C  0700     R  	mov a,_LED_2[0]
  53  000D  0A16        	sub a,22
  53  000E  0700     R  	mov a,_LED_2[1]
  53  000F  08E9        	sbc a,233
  53  0010  3F0A        	sz cz
  53  0011  2800     R  	jmp _L5
  53  0012  0700     R  	mov a,_LED_2[0]
  53  0013  0A07        	sub a,7
  53  0014  0700     R  	mov a,_LED_2[1]
  53  0015  08F8        	sbc a,248
  53  0016  3B0A        	snz cz
  53  0017  2800     R  	jmp _L1
  61  0018              #line 61 "C:\Users\YVTC\Desktop\單晶片微控制器(一)\0522\IRLEDControl.c"
  61  0018  0F04        	mov a,4
  61  0019  049E        	xorm a,[30]
  62  001A              #line 62 "C:\Users\YVTC\Desktop\單晶片微控制器(一)\0522\IRLEDControl.c"
  62  001A  2800     R  	jmp _L1
  62  001B              _L3:
  55  001B              #line 55 "C:\Users\YVTC\Desktop\單晶片微控制器(一)\0522\IRLEDControl.c"
  55  001B  0F01        	mov a,1
  55  001C  049E        	xorm a,[30]
  56  001D              #line 56 "C:\Users\YVTC\Desktop\單晶片微控制器(一)\0522\IRLEDControl.c"
  56  001D  2800     R  	jmp _L1
  56  001E              _L4:
  58  001E              #line 58 "C:\Users\YVTC\Desktop\單晶片微控制器(一)\0522\IRLEDControl.c"
  58  001E  0F02        	mov a,2
"File: IRLEDControl.c  Assembler  Version HGASM0202      Page 3

  58  001F  049E        	xorm a,[30]
  59  0020              #line 59 "C:\Users\YVTC\Desktop\單晶片微控制器(一)\0522\IRLEDControl.c"
  59  0020  2800     R  	jmp _L1
  59  0021              _L5:
  64  0021              #line 64 "C:\Users\YVTC\Desktop\單晶片微控制器(一)\0522\IRLEDControl.c"
  64  0021  0F08        	mov a,8
  64  0022  049E        	xorm a,[30]
  64  0023              _L1:
  64  0023  0003        	ret
  64  0024              _LED endp
  64  0024              #line 64 "C:\Users\YVTC\Desktop\單晶片微控制器(一)\0522\IRLEDControl.c"
  64  0024              #pragma debug scope 1 1
  64  0024              ___tm2rp equ [87]
  64  0024              ___tm2c1 equ [82]
  64  0024              ___mfi0 equ [52]
  64  0024              ___pc equ [26]
  64  0024              ___tm2c0 equ [81]
  64  0024              ___tm2ah equ [86]
  64  0024              ___tm2al equ [85]
  64  0024              public _IRDecoder
  64  0024              #pragma debug scope 3 1
  79  0024              #line 79 "C:\Users\YVTC\Desktop\單晶片微控制器(一)\0522\IRLEDControl.c"
  79  0000              _IRDecoder .section 'code'
  79  0000              _IRDecoder proc
  79  0000              public _IRDecoder_2
  79  0000  000A[           local _IRDecoder_2 db 10 dup(?)	; 4,6
            00
            ]
  79  000A              #pragma debug pointer 42 12 3
  79  000A              #pragma debug pointer 42 12 3
  79  000A              #pragma debug variable 42 3 _IRDecoder_2+0 "ptradrs"
  79  000A              #pragma debug variable 42 3 _IRDecoder_2+2 "ptrcmd"
  79  000A              #pragma debug variable 14 3 _IRDecoder_2+4 "temp"
  81  000A              #line 81 "C:\Users\YVTC\Desktop\單晶片微控制器(一)\0522\IRLEDControl.c"
  81  0000  0F50        	mov a,80
  81  0001  00D7        	mov [87],a
  82  0002              #line 82 "C:\Users\YVTC\Desktop\單晶片微控制器(一)\0522\IRLEDControl.c"
  82  0002  0F40        	mov a,64
  82  0003  00D2        	mov [82],a
  83  0004              #line 83 "C:\Users\YVTC\Desktop\單晶片微控制器(一)\0522\IRLEDControl.c"
  83  0004  3734        	clr [52].6
  83  0005  37B4        	clr [52].7
  83  0006              _L10:
  85  0006              #line 85 "C:\Users\YVTC\Desktop\單晶片微控制器(一)\0522\IRLEDControl.c"
  85  0006  3D9A        	sz [26].3
  85  0007  2800     R  	jmp _L10
  86  0008              #line 86 "C:\Users\YVTC\Desktop\單晶片微控制器(一)\0522\IRLEDControl.c"
  86  0008  31D1        	set [81].3
  86  0009              _L11:
  87  0009              #line 87 "C:\Users\YVTC\Desktop\單晶片微控制器(一)\0522\IRLEDControl.c"
  87  0009  3FB4        	sz [52].7
  87  000A  2800     R  	jmp _L30
  88  000B              #line 88 "C:\Users\YVTC\Desktop\單晶片微控制器(一)\0522\IRLEDControl.c"
  88  000B  3B34        	snz [52].6
  88  000C  2800     R  	jmp _L11
  88  000D  2800     R  	jmp _L28
  88  000E              _L30:
  90  000E              #line 90 "C:\Users\YVTC\Desktop\單晶片微控制器(一)\0522\IRLEDControl.c"
  90  000E  35D1        	clr [81].3
  90  000F  37B4        	clr [52].7
"File: IRLEDControl.c  Assembler  Version HGASM0202      Page 4

  90  0010  3734        	clr [52].6
  91  0011              #line 91 "C:\Users\YVTC\Desktop\單晶片微控制器(一)\0522\IRLEDControl.c"
  91  0011  0756        	mov a,[86]
  91  0012  0080     E  	mov rc,a
  91  0013  1F00     E  	clr rb
  91  0014  0755        	mov a,[85]
  91  0015  0580     E  	orm a,rb
  92  0016              #line 92 "C:\Users\YVTC\Desktop\單晶片微控制器(一)\0522\IRLEDControl.c"
  92  0016  0F7F        	mov a,127
  92  0017  0200     E  	sub a,rb
  92  0018  0F3E        	mov a,62
  92  0019  1200     E  	sbc a,rc
  92  001A  3C0A        	sz c
  92  001B  2800     R  	jmp _L29
  93  001C              #line 93 "C:\Users\YVTC\Desktop\單晶片微控制器(一)\0522\IRLEDControl.c"
  93  001C  0F50        	mov a,80
  93  001D  00D2        	mov [82],a
  94  001E              #line 94 "C:\Users\YVTC\Desktop\單晶片微控制器(一)\0522\IRLEDControl.c"
  94  001E  31D1        	set [81].3
  94  001F              _L16:
  95  001F              #line 95 "C:\Users\YVTC\Desktop\單晶片微控制器(一)\0522\IRLEDControl.c"
  95  001F  3FB4        	sz [52].7
  95  0020  2800     R  	jmp _L31
  96  0021              #line 96 "C:\Users\YVTC\Desktop\單晶片微控制器(一)\0522\IRLEDControl.c"
  96  0021  3B34        	snz [52].6
  96  0022  2800     R  	jmp _L16
  96  0023              _L28:
  96  0023  35D1        	clr [81].3
  96  0024              _L29:
  96  0024  1F00     E  	clr ra
  96  0025  2800     R  	jmp _L13
  96  0026              _L31:
  98  0026              #line 98 "C:\Users\YVTC\Desktop\單晶片微控制器(一)\0522\IRLEDControl.c"
  98  0026  35D1        	clr [81].3
  98  0027  37B4        	clr [52].7
  98  0028  3734        	clr [52].6
  99  0029              #line 99 "C:\Users\YVTC\Desktop\單晶片微控制器(一)\0522\IRLEDControl.c"
  99  0029  0756        	mov a,[86]
  99  002A  0080     E  	mov rc,a
  99  002B  1F00     E  	clr rb
  99  002C  0755        	mov a,[85]
  99  002D  0580     E  	orm a,rb
 100  002E              #line 100 "C:\Users\YVTC\Desktop\單晶片微控制器(一)\0522\IRLEDControl.c"
 100  002E  0F60        	mov a,96
 100  002F  0300     E  	add a,rb
 100  0030  0080     E  	mov rd,a
 100  0031  0FF0        	mov a,240
 100  0032  1300     E  	adc a,rc
 100  0033  0080     E  	mov re,a
 100  0034  0FE0        	mov a,224
 100  0035  0200     E  	sub a,rd
 100  0036  0F15        	mov a,21
 100  0037  1200     E  	sbc a,re
 100  0038  380A        	snz c
 100  0039  2800     R  	jmp _L29
 101  003A              #line 101 "C:\Users\YVTC\Desktop\單晶片微控制器(一)\0522\IRLEDControl.c"
 101  003A  0F4F        	mov a,79
 101  003B  0200     E  	sub a,rb
 101  003C  0F14        	mov a,20
 101  003D  1200     E  	sbc a,rc
"File: IRLEDControl.c  Assembler  Version HGASM0202      Page 5

 101  003E  3C0A        	sz c
 101  003F  2800     R  	jmp _L25
 101  0040  1F00     E  	clr rh
 101  0041  0F01        	mov a,1
 101  0042  0080     E  	mov rd,a
 101  0043  1F00     E  	clr re
 101  0044  1F00     E  	clr rf
 101  0045  1F00     E  	clr rg
 101  0046  1F00     R  	clr _IRDecoder_2[4]
 101  0047  1F00     R  	clr _IRDecoder_2[5]
 101  0048  1F00     R  	clr _IRDecoder_2[6]
 101  0049  1F00     R  	clr _IRDecoder_2[7]
 101  004A              _L24:
 103  004A              #line 103 "C:\Users\YVTC\Desktop\單晶片微控制器(一)\0522\IRLEDControl.c"
 103  004A  31D1        	set [81].3
 103  004B              _L21:
 104  004B              #line 104 "C:\Users\YVTC\Desktop\單晶片微控制器(一)\0522\IRLEDControl.c"
 104  004B  3BB4        	snz [52].7
 104  004C  2800     R  	jmp _L21
 105  004D              #line 105 "C:\Users\YVTC\Desktop\單晶片微控制器(一)\0522\IRLEDControl.c"
 105  004D  0756        	mov a,[86]
 105  004E  0080     R  	mov _IRDecoder_2[9],a
 105  004F  1F00     R  	clr _IRDecoder_2[8]
 105  0050  0755        	mov a,[85]
 105  0051  0080     E  	mov ra,a
 106  0052              #line 106 "C:\Users\YVTC\Desktop\單晶片微控制器(一)\0522\IRLEDControl.c"
 106  0052  35D1        	clr [81].3
 106  0053  37B4        	clr [52].7
 105  0054              #line 105 "C:\Users\YVTC\Desktop\單晶片微控制器(一)\0522\IRLEDControl.c"
 105  0054  0700     R  	mov a,_IRDecoder_2[9]
 105  0055  0080     E  	mov rc,a
 105  0056  0700     E  	mov a,ra
 105  0057  0500     R  	or a,_IRDecoder_2[8]
 105  0058  0080     E  	mov rb,a
 107  0059              #line 107 "C:\Users\YVTC\Desktop\單晶片微控制器(一)\0522\IRLEDControl.c"
 107  0059  0FB8        	mov a,184
 107  005A  0200     E  	sub a,rb
 107  005B  0F0B        	mov a,11
 107  005C  1200     E  	sbc a,rc
 107  005D  3C0A        	sz c
 107  005E  2800     R  	jmp _L22
 107  005F  0700     E  	mov a,rg
 107  0060  0580     R  	orm a,_IRDecoder_2[7]
 107  0061  0700     E  	mov a,rf
 107  0062  0580     R  	orm a,_IRDecoder_2[6]
 107  0063  0700     E  	mov a,re
 107  0064  0580     R  	orm a,_IRDecoder_2[5]
 107  0065  0700     E  	mov a,rd
 107  0066  0580     R  	orm a,_IRDecoder_2[4]
 107  0067              _L22:
 108  0067              #line 108 "C:\Users\YVTC\Desktop\單晶片微控制器(一)\0522\IRLEDControl.c"
 108  0067  0700     E  	mov a,rd
 108  0068  0380     E  	addm a,rd
 108  0069  0700     E  	mov a,re
 108  006A  1380     E  	adcm a,re
 108  006B  0700     E  	mov a,rf
 108  006C  1380     E  	adcm a,rf
 108  006D  0700     E  	mov a,rg
 108  006E  1380     E  	adcm a,rg
 108  006F  1480     E  	inc rh
"File: IRLEDControl.c  Assembler  Version HGASM0202      Page 6

 102  0070              #line 102 "C:\Users\YVTC\Desktop\單晶片微控制器(一)\0522\IRLEDControl.c"
 102  0070  0700     E  	mov a,rh
 102  0071  0A20        	sub a,32
 102  0072  390A        	snz z
 102  0073  2800     R  	jmp _L24
 110  0074              #line 110 "C:\Users\YVTC\Desktop\單晶片微控制器(一)\0522\IRLEDControl.c"
 110  0074  35D1        	clr [81].3
 111  0075              #line 111 "C:\Users\YVTC\Desktop\單晶片微控制器(一)\0522\IRLEDControl.c"
 111  0075  0700     R  	mov a,_IRDecoder_2[0]
 111  0076  0083        	mov mp,a
 111  0077  0700     R  	mov a,_IRDecoder_2[1]
 111  0078  0084        	mov sbp,a
 111  0079  0700     R  	mov a,_IRDecoder_2[4]
 111  007A  0082        	mov ir,a
 111  007B  1483        	inc mp
 111  007C  0700     R  	mov a,_IRDecoder_2[5]
 111  007D  0082        	mov ir,a
 112  007E              #line 112 "C:\Users\YVTC\Desktop\單晶片微控制器(一)\0522\IRLEDControl.c"
 112  007E  0700     R  	mov a,_IRDecoder_2[2]
 112  007F  0083        	mov mp,a
 112  0080  0700     R  	mov a,_IRDecoder_2[3]
 112  0081  0084        	mov sbp,a
 112  0082  0700     R  	mov a,_IRDecoder_2[6]
 112  0083  0082        	mov ir,a
 112  0084  1483        	inc mp
 112  0085  0700     R  	mov a,_IRDecoder_2[7]
 112  0086  0082        	mov ir,a
 113  0087              #line 113 "C:\Users\YVTC\Desktop\單晶片微控制器(一)\0522\IRLEDControl.c"
 113  0087  0F02        	mov a,2
 113  0088  0080     E  	mov ra,a
 113  0089  2800     R  	jmp _L13
 113  008A              _L25:
 101  008A              #line 101 "C:\Users\YVTC\Desktop\單晶片微控制器(一)\0522\IRLEDControl.c"
 101  008A  0F01        	mov a,1
 101  008B  0080     E  	mov ra,a
 101  008C              _L13:
 114  008C              #line 114 "C:\Users\YVTC\Desktop\單晶片微控制器(一)\0522\IRLEDControl.c"
 114  008C  0700     E  	mov a,ra
 114  008D  0003        	ret
 114  008E              _IRDecoder endp
 114  008E              #line 114 "C:\Users\YVTC\Desktop\單晶片微控制器(一)\0522\IRLEDControl.c"
 114  008E              #pragma debug scope 1 1
 114  008E              ___pgc equ [43]
 114  008E              ___ph equ [46]
 114  008E              ___pg equ [42]
 114  008E              public _LCMWrite
 114  008E              #pragma debug scope 4 1
 125  008E              #line 125 "C:\Users\YVTC\Desktop\單晶片微控制器(一)\0522\IRLEDControl.c"
 125  0000              _LCMWrite .section 'code'
 125  0000              _LCMWrite proc
 125  0000              public _LCMWrite_2
 125  0000  0002[           local _LCMWrite_2 db 2 dup(?)	; 1,1
            00
            ]
 125  0000  0080     R  	mov _LCMWrite_2[1],a
 125  0001              #pragma debug variable 8 4 _LCMWrite_2+1 "DCFlag"
 125  0001              #pragma debug variable 8 4 _LCMWrite_2+0 "CD"
 126  0001              #line 126 "C:\Users\YVTC\Desktop\單晶片微控制器(一)\0522\IRLEDControl.c"
 126  0001  1FAB        	set [43]
 127  0002              #line 127 "C:\Users\YVTC\Desktop\單晶片微控制器(一)\0522\IRLEDControl.c"
"File: IRLEDControl.c  Assembler  Version HGASM0202      Page 7

 127  0002  342E        	clr [46].0
 127  0003  30AE        	set [46].1
 128  0004              #line 128 "C:\Users\YVTC\Desktop\單晶片微控制器(一)\0522\IRLEDControl.c"
 128  0004              ;# 128 "C:\Users\YVTC\Desktop\單晶片微控制器(一)\0522\IRLEDControl.c" 1
 128  0004  0000        	nop
 128  0005              _L34:
 130  0005              #line 130 "C:\Users\YVTC\Desktop\單晶片微控制器(一)\0522\IRLEDControl.c"
 130  0005  312E        	set [46].2
 130  0006              ;# 130 "C:\Users\YVTC\Desktop\單晶片微控制器(一)\0522\IRLEDControl.c" 1
 130  0006  0000        	nop
 131  0007              #line 131 "C:\Users\YVTC\Desktop\單晶片微控制器(一)\0522\IRLEDControl.c"
 131  0007  072A        	mov a,[42]
 131  0008  0080     E  	mov ra,a
 132  0009              #line 132 "C:\Users\YVTC\Desktop\單晶片微控制器(一)\0522\IRLEDControl.c"
 132  0009  352E        	clr [46].2
 133  000A              #line 133 "C:\Users\YVTC\Desktop\單晶片微控制器(一)\0522\IRLEDControl.c"
 133  000A  3C00     E  	sz ra.7
 133  000B  2800     R  	jmp _L34
 134  000C              #line 134 "C:\Users\YVTC\Desktop\單晶片微控制器(一)\0522\IRLEDControl.c"
 134  000C  1F2B        	clr [43]
 135  000D              #line 135 "C:\Users\YVTC\Desktop\單晶片微控制器(一)\0522\IRLEDControl.c"
 135  000D  34AE        	clr [46].1
 136  000E              #line 136 "C:\Users\YVTC\Desktop\單晶片微控制器(一)\0522\IRLEDControl.c"
 136  000E  0700     R  	mov a,_LCMWrite_2[1]
 136  000F  0E01        	and a,1
 136  0010  0080     E  	mov rb,a
 136  0011  342E        	clr [46].0
 136  0012  0700     E  	mov a,rb
 136  0013  05AE        	orm a,[46]
 137  0014              #line 137 "C:\Users\YVTC\Desktop\單晶片微控制器(一)\0522\IRLEDControl.c"
 137  0014  0700     R  	mov a,_LCMWrite_2[0]
 137  0015  00AA        	mov [42],a
 138  0016              #line 138 "C:\Users\YVTC\Desktop\單晶片微控制器(一)\0522\IRLEDControl.c"
 138  0016  312E        	set [46].2
 138  0017              ;# 138 "C:\Users\YVTC\Desktop\單晶片微控制器(一)\0522\IRLEDControl.c" 1
 138  0017  0000        	nop
 138  0018  352E        	clr [46].2
 140  0019              #line 140 "C:\Users\YVTC\Desktop\單晶片微控制器(一)\0522\IRLEDControl.c"
 140  0019  0700     E  	mov a,ra
 140  001A  0003        	ret
 140  001B              _LCMWrite endp
 140  001B              #line 140 "C:\Users\YVTC\Desktop\單晶片微控制器(一)\0522\IRLEDControl.c"
 140  001B              #pragma debug scope 1 1
 140  001B              public _Display
 140  001B              #pragma debug scope 5 1
  69  001B              #line 69 "C:\Users\YVTC\Desktop\單晶片微控制器(一)\0522\IRLEDControl.c"
  69  0000              _Display .section 'code'
  69  0000              _Display proc
  69  0000              public _Display_2
  69  0000  0005[           local _Display_2 db 5 dup(?)	; 2,3
            00
            ]
  69  0005              #pragma debug pointer 43 12 5
  69  0005              #pragma debug pointer 43 12 5
  69  0005              #pragma debug variable 43 5 _Display_2+0 "ptr"
  69  0005              #pragma debug variable 10 5 _Display_2+2 "x"
  70  0005              #line 70 "C:\Users\YVTC\Desktop\單晶片微控制器(一)\0522\IRLEDControl.c"
  70  0000  0F03        	mov a,3
  70  0001  0080     E  	mov ra,a
  69  0002              #line 69 "C:\Users\YVTC\Desktop\單晶片微控制器(一)\0522\IRLEDControl.c"
"File: IRLEDControl.c  Assembler  Version HGASM0202      Page 8

  69  0002  1F00     R  	clr _Display_2[2]
  69  0003  0FF0        	mov a,-16
  69  0004  0080     R  	mov _Display_2[3],a
  69  0005              _L40:
  72  0005              #line 72 "C:\Users\YVTC\Desktop\單晶片微控制器(一)\0522\IRLEDControl.c"
  72  0005  1500     E  	deca ra
  72  0006  0080     R  	mov _Display_2[4],a
  72  0007  0700     R  	mov a,_Display_2[0]
  72  0008  0083        	mov mp,a
  72  0009  0700     R  	mov a,_Display_2[1]
  72  000A  0084        	mov sbp,a
  72  000B              	fcall _Crom2Prom
  72  0012  0080     E  	mov rb,a
  72  0013              	fcall _Crom2PromNext
  72  001A  0080     E  	mov rc,a
  72  001B  0700     R  	mov a,_Display_2[2]  
  72  001C  0680     E  	andm a,rb  
  72  001D  0700     R  	mov a,_Display_2[3]  
  72  001E  0680     E  	andm a,rc
  72  001F  340A        	clr c
  72  0020  1A80     E  	rlc ra
  72  0021  340A        	clr c
  72  0022  1A80     E  	rlc ra
  72  0023  1400     E  	inca ra
  72  0024  2800     R  	jmp _LI1
  72  0025              _LI2:
  72  0025  340A        	clr c
  72  0026  1B80     E  	rrc rc
  72  0027  1B80     E  	rrc rb
  72  0028              _LI1:
  72  0028  1785        	sdz acc
  72  0029  2800     R  	jmp _LI2
  73  002A              #line 73 "C:\Users\YVTC\Desktop\單晶片微控制器(一)\0522\IRLEDControl.c"
  73  002A  0F09        	mov a,9
  73  002B  0200     E  	sub a,rb
  73  002C  3C0A        	sz c
  73  002D  2800     R  	jmp _L36
  73  002E  0F37        	mov a,55
  73  002F  0380     E  	addm a,rb
  73  0030  2800     R  	jmp _L37
  73  0031              _L36:
  73  0031  0F30        	mov a,48
  73  0032  0380     E  	addm a,rb
  73  0033              _L37:
  74  0033              #line 74 "C:\Users\YVTC\Desktop\單晶片微控制器(一)\0522\IRLEDControl.c"
  74  0033  0700     E  	mov a,rb
  74  0034  0080     R  	mov _LCMWrite_2[0],a
  74  0035  0F01        	mov a,1
  74  0036              	fcall _LCMWrite
  75  003D              #line 75 "C:\Users\YVTC\Desktop\單晶片微控制器(一)\0522\IRLEDControl.c"
  75  003D  1700     R  	sdza _Display_2[4]
  75  003E  2800     R  	jmp _L38
  75  003F  0F20        	mov a,32
  75  0040  0080     R  	mov _LCMWrite_2[0],a
  75  0041  0F01        	mov a,1
  75  0042              	fcall _LCMWrite
  75  0049              _L38:
  76  0049              #line 76 "C:\Users\YVTC\Desktop\單晶片微控制器(一)\0522\IRLEDControl.c"
  76  0049  0F04        	mov a,4
  76  004A              _LI3:
"File: IRLEDControl.c  Assembler  Version HGASM0202      Page 9

  76  004A  340A        	clr c
  76  004B  1B80     R  	rrc _Display_2[3]
  76  004C  1B80     R  	rrc _Display_2[2]
  76  004D  1785        	sdz acc
  76  004E  2800     R  	jmp _LI3
  76  004F  1600     R  	siza _Display_2[4]
  76  0050  2800     R  	jmp _LI4
  76  0051  2800     R  	jmp _L35
  76  0052              _LI4:
  72  0052              #line 72 "C:\Users\YVTC\Desktop\單晶片微控制器(一)\0522\IRLEDControl.c"
  72  0052  0700     R  	mov a,_Display_2[4]
  72  0053  0080     E  	mov ra,a
  72  0054  2800     R  	jmp _L40
  72  0055              _L35:
  72  0055  0003        	ret
  72  0056              _Display endp
  72  0056              #line 72 "C:\Users\YVTC\Desktop\單晶片微控制器(一)\0522\IRLEDControl.c"
  72  0056              #pragma debug scope 1 1
  72  0056              ___phc equ [47]
  72  0056              public _LCMInit
  72  0056              #pragma debug scope 6 1
 116  0056              #line 116 "C:\Users\YVTC\Desktop\單晶片微控制器(一)\0522\IRLEDControl.c"
 116  0000              _LCMInit .section 'code'
 116  0000              _LCMInit proc
 116  0000  352E        	clr [46].2
 116  0001  34AE        	clr [46].1
 116  0002  342E        	clr [46].0
 117  0003              #line 117 "C:\Users\YVTC\Desktop\單晶片微控制器(一)\0522\IRLEDControl.c"
 117  0003  352F        	clr [47].2
 117  0004  34AF        	clr [47].1
 117  0005  342F        	clr [47].0
 118  0006              #line 118 "C:\Users\YVTC\Desktop\單晶片微控制器(一)\0522\IRLEDControl.c"
 118  0006              ;# 118 "C:\Users\YVTC\Desktop\單晶片微控制器(一)\0522\IRLEDControl.c" 1
 118  0006              	IF 50000>263690
 118  0006              ;# 118 "C:\Users\YVTC\Desktop\單晶片微控制器(一)\0522\IRLEDControl.c" 1
 118  0006              	ERRMESSAGE 'the value 50000of the argument exceeds the maxinum 263690'
 118  0006              	ENDIF
 118  0006              ;# 118 "C:\Users\YVTC\Desktop\單晶片微控制器(一)\0522\IRLEDControl.c" 1
 118  0006              	IF 50000<0
 118  0006              ;# 118 "C:\Users\YVTC\Desktop\單晶片微控制器(一)\0522\IRLEDControl.c" 1
 118  0006              	ERRMESSAGE 'the value 50000 of the argument exceeds the mininum 0'
 118  0006              	ENDIF
 118  0006              ;# 118 "C:\Users\YVTC\Desktop\單晶片微控制器(一)\0522\IRLEDControl.c" 1
 118  0006              	IF 50000==0
 118  0006              ;# 118 "C:\Users\YVTC\Desktop\單晶片微控制器(一)\0522\IRLEDControl.c" 1
 118  0006              	JMP $
 118  0006              	ENDIF
 118  0006              ;# 118 "C:\Users\YVTC\Desktop\單晶片微控制器(一)\0522\IRLEDControl.c" 1
 118  0006              	IF (50000>=1) AND (50000<( 4 + __PBP__ * 2))
 118  0006              ;# 118 "C:\Users\YVTC\Desktop\單晶片微控制器(一)\0522\IRLEDControl.c" 1
 118  0006              	NOP
 118  0006              	ENDIF
 118  0006              ;# 118 "C:\Users\YVTC\Desktop\單晶片微控制器(一)\0522\IRLEDControl.c" 1
 118  0006              	IF (50000>=2) AND (50000<( 4 + __PBP__ * 2))
 118  0006              ;# 118 "C:\Users\YVTC\Desktop\單晶片微控制器(一)\0522\IRLEDControl.c" 1
 118  0006              	NOP
 118  0006              	ENDIF
 118  0006              ;# 118 "C:\Users\YVTC\Desktop\單晶片微控制器(一)\0522\IRLEDControl.c" 1
 118  0006              	IF (50000>=3) AND (50000<( 4 + __PBP__ * 2))
 118  0006              ;# 118 "C:\Users\YVTC\Desktop\單晶片微控制器(一)\0522\IRLEDControl.c" 1
"File: IRLEDControl.c  Assembler  Version HGASM0202      Page 10

 118  0006              	NOP
 118  0006              	ENDIF
 118  0006              ;# 118 "C:\Users\YVTC\Desktop\單晶片微控制器(一)\0522\IRLEDControl.c" 1
 118  0006              	IF (50000>=4) AND (50000<( 4 + __PBP__ * 2)) AND ( __PBP__ > 0 )
 118  0006              ;# 118 "C:\Users\YVTC\Desktop\單晶片微控制器(一)\0522\IRLEDControl.c" 1
 118  0006              	NOP
 118  0006              	ENDIF
 118  0006              ;# 118 "C:\Users\YVTC\Desktop\單晶片微控制器(一)\0522\IRLEDControl.c" 1
 118  0006              	IF (50000>=5) AND (50000<( 4 + __PBP__ * 2)) AND ( __PBP__ > 0 )
 118  0006              ;# 118 "C:\Users\YVTC\Desktop\單晶片微控制器(一)\0522\IRLEDControl.c" 1
 118  0006              	NOP
 118  0006              	ENDIF
 118  0006              ;# 118 "C:\Users\YVTC\Desktop\單晶片微控制器(一)\0522\IRLEDControl.c" 1
 118  0006              	IF (50000>=6) AND (50000<( 4 + __PBP__ * 2))  AND ( __PBP__ > 1 )
 118  0006              ;# 118 "C:\Users\YVTC\Desktop\單晶片微控制器(一)\0522\IRLEDControl.c" 1
 118  0006              	NOP
 118  0006              	ENDIF
 118  0006              ;# 118 "C:\Users\YVTC\Desktop\單晶片微控制器(一)\0522\IRLEDControl.c" 1
 118  0006              	IF (50000>=7) AND (50000<( 4 + __PBP__ * 2))  AND ( __PBP__ > 1 )
 118  0006              ;# 118 "C:\Users\YVTC\Desktop\單晶片微控制器(一)\0522\IRLEDControl.c" 1
 118  0006              	NOP
 118  0006              	ENDIF
 118  0006              ;# 118 "C:\Users\YVTC\Desktop\單晶片微控制器(一)\0522\IRLEDControl.c" 1
 118  0006              	IF (50000>=8) AND (50000<( 4 + __PBP__ * 2))  AND ( __PBP__ > 2 )
 118  0006              ;# 118 "C:\Users\YVTC\Desktop\單晶片微控制器(一)\0522\IRLEDControl.c" 1
 118  0006              	NOP
 118  0006              	ENDIF
 118  0006              ;# 118 "C:\Users\YVTC\Desktop\單晶片微控制器(一)\0522\IRLEDControl.c" 1
 118  0006              	IF (50000==9)  AND ( __PBP__ > 2 )
 118  0006              ;# 118 "C:\Users\YVTC\Desktop\單晶片微控制器(一)\0522\IRLEDControl.c" 1
 118  0006              	NOP
 118  0006              	ENDIF
 118  0006              ;# 118 "C:\Users\YVTC\Desktop\單晶片微控制器(一)\0522\IRLEDControl.c" 1
 118  0006              	IF (50000< ( 8 + __PBP__ * 2)) AND (50000>( 3 + __PBP__ * 2))
 118  0006              ;# 118 "C:\Users\YVTC\Desktop\單晶片微控制器(一)\0522\IRLEDControl.c" 1
 118  0006              	fcall __DELAY3 + ( 7 + __PBP__ * 2) -50000
 118  0006              	ENDIF
 118  0006              ;# 118 "C:\Users\YVTC\Desktop\單晶片微控制器(一)\0522\IRLEDControl.c" 1
 118  0006              	IF (50000< ( 0404h + __PBP__ * 2)) AND (50000>( 7 + __PBP__ * 2))
 118  0006              ;# 118 "C:\Users\YVTC\Desktop\單晶片微控制器(一)\0522\IRLEDControl.c" 1
 118  0006              	MOV A,(50000-( 4 + __PBP__ * 2))/4
 118  0006              ;# 118 "C:\Users\YVTC\Desktop\單晶片微控制器(一)\0522\IRLEDControl.c" 1
 118  0006              	fcall __DELAYX3 + 3 -((50000-( 4 + __PBP__ * 2)) MOD 4) 
 118  0006              	ENDIF
 118  0006              ;# 118 "C:\Users\YVTC\Desktop\單晶片微控制器(一)\0522\IRLEDControl.c" 1
 118  0006              	IF (50000< ( 040bh + __PBP__ * 2)) AND (50000> ( 0403h + __PBP__ * 2))
 118  0006              ;# 118 "C:\Users\YVTC\Desktop\單晶片微控制器(一)\0522\IRLEDControl.c" 1
 118  0006              	MOV A,0 
 118  0006              ;# 118 "C:\Users\YVTC\Desktop\單晶片微控制器(一)\0522\IRLEDControl.c" 1
 118  0006              	fcall __DELAYX6 + ( 040ah + __PBP__ * 2) -50000
 118  0006              	ENDIF
 118  0006              ;# 118 "C:\Users\YVTC\Desktop\單晶片微控制器(一)\0522\IRLEDControl.c" 1
 118  0006              	IF (50000 >= ( 040bh + __PBP__ * 2)) AND ((((50000-( 9 + __PBP__ * 2))%0402h)/4+1)>256)
 118  0006              ;# 118 "C:\Users\YVTC\Desktop\單晶片微控制器(一)\0522\IRLEDControl.c" 1
 118  0006              	MOV A,(50000-( 9 + __PBP__ * 2))/0402h
 118  0006              ;# 118 "C:\Users\YVTC\Desktop\單晶片微控制器(一)\0522\IRLEDControl.c" 1
 118  0006              	MOV _builtin_holtek_delay_2,A
 118  0006              ;# 118 "C:\Users\YVTC\Desktop\單晶片微控制器(一)\0522\IRLEDControl.c" 1
 118  0006              	MOV A,0
 118  0006              ;# 118 "C:\Users\YVTC\Desktop\單晶片微控制器(一)\0522\IRLEDControl.c" 1
"File: IRLEDControl.c  Assembler  Version HGASM0202      Page 11

 118  0006              	fcall __DELAYY5 +5- (((50000-( 9 + __PBP__ * 2))%0402h)%6) 
 118  0006              	ENDIF
 118  0006              ;# 118 "C:\Users\YVTC\Desktop\單晶片微控制器(一)\0522\IRLEDControl.c" 1
 118  0006              	IF (50000 >= ( 040bh + __PBP__ * 2)) AND ((((50000-( 9 + __PBP__ * 2))%0402h)/4+1)<=256)
 118  0006              ;# 118 "C:\Users\YVTC\Desktop\單晶片微控制器(一)\0522\IRLEDControl.c" 1
 118  0006  0F30        	MOV A,(50000-( 9 + __PBP__ * 2))/0402h
 118  0007              ;# 118 "C:\Users\YVTC\Desktop\單晶片微控制器(一)\0522\IRLEDControl.c" 1
 118  0007  0080     E  	MOV _builtin_holtek_delay_2,A
 118  0008              ;# 118 "C:\Users\YVTC\Desktop\單晶片微控制器(一)\0522\IRLEDControl.c" 1
 118  0008  0FB9        	MOV A,((50000-( 9 + __PBP__ * 2))%0402h)/4+1
 118  0009              ;# 118 "C:\Users\YVTC\Desktop\單晶片微控制器(一)\0522\IRLEDControl.c" 1
 118  0009              	fcall __DELAYY3 +3-(((50000-( 9 + __PBP__ * 2))%0402h)%4) 
 118  0010              	ENDIF
 119  0010              #line 119 "C:\Users\YVTC\Desktop\單晶片微控制器(一)\0522\IRLEDControl.c"
 119  0010  0F38        	mov a,56
 119  0011  0080     R  	mov _LCMWrite_2[0],a
 119  0012  0F00        	mov a,0
 119  0013              	fcall _LCMWrite
 120  001A              #line 120 "C:\Users\YVTC\Desktop\單晶片微控制器(一)\0522\IRLEDControl.c"
 120  001A  0F0C        	mov a,12
 120  001B  0080     R  	mov _LCMWrite_2[0],a
 120  001C  0F00        	mov a,0
 120  001D              	fcall _LCMWrite
 121  0024              #line 121 "C:\Users\YVTC\Desktop\單晶片微控制器(一)\0522\IRLEDControl.c"
 121  0024  0F06        	mov a,6
 121  0025  0080     R  	mov _LCMWrite_2[0],a
 121  0026  0F00        	mov a,0
 121  0027              	fcall _LCMWrite
 122  002E              #line 122 "C:\Users\YVTC\Desktop\單晶片微控制器(一)\0522\IRLEDControl.c"
 122  002E  0F01        	mov a,1
 122  002F  0080     R  	mov _LCMWrite_2[0],a
 122  0030  0F00        	mov a,0
 122  0031              	fcall _LCMWrite
 122  0038  0003        	ret
 122  0039              _LCMInit endp
 122  0039              #line 122 "C:\Users\YVTC\Desktop\單晶片微控制器(一)\0522\IRLEDControl.c"
 122  0039              #pragma debug scope 1 1
 122  0039              public _Delayms
 122  0039              #pragma debug scope 7 1
 142  0039              #line 142 "C:\Users\YVTC\Desktop\單晶片微控制器(一)\0522\IRLEDControl.c"
 142  0000              _Delayms .section 'code'
 142  0000              _Delayms proc
 142  0000              public _Delayms_2
 142  0000  0002[           local _Delayms_2 db 2 dup(?)	; 2,0
            00
            ]
 142  0002              #pragma debug variable 10 7 _Delayms_2+0 "del"
 143  0002              #line 143 "C:\Users\YVTC\Desktop\單晶片微控制器(一)\0522\IRLEDControl.c"
 143  0000  1F00     E  	clr rb
 143  0001  1F00     E  	clr rc
 143  0002  2800     R  	jmp _L43
 143  0003              _L44:
 143  0003              #line 143 "C:\Users\YVTC\Desktop\單晶片微控制器(一)\0522\IRLEDControl.c"
 143  0003              ;# 143 "C:\Users\YVTC\Desktop\單晶片微控制器(一)\0522\IRLEDControl.c" 1
 143  0003              	IF 2000>263690
 143  0003              ;# 143 "C:\Users\YVTC\Desktop\單晶片微控制器(一)\0522\IRLEDControl.c" 1
 143  0003              	ERRMESSAGE 'the value 2000of the argument exceeds the maxinum 263690'
 143  0003              	ENDIF
 143  0003              ;# 143 "C:\Users\YVTC\Desktop\單晶片微控制器(一)\0522\IRLEDControl.c" 1
 143  0003              	IF 2000<0
"File: IRLEDControl.c  Assembler  Version HGASM0202      Page 12

 143  0003              ;# 143 "C:\Users\YVTC\Desktop\單晶片微控制器(一)\0522\IRLEDControl.c" 1
 143  0003              	ERRMESSAGE 'the value 2000 of the argument exceeds the mininum 0'
 143  0003              	ENDIF
 143  0003              ;# 143 "C:\Users\YVTC\Desktop\單晶片微控制器(一)\0522\IRLEDControl.c" 1
 143  0003              	IF 2000==0
 143  0003              ;# 143 "C:\Users\YVTC\Desktop\單晶片微控制器(一)\0522\IRLEDControl.c" 1
 143  0003              	JMP $
 143  0003              	ENDIF
 143  0003              ;# 143 "C:\Users\YVTC\Desktop\單晶片微控制器(一)\0522\IRLEDControl.c" 1
 143  0003              	IF (2000>=1) AND (2000<( 4 + __PBP__ * 2))
 143  0003              ;# 143 "C:\Users\YVTC\Desktop\單晶片微控制器(一)\0522\IRLEDControl.c" 1
 143  0003              	NOP
 143  0003              	ENDIF
 143  0003              ;# 143 "C:\Users\YVTC\Desktop\單晶片微控制器(一)\0522\IRLEDControl.c" 1
 143  0003              	IF (2000>=2) AND (2000<( 4 + __PBP__ * 2))
 143  0003              ;# 143 "C:\Users\YVTC\Desktop\單晶片微控制器(一)\0522\IRLEDControl.c" 1
 143  0003              	NOP
 143  0003              	ENDIF
 143  0003              ;# 143 "C:\Users\YVTC\Desktop\單晶片微控制器(一)\0522\IRLEDControl.c" 1
 143  0003              	IF (2000>=3) AND (2000<( 4 + __PBP__ * 2))
 143  0003              ;# 143 "C:\Users\YVTC\Desktop\單晶片微控制器(一)\0522\IRLEDControl.c" 1
 143  0003              	NOP
 143  0003              	ENDIF
 143  0003              ;# 143 "C:\Users\YVTC\Desktop\單晶片微控制器(一)\0522\IRLEDControl.c" 1
 143  0003              	IF (2000>=4) AND (2000<( 4 + __PBP__ * 2)) AND ( __PBP__ > 0 )
 143  0003              ;# 143 "C:\Users\YVTC\Desktop\單晶片微控制器(一)\0522\IRLEDControl.c" 1
 143  0003              	NOP
 143  0003              	ENDIF
 143  0003              ;# 143 "C:\Users\YVTC\Desktop\單晶片微控制器(一)\0522\IRLEDControl.c" 1
 143  0003              	IF (2000>=5) AND (2000<( 4 + __PBP__ * 2)) AND ( __PBP__ > 0 )
 143  0003              ;# 143 "C:\Users\YVTC\Desktop\單晶片微控制器(一)\0522\IRLEDControl.c" 1
 143  0003              	NOP
 143  0003              	ENDIF
 143  0003              ;# 143 "C:\Users\YVTC\Desktop\單晶片微控制器(一)\0522\IRLEDControl.c" 1
 143  0003              	IF (2000>=6) AND (2000<( 4 + __PBP__ * 2))  AND ( __PBP__ > 1 )
 143  0003              ;# 143 "C:\Users\YVTC\Desktop\單晶片微控制器(一)\0522\IRLEDControl.c" 1
 143  0003              	NOP
 143  0003              	ENDIF
 143  0003              ;# 143 "C:\Users\YVTC\Desktop\單晶片微控制器(一)\0522\IRLEDControl.c" 1
 143  0003              	IF (2000>=7) AND (2000<( 4 + __PBP__ * 2))  AND ( __PBP__ > 1 )
 143  0003              ;# 143 "C:\Users\YVTC\Desktop\單晶片微控制器(一)\0522\IRLEDControl.c" 1
 143  0003              	NOP
 143  0003              	ENDIF
 143  0003              ;# 143 "C:\Users\YVTC\Desktop\單晶片微控制器(一)\0522\IRLEDControl.c" 1
 143  0003              	IF (2000>=8) AND (2000<( 4 + __PBP__ * 2))  AND ( __PBP__ > 2 )
 143  0003              ;# 143 "C:\Users\YVTC\Desktop\單晶片微控制器(一)\0522\IRLEDControl.c" 1
 143  0003              	NOP
 143  0003              	ENDIF
 143  0003              ;# 143 "C:\Users\YVTC\Desktop\單晶片微控制器(一)\0522\IRLEDControl.c" 1
 143  0003              	IF (2000==9)  AND ( __PBP__ > 2 )
 143  0003              ;# 143 "C:\Users\YVTC\Desktop\單晶片微控制器(一)\0522\IRLEDControl.c" 1
 143  0003              	NOP
 143  0003              	ENDIF
 143  0003              ;# 143 "C:\Users\YVTC\Desktop\單晶片微控制器(一)\0522\IRLEDControl.c" 1
 143  0003              	IF (2000< ( 8 + __PBP__ * 2)) AND (2000>( 3 + __PBP__ * 2))
 143  0003              ;# 143 "C:\Users\YVTC\Desktop\單晶片微控制器(一)\0522\IRLEDControl.c" 1
 143  0003              	fcall __DELAY3 + ( 7 + __PBP__ * 2) -2000
 143  0003              	ENDIF
 143  0003              ;# 143 "C:\Users\YVTC\Desktop\單晶片微控制器(一)\0522\IRLEDControl.c" 1
 143  0003              	IF (2000< ( 0404h + __PBP__ * 2)) AND (2000>( 7 + __PBP__ * 2))
"File: IRLEDControl.c  Assembler  Version HGASM0202      Page 13

 143  0003              ;# 143 "C:\Users\YVTC\Desktop\單晶片微控制器(一)\0522\IRLEDControl.c" 1
 143  0003              	MOV A,(2000-( 4 + __PBP__ * 2))/4
 143  0003              ;# 143 "C:\Users\YVTC\Desktop\單晶片微控制器(一)\0522\IRLEDControl.c" 1
 143  0003              	fcall __DELAYX3 + 3 -((2000-( 4 + __PBP__ * 2)) MOD 4) 
 143  0003              	ENDIF
 143  0003              ;# 143 "C:\Users\YVTC\Desktop\單晶片微控制器(一)\0522\IRLEDControl.c" 1
 143  0003              	IF (2000< ( 040bh + __PBP__ * 2)) AND (2000> ( 0403h + __PBP__ * 2))
 143  0003              ;# 143 "C:\Users\YVTC\Desktop\單晶片微控制器(一)\0522\IRLEDControl.c" 1
 143  0003              	MOV A,0 
 143  0003              ;# 143 "C:\Users\YVTC\Desktop\單晶片微控制器(一)\0522\IRLEDControl.c" 1
 143  0003              	fcall __DELAYX6 + ( 040ah + __PBP__ * 2) -2000
 143  0003              	ENDIF
 143  0003              ;# 143 "C:\Users\YVTC\Desktop\單晶片微控制器(一)\0522\IRLEDControl.c" 1
 143  0003              	IF (2000 >= ( 040bh + __PBP__ * 2)) AND ((((2000-( 9 + __PBP__ * 2))%0402h)/4+1)>256)
 143  0003              ;# 143 "C:\Users\YVTC\Desktop\單晶片微控制器(一)\0522\IRLEDControl.c" 1
 143  0003              	MOV A,(2000-( 9 + __PBP__ * 2))/0402h
 143  0003              ;# 143 "C:\Users\YVTC\Desktop\單晶片微控制器(一)\0522\IRLEDControl.c" 1
 143  0003              	MOV _builtin_holtek_delay_2,A
 143  0003              ;# 143 "C:\Users\YVTC\Desktop\單晶片微控制器(一)\0522\IRLEDControl.c" 1
 143  0003              	MOV A,0
 143  0003              ;# 143 "C:\Users\YVTC\Desktop\單晶片微控制器(一)\0522\IRLEDControl.c" 1
 143  0003              	fcall __DELAYY5 +5- (((2000-( 9 + __PBP__ * 2))%0402h)%6) 
 143  0003              	ENDIF
 143  0003              ;# 143 "C:\Users\YVTC\Desktop\單晶片微控制器(一)\0522\IRLEDControl.c" 1
 143  0003              	IF (2000 >= ( 040bh + __PBP__ * 2)) AND ((((2000-( 9 + __PBP__ * 2))%0402h)/4+1)<=256)
 143  0003              ;# 143 "C:\Users\YVTC\Desktop\單晶片微控制器(一)\0522\IRLEDControl.c" 1
 143  0003  0F01        	MOV A,(2000-( 9 + __PBP__ * 2))/0402h
 143  0004              ;# 143 "C:\Users\YVTC\Desktop\單晶片微控制器(一)\0522\IRLEDControl.c" 1
 143  0004  0080     E  	MOV _builtin_holtek_delay_2,A
 143  0005              ;# 143 "C:\Users\YVTC\Desktop\單晶片微控制器(一)\0522\IRLEDControl.c" 1
 143  0005  0FF1        	MOV A,((2000-( 9 + __PBP__ * 2))%0402h)/4+1
 143  0006              ;# 143 "C:\Users\YVTC\Desktop\單晶片微控制器(一)\0522\IRLEDControl.c" 1
 143  0006              	fcall __DELAYY3 +3-(((2000-( 9 + __PBP__ * 2))%0402h)%4) 
 143  000D              	ENDIF
 143  000D  1480     E  	inc rb
 143  000E  3D0A        	sz z
 143  000F  1480     E  	inc rc
 143  0010              _L43:
 143  0010  0700     E  	mov a,rb
 143  0011  0200     R  	sub a,_Delayms_2[0]
 143  0012  0700     E  	mov a,rc
 143  0013  1200     R  	sbc a,_Delayms_2[1]
 143  0014  3B0A        	snz cz
 143  0015  2800     R  	jmp _L44
 143  0016  0003        	ret
 143  0017              _Delayms endp
 143  0017              #line 143 "C:\Users\YVTC\Desktop\單晶片微控制器(一)\0522\IRLEDControl.c"
 143  0017              #pragma debug scope 1 1
 143  0017              ___wdtc equ [62]
 143  0017              ___pdc equ [31]
 143  0017              ___tm0c0 equ [94]
 143  0017              ___tm0c1 equ [95]
 143  0017              ___tm0al equ [98]
 143  0017              ___tm0ah equ [99]
 143  0017              ___pcs2 equ [362]
 143  0017              ___ifs2 equ [330]
 143  0017              public _main
 143  0017              #pragma debug scope 8 1
  16  0017              #line 16 "C:\Users\YVTC\Desktop\單晶片微控制器(一)\0522\IRLEDControl.c"
  16  0017              IFDEF WITH_DEFAULT_STARTUP
"File: IRLEDControl.c  Assembler  Version HGASM0202      Page 14

  16  0017              extern _main_initial0:near
  16  0017              extern _main_startup:near
  16  0017              ENDIF
  16  0017              
  16  0017              ROMBANK 0 @start
  16  0000              @start .section com_l 'code'
  16  0000              _main_startup1:
  16  0000              @start .section com_e 'code'
  16  0000  0F00     R  	mov a,bank _main
  16  0001  008B        	mov bp,a
  16  0002  2800     R  	jmp _main
  16  0003              
  16  0000              _main .section 'code'
  16  0000              _main proc
  16  0000  0005[           local _main_2 db 5 dup(?)
            00
            ]
  16  0005              #pragma debug variable 10 8 _main_2+2 "adrs"
  16  0005              #pragma debug variable 10 8 _main_2+0 "cmd"
  16  0005              #pragma debug variable 8 8 _main_2+4 "state"
  18  0005              #line 18 "C:\Users\YVTC\Desktop\單晶片微控制器(一)\0522\IRLEDControl.c"
  18  0000  0FAF        	mov a,175
  18  0001  00BE        	mov [62],a
  19  0002              #line 19 "C:\Users\YVTC\Desktop\單晶片微控制器(一)\0522\IRLEDControl.c"
  19  0002  0F0F        	mov a,15
  19  0003  059E        	orm a,[30]
  19  0004  0FF0        	mov a,240
  19  0005  069F        	andm a,[31]
  20  0006              #line 20 "C:\Users\YVTC\Desktop\單晶片微控制器(一)\0522\IRLEDControl.c"
  20  0006  1F5E        	clr [94]
  20  0007  0F31        	mov a,49
  20  0008  00DF        	mov [95],a
  21  0009              #line 21 "C:\Users\YVTC\Desktop\單晶片微控制器(一)\0522\IRLEDControl.c"
  21  0009  0FF4        	mov a,244
  21  000A  00E2        	mov [98],a
  21  000B  0F01        	mov a,1
  21  000C  00E3        	mov [99],a
  22  000D              #line 22 "C:\Users\YVTC\Desktop\單晶片微控制器(一)\0522\IRLEDControl.c"
  22  000D  0F20        	mov a,32
  22  000E  80EA 0001   	lmov [362],a
  23  0010              #line 23 "C:\Users\YVTC\Desktop\單晶片微控制器(一)\0522\IRLEDControl.c"
  23  0010  1F51        	clr [81]
  24  0011              #line 24 "C:\Users\YVTC\Desktop\單晶片微控制器(一)\0522\IRLEDControl.c"
  24  0011  9F4A 0001   	lclr [330]
  25  0013              #line 25 "C:\Users\YVTC\Desktop\單晶片微控制器(一)\0522\IRLEDControl.c"
  25  0013              	fcall _LCMInit
  26  001A              #line 26 "C:\Users\YVTC\Desktop\單晶片微控制器(一)\0522\IRLEDControl.c"
  26  001A  0F80        	mov a,128
  26  001B  0080     R  	mov _LCMWrite_2[0],a
  26  001C  0F00        	mov a,0
  26  001D              	fcall _LCMWrite
  26  0024  1F00     R  	clr _main_2[4]
  26  0025              _L46:
  27  0025              #line 27 "C:\Users\YVTC\Desktop\單晶片微控制器(一)\0522\IRLEDControl.c"
  27  0025  0F00     R  	mov a,low offset _STR1
  27  0026  0300     R  	add a,_main_2[4]
  27  0027  0083        	mov mp,a
  27  0028  0F00     R  	mov a,high offset _STR1
  27  0029  1F04        	clr sbp
  27  002A  1384        	adcm a,sbp
"File: IRLEDControl.c  Assembler  Version HGASM0202      Page 15

  27  002B              	fcall _Crom2Prom
  27  0032  0080     E  	mov ra,a
  27  0033  1E00     E  	snz ra
  27  0034  2800     R  	jmp _L55
  27  0035  1480     R  	inc _main_2[4]
  27  0036  0700     E  	mov a,ra
  27  0037  0080     R  	mov _LCMWrite_2[0],a
  27  0038  0F01        	mov a,1
  27  0039              	fcall _LCMWrite
  27  0040  2800     R  	jmp _L46
  27  0041              _L55:
  28  0041              #line 28 "C:\Users\YVTC\Desktop\單晶片微控制器(一)\0522\IRLEDControl.c"
  28  0041  0FC0        	mov a,192
  28  0042  0080     R  	mov _LCMWrite_2[0],a
  28  0043  0F00        	mov a,0
  28  0044              	fcall _LCMWrite
  28  004B  1F00     R  	clr _main_2[4]
  28  004C              _L48:
  29  004C              #line 29 "C:\Users\YVTC\Desktop\單晶片微控制器(一)\0522\IRLEDControl.c"
  29  004C  0F00     R  	mov a,low offset _STR2
  29  004D  0300     R  	add a,_main_2[4]
  29  004E  0083        	mov mp,a
  29  004F  0F00     R  	mov a,high offset _STR2
  29  0050  1F04        	clr sbp
  29  0051  1384        	adcm a,sbp
  29  0052              	fcall _Crom2Prom
  29  0059  0080     E  	mov ra,a
  29  005A  1E00     E  	snz ra
  29  005B  2800     R  	jmp _L53
  29  005C  1480     R  	inc _main_2[4]
  29  005D  0700     E  	mov a,ra
  29  005E  0080     R  	mov _LCMWrite_2[0],a
  29  005F  0F01        	mov a,1
  29  0060              	fcall _LCMWrite
  29  0067  2800     R  	jmp _L48
  29  0068              _L56:
  32  0068              #line 32 "C:\Users\YVTC\Desktop\單晶片微控制器(一)\0522\IRLEDControl.c"
  32  0068  0700     R  	mov a,_main_2[3]
  32  0069  0CFF        	xor a,255
  32  006A  0500     R  	or a,_main_2[2]
  32  006B  390A        	snz z
  32  006C  2800     R  	jmp _L51
  33  006D              #line 33 "C:\Users\YVTC\Desktop\單晶片微控制器(一)\0522\IRLEDControl.c"
  33  006D  0700     R  	mov a,_main_2[0]
  33  006E  0080     R  	mov _LED_2[0],a
  33  006F  0700     R  	mov a,_main_2[1]
  33  0070  0080     R  	mov _LED_2[1],a
  33  0071              	fcall _LED
  34  0078              #line 34 "C:\Users\YVTC\Desktop\單晶片微控制器(一)\0522\IRLEDControl.c"
  34  0078  0F89        	mov a,137
  34  0079  0080     R  	mov _LCMWrite_2[0],a
  34  007A  0F00        	mov a,0
  34  007B              	fcall _LCMWrite
  34  0082  0F00     R  	mov a,low offset _main_2
  34  0083  0080     E  	mov ra,a
  34  0084  0F00     R  	mov a,high offset _main_2
  34  0085  0080     E  	mov rb,a
  34  0086  0F02        	mov a,2
  34  0087  0300     E  	add a,ra
  34  0088  0080     R  	mov _Display_2[0],a
"File: IRLEDControl.c  Assembler  Version HGASM0202      Page 16

  34  0089  0F00        	mov a,0
  34  008A  1300     E  	adc a,rb
  34  008B  0080     R  	mov _Display_2[1],a
  34  008C              	fcall _Display
  35  0093              #line 35 "C:\Users\YVTC\Desktop\單晶片微控制器(一)\0522\IRLEDControl.c"
  35  0093  0FC9        	mov a,201
  35  0094  0080     R  	mov _LCMWrite_2[0],a
  35  0095  0F00        	mov a,0
  35  0096              	fcall _LCMWrite
  35  009D  0F00     R  	mov a,low offset _main_2
  35  009E  0080     R  	mov _Display_2[0],a
  35  009F  0F00     R  	mov a,high offset _main_2
  35  00A0  0080     R  	mov _Display_2[1],a
  35  00A1              	fcall _Display
  36  00A8              #line 36 "C:\Users\YVTC\Desktop\單晶片微控制器(一)\0522\IRLEDControl.c"
  36  00A8  31DE        	set [94].3
  36  00A9  0F32        	mov a,50
  36  00AA  0080     R  	mov _Delayms_2[0],a
  36  00AB  1F00     R  	clr _Delayms_2[1]
  36  00AC              	fcall _Delayms
  36  00B3  35DE        	clr [94].3
  36  00B4  0F64        	mov a,100
  36  00B5  0080     R  	mov _Delayms_2[0],a
  36  00B6  1F00     R  	clr _Delayms_2[1]
  36  00B7              	fcall _Delayms
  37  00BE              #line 37 "C:\Users\YVTC\Desktop\單晶片微控制器(一)\0522\IRLEDControl.c"
  37  00BE  31DE        	set [94].3
  37  00BF  0F28        	mov a,40
  37  00C0  0080     R  	mov _Delayms_2[0],a
  37  00C1  1F00     R  	clr _Delayms_2[1]
  37  00C2              _L54:
  42  00C2              #line 42 "C:\Users\YVTC\Desktop\單晶片微控制器(一)\0522\IRLEDControl.c"
  42  00C2              	fcall _Delayms
  42  00C9  35DE        	clr [94].3
  42  00CA              _L51:
  48  00CA              #line 48 "C:\Users\YVTC\Desktop\單晶片微控制器(一)\0522\IRLEDControl.c"
  48  00CA  0F90        	mov a,144
  48  00CB  0080     R  	mov _LCMWrite_2[0],a
  48  00CC  0F00        	mov a,0
  48  00CD              	fcall _LCMWrite
  48  00D4  0F20        	mov a,32
  48  00D5  0080     R  	mov _LCMWrite_2[0],a
  48  00D6  0F01        	mov a,1
  48  00D7              	fcall _LCMWrite
  49  00DE              #line 49 "C:\Users\YVTC\Desktop\單晶片微控制器(一)\0522\IRLEDControl.c"
  49  00DE  0FD0        	mov a,208
  49  00DF  0080     R  	mov _LCMWrite_2[0],a
  49  00E0  0F00        	mov a,0
  49  00E1              	fcall _LCMWrite
  49  00E8  0F20        	mov a,32
  49  00E9  0080     R  	mov _LCMWrite_2[0],a
  49  00EA  0F01        	mov a,1
  49  00EB              	fcall _LCMWrite
  49  00F2              _L53:
  31  00F2              #line 31 "C:\Users\YVTC\Desktop\單晶片微控制器(一)\0522\IRLEDControl.c"
  31  00F2  0F00     R  	mov a,low offset _main_2
  31  00F3  0080     R  	mov _IRDecoder_2[2],a
  31  00F4  0F00     R  	mov a,high offset _main_2
  31  00F5  0080     R  	mov _IRDecoder_2[3],a
  31  00F6  0F00     R  	mov a,low offset _main_2
"File: IRLEDControl.c  Assembler  Version HGASM0202      Page 17

  31  00F7  0080     E  	mov ra,a
  31  00F8  0F00     R  	mov a,high offset _main_2
  31  00F9  0080     E  	mov rb,a
  31  00FA  0F02        	mov a,2
  31  00FB  0300     E  	add a,ra
  31  00FC  0080     R  	mov _IRDecoder_2[0],a
  31  00FD  0F00        	mov a,0
  31  00FE  1300     E  	adc a,rb
  31  00FF  0080     R  	mov _IRDecoder_2[1],a
  31  0100              	fcall _IRDecoder
  31  0107  0080     R  	mov _main_2[4],a
  32  0108              #line 32 "C:\Users\YVTC\Desktop\單晶片微控制器(一)\0522\IRLEDControl.c"
  32  0108  0700     R  	mov a,_main_2[4]
  32  0109  0A02        	sub a,2
  32  010A  3D0A        	sz z
  32  010B  2800     R  	jmp _L56
  39  010C              #line 39 "C:\Users\YVTC\Desktop\單晶片微控制器(一)\0522\IRLEDControl.c"
  39  010C  1700     R  	sdza _main_2[4]
  39  010D  2800     R  	jmp _L52
  39  010E  0700     R  	mov a,_main_2[3]
  39  010F  0CFF        	xor a,255
  39  0110  0500     R  	or a,_main_2[2]
  39  0111  390A        	snz z
  39  0112  2800     R  	jmp _L51
  40  0113              #line 40 "C:\Users\YVTC\Desktop\單晶片微控制器(一)\0522\IRLEDControl.c"
  40  0113  0700     R  	mov a,_main_2[0]
  40  0114  0080     R  	mov _LED_2[0],a
  40  0115  0700     R  	mov a,_main_2[1]
  40  0116  0080     R  	mov _LED_2[1],a
  40  0117              	fcall _LED
  41  011E              #line 41 "C:\Users\YVTC\Desktop\單晶片微控制器(一)\0522\IRLEDControl.c"
  41  011E  0F90        	mov a,144
  41  011F  0080     R  	mov _LCMWrite_2[0],a
  41  0120  0F00        	mov a,0
  41  0121              	fcall _LCMWrite
  41  0128  0F52        	mov a,82
  41  0129  0080     R  	mov _LCMWrite_2[0],a
  41  012A  0F01        	mov a,1
  41  012B              	fcall _LCMWrite
  42  0132              #line 42 "C:\Users\YVTC\Desktop\單晶片微控制器(一)\0522\IRLEDControl.c"
  42  0132  31DE        	set [94].3
  42  0133  0F14        	mov a,20
  42  0134  0080     R  	mov _Delayms_2[0],a
  42  0135  1F00     R  	clr _Delayms_2[1]
  42  0136  2800     R  	jmp _L54
  42  0137              _L52:
  44  0137              #line 44 "C:\Users\YVTC\Desktop\單晶片微控制器(一)\0522\IRLEDControl.c"
  44  0137  1080     R  	sz _main_2[4]
  44  0138  2800     R  	jmp _L51
  45  0139              #line 45 "C:\Users\YVTC\Desktop\單晶片微控制器(一)\0522\IRLEDControl.c"
  45  0139  0FD0        	mov a,208
  45  013A  0080     R  	mov _LCMWrite_2[0],a
  45  013B  0F00        	mov a,0
  45  013C              	fcall _LCMWrite
  45  0143  0F2E        	mov a,46
  45  0144  0080     R  	mov _LCMWrite_2[0],a
  45  0145  0F01        	mov a,1
  45  0146              	fcall _LCMWrite
  46  014D              #line 46 "C:\Users\YVTC\Desktop\單晶片微控制器(一)\0522\IRLEDControl.c"
  46  014D  0F50        	mov a,80
"File: IRLEDControl.c  Assembler  Version HGASM0202      Page 18

  46  014E  0080     R  	mov _Delayms_2[0],a
  46  014F  1F00     R  	clr _Delayms_2[1]
  46  0150              	fcall _Delayms
  46  0157  2800     R  	jmp _L51
  46  0158  2800     R  	jmp $
  46  0159              _main endp
  46  0159              
  46  0159              @dummy endp
  46  0159              
  46  0159              #line 46 "C:\Users\YVTC\Desktop\單晶片微控制器(一)\0522\IRLEDControl.c"
  46  0159              #pragma debug scope 1 1
  46  0159              public _STR2
  46  0000              @crom	.section 'crom'
  13  0000              #line 13 "C:\Users\YVTC\Desktop\單晶片微控制器(一)\0522\IRLEDControl.c"
  13  0000              @crom	.section	'crom'
  13  0000              _STR2:
  13  0000              #pragma debug array 44 8 9 1
  13  0000              #pragma debug array 44 8 9 1
  13  0000              #pragma debug variable 44 1 _STR2 "STR2"
  13  0000              	db 043h,06fh,06dh,06dh,061h,06eh,064h,03ah,00h
  13  0005              public _STR1
  12  0005              #line 12 "C:\Users\YVTC\Desktop\單晶片微控制器(一)\0522\IRLEDControl.c"
  12  0005              @crom	.section	'crom'
  12  0005              _STR1:
  12  0005              #pragma debug variable 44 1 _STR1 "STR1"
  12  0005              	db 043h,055h,053h,02eh,020h,049h,044h,03ah,00h
  12  0009              #pragma debug struct_end
  12  0009              #pragma debug struct_end
  12  0009              #pragma debug union_end
  12  0009              #pragma debug union_end
  12  0009              #pragma debug variable 46 1 ___pc "__pc" 1
  12  0009              #pragma debug struct_end
  12  0009              #pragma debug struct_end
  12  0009              #pragma debug union_end
  12  0009              #pragma debug union_end
  12  0009              #pragma debug variable 48 1 ___pd "__pd" 1
  12  0009              #pragma debug struct_end
  12  0009              #pragma debug struct_end
  12  0009              #pragma debug union_end
  12  0009              #pragma debug union_end
  12  0009              #pragma debug variable 50 1 ___pdc "__pdc" 1
  12  0009              #pragma debug struct_end
  12  0009              #pragma debug struct_end
  12  0009              #pragma debug union_end
  12  0009              #pragma debug union_end
  12  0009              #pragma debug variable 52 1 ___pg "__pg" 1
  12  0009              #pragma debug struct_end
  12  0009              #pragma debug struct_end
  12  0009              #pragma debug union_end
  12  0009              #pragma debug union_end
  12  0009              #pragma debug variable 54 1 ___pgc "__pgc" 1
  12  0009              #pragma debug struct_end
  12  0009              #pragma debug struct_end
  12  0009              #pragma debug union_end
  12  0009              #pragma debug union_end
  12  0009              #pragma debug variable 56 1 ___ph "__ph" 1
  12  0009              #pragma debug struct_end
  12  0009              #pragma debug struct_end
  12  0009              #pragma debug union_end
  12  0009              #pragma debug union_end
"File: IRLEDControl.c  Assembler  Version HGASM0202      Page 19

  12  0009              #pragma debug variable 58 1 ___phc "__phc" 1
  12  0009              #pragma debug struct_end
  12  0009              #pragma debug struct_end
  12  0009              #pragma debug union_end
  12  0009              #pragma debug union_end
  12  0009              #pragma debug variable 60 1 ___mfi0 "__mfi0" 1
  12  0009              #pragma debug struct_end
  12  0009              #pragma debug struct_end
  12  0009              #pragma debug union_end
  12  0009              #pragma debug union_end
  12  0009              #pragma debug variable 62 1 ___wdtc "__wdtc" 1
  12  0009              #pragma debug struct_end
  12  0009              #pragma debug struct_end
  12  0009              #pragma debug union_end
  12  0009              #pragma debug union_end
  12  0009              #pragma debug variable 64 1 ___tm2c0 "__tm2c0" 1
  12  0009              #pragma debug struct_end
  12  0009              #pragma debug struct_end
  12  0009              #pragma debug union_end
  12  0009              #pragma debug union_end
  12  0009              #pragma debug variable 66 1 ___tm2c1 "__tm2c1" 1
  12  0009              #pragma debug variable 8 1 ___tm2al "__tm2al" 1
  12  0009              #pragma debug variable 8 1 ___tm2ah "__tm2ah" 1
  12  0009              #pragma debug variable 8 1 ___tm2rp "__tm2rp" 1
  12  0009              #pragma debug struct_end
  12  0009              #pragma debug struct_end
  12  0009              #pragma debug union_end
  12  0009              #pragma debug union_end
  12  0009              #pragma debug variable 68 1 ___tm0c0 "__tm0c0" 1
  12  0009              #pragma debug struct_end
  12  0009              #pragma debug struct_end
  12  0009              #pragma debug union_end
  12  0009              #pragma debug union_end
  12  0009              #pragma debug variable 70 1 ___tm0c1 "__tm0c1" 1
  12  0009              #pragma debug variable 8 1 ___tm0al "__tm0al" 1
  12  0009              #pragma debug variable 8 1 ___tm0ah "__tm0ah" 1
  12  0009              #pragma debug struct_end
  12  0009              #pragma debug struct_end
  12  0009              #pragma debug union_end
  12  0009              #pragma debug union_end
  12  0009              #pragma debug variable 72 1 ___ifs2 "__ifs2" 1
  12  0009              #pragma debug struct_end
  12  0009              #pragma debug struct_end
  12  0009              #pragma debug union_end
  12  0009              #pragma debug union_end
  12  0009              #pragma debug variable 74 1 ___pcs2 "__pcs2" 1
  16  0009              #line 16 "C:\Users\YVTC\Desktop\單晶片微控制器(一)\0522\IRLEDControl.c"
  16  0000              @code .section at 0 'code'
  16  0000  1F0B        	clr bp
  16  0001  2800     R  	jmp _main_startup1
  16  0002              
  16  0002              
  16  0002              ; 
  16  0002              ; Generated by holtek-gcc v3.18, Tue May 22 14:18:13 2018
  16  0002              ; Rebuild 126
  16  0002              ; end of file


        0 Errors, 0