"File: SerialLCM.c   Assembler  Version HGASM0202      Page 1


   1  0000              ; Generated by holtek-gcc v3.18, Tue May 22 15:15:45 2018
   2  0000              ; 
   3  0000              ; Configuration:
   4  0000              ;       with long instruction
   5  0000              ;       Multi-ROM, Multi-RAM
   6  0000              ;       bits_per_rom_unit:16
   7  0000              ;       with mp1
   8  0000              ;       with tbhp, address(0x9)
   9  0000              ;          Use tabrd-const
  10  0000              ;       
  11  0000              ; SFR address of long-instruction arch:
  12  0000              ;    mp0 = -1,1,0
  13  0000              ;    mp1 = 4,3,2
  14  0000              ;    mp2 = 14,13,12
  15  0000              ;    tbp = 9,7,8
  16  0000              ;    acc = 5
  17  0000              ;    pcl = 6
  18  0000              ;    status = 10
  19  0000              ;    bp = 11
  20  0000              ;    intc = 48
  21  0000              ;       
  22  0000              ;       
  23  0000              ; use 'tabrdc' instead of 'tabrd'
  24  0000              ;       
  25  0000              
  26  0000              #pragma translator "holtek-gcc 4.6.4" "3.18" "build 20130711"
  27  0000              ; Rebuild 126
  28  0000              
  29  0000              ir equ [2]
  30  0000              mp equ [3]
  31  0000              sbp equ [4]
  32  0000              acc equ [5]
  33  0000              bp equ [11]
  34  0000              tblp equ [7]
  35  0000              tbhp equ [9]
  36  0000              status equ [10]
  37  0000              c equ [10].0
  38  0000              ac equ [10].1
  39  0000              z equ [10].2
  40  0000              ov equ [10].3
  41  0000              cz equ [10].6
  42  0000              sc equ [10].7
  43  0000              intc equ [48]
  44  0000              
  45  0000              extern ra:byte
  46  0000              extern rb:byte
  47  0000              extern rc:byte
  48  0000              extern rd:byte
  49  0000              extern re:byte
  50  0000              extern rf:byte
  51  0000              extern rg:byte
  52  0000              extern rh:byte
  53  0000              extern _Crom2Prom:near
  54  0000              extern _Crom2PromNext:near
  55  0000              
  56  0000              RAMBANK 0 @BITDATASEC, @BITDATASEC1
  57  0000              @HCCINIT	.section 'data'
  58  0000              @HCCINIT0	.section 'data'
  59  0000              @BITDATASEC	 .section 'data'
"File: SerialLCM.ASM  Assembler  Version HGASM0202      Page 2

  60  0000              @BITDATASEC1	 .section 'data'
  61  0000              
  62  0000              #pragma debug scope 1 1
  63  0000              	extern __DELAY3:near
  64  0000              	extern __DELAYX3:near
  65  0000              	extern __DELAYX6:near
  66  0000              	extern __DELAYY5:near
  67  0000              	extern __DELAYY3:near
  68  0000              	extern _builtin_holtek_delay_2:byte
  69  0000              ___pa equ [18]
  70  0000              ___pac equ [19]
  71  0000              public _I2C_START
  72  0000              #pragma debug scope 2 1

  84  0000              #line 84 "C:\Users\YVTC\Desktop\單晶片微控制器(一)\0522\SerialLCM.c"
  84  0000              _I2C_START .section 'code'
  84  0000              _I2C_START proc
  84  0000  3712        	clr [18].6
  84  0001  3392        	set [18].7
  85  0002              #line 85 "C:\Users\YVTC\Desktop\單晶片微控制器(一)\0522\SerialLCM.c"
  85  0002  3713        	clr [19].6
  85  0003  3793        	clr [19].7
  86  0004              #line 86 "C:\Users\YVTC\Desktop\單晶片微控制器(一)\0522\SerialLCM.c"
  86  0004  3312        	set [18].6
  86  0005              ;# 86 "C:\Users\YVTC\Desktop\單晶片微控制器(一)\0522\SerialLCM.c" 1
  86  0005  0000        	nop
  87  0006              #line 87 "C:\Users\YVTC\Desktop\單晶片微控制器(一)\0522\SerialLCM.c"
  87  0006  3792        	clr [18].7
  88  0007              #line 88 "C:\Users\YVTC\Desktop\單晶片微控制器(一)\0522\SerialLCM.c"
  88  0007  3712        	clr [18].6
  88  0008  0003        	ret
  88  0009              _I2C_START endp
  88  0009              #line 88 "C:\Users\YVTC\Desktop\單晶片微控制器(一)\0522\SerialLCM.c"
  88  0009              #pragma debug scope 1 1
  88  0009              public _I2C_STOP
  88  0009              #pragma debug scope 3 1
  91  0009              #line 91 "C:\Users\YVTC\Desktop\單晶片微控制器(一)\0522\SerialLCM.c"
  91  0000              _I2C_STOP .section 'code'
  91  0000              _I2C_STOP proc
  91  0000  3712        	clr [18].6
  91  0001  3792        	clr [18].7
  92  0002              #line 92 "C:\Users\YVTC\Desktop\單晶片微控制器(一)\0522\SerialLCM.c"
  92  0002  3793        	clr [19].7
  93  0003              #line 93 "C:\Users\YVTC\Desktop\單晶片微控制器(一)\0522\SerialLCM.c"
  93  0003  3312        	set [18].6
  93  0004              ;# 93 "C:\Users\YVTC\Desktop\單晶片微控制器(一)\0522\SerialLCM.c" 1
  93  0004  0000        	nop
  94  0005              #line 94 "C:\Users\YVTC\Desktop\單晶片微控制器(一)\0522\SerialLCM.c"
  94  0005  3392        	set [18].7
  94  0006              ;# 94 "C:\Users\YVTC\Desktop\單晶片微控制器(一)\0522\SerialLCM.c" 1
  94  0006  0000        	nop
  95  0007              #line 95 "C:\Users\YVTC\Desktop\單晶片微控制器(一)\0522\SerialLCM.c"
  95  0007  3712        	clr [18].6
  95  0008  0003        	ret
  95  0009              _I2C_STOP endp
  95  0009              #line 95 "C:\Users\YVTC\Desktop\單晶片微控制器(一)\0522\SerialLCM.c"
  95  0009              #pragma debug scope 1 1
  95  0009              public _CheckACK
  95  0009              #pragma debug scope 4 1
  98  0009              #line 98 "C:\Users\YVTC\Desktop\單晶片微控制器(一)\0522\SerialLCM.c"
"File: SerialLCM.c   Assembler  Version HGASM0202      Page 3

  98  0000              _CheckACK .section 'code'
  98  0000              _CheckACK proc
  98  0000  3393        	set [19].7
  99  0001              #line 99 "C:\Users\YVTC\Desktop\單晶片微控制器(一)\0522\SerialLCM.c"
  99  0001  3312        	set [18].6
  99  0002              _L5:
 100  0002              #line 100 "C:\Users\YVTC\Desktop\單晶片微控制器(一)\0522\SerialLCM.c"
 100  0002  3F92        	sz [18].7
 100  0003  2800     R  	jmp _L5
 101  0004              #line 101 "C:\Users\YVTC\Desktop\單晶片微控制器(一)\0522\SerialLCM.c"
 101  0004  3712        	clr [18].6
 101  0005  0003        	ret
 101  0006              _CheckACK endp
 101  0006              #line 101 "C:\Users\YVTC\Desktop\單晶片微控制器(一)\0522\SerialLCM.c"
 101  0006              #pragma debug scope 1 1
 101  0006              public _WriteByte
 101  0006              #pragma debug scope 5 1
 104  0006              #line 104 "C:\Users\YVTC\Desktop\單晶片微控制器(一)\0522\SerialLCM.c"
 104  0000              _WriteByte .section 'code'
 104  0000              _WriteByte proc
 104  0000  00              local _WriteByte_2 db 1 dup(?)	; 0,1
 104  0000  0080     R  	mov _WriteByte_2[0],a
 104  0001              #pragma debug variable 8 5 _WriteByte_2+0 "I2CData"
 105  0001              #line 105 "C:\Users\YVTC\Desktop\單晶片微控制器(一)\0522\SerialLCM.c"
 105  0001  3793        	clr [19].7
 105  0002  1F00     E  	clr ra
 104  0003              #line 104 "C:\Users\YVTC\Desktop\單晶片微控制器(一)\0522\SerialLCM.c"
 104  0003  0F80        	mov a,128
 104  0004  0080     E  	mov rb,a
 104  0005              _L9:
 107  0005              #line 107 "C:\Users\YVTC\Desktop\單晶片微控制器(一)\0522\SerialLCM.c"
 107  0005  0700     E  	mov a,rb
 107  0006  0600     R  	and a,_WriteByte_2[0]
 107  0007  0080     E  	mov rc,a
 107  0008  0F00        	mov a,0
 107  0009  0200     E  	sub a,rc
 107  000A  0080     E  	mov rd,a
 107  000B  0700     E  	mov a,rd
 107  000C  0580     E  	orm a,rc
 107  000D  0F80        	mov a,128
 107  000E  0680     E  	andm a,rc
 107  000F  3792        	clr [18].7
 107  0010  0700     E  	mov a,rc
 107  0011  0592        	orm a,[18]
 107  0012              ;# 107 "C:\Users\YVTC\Desktop\單晶片微控制器(一)\0522\SerialLCM.c" 1
 107  0012  0000        	nop
 108  0013              #line 108 "C:\Users\YVTC\Desktop\單晶片微控制器(一)\0522\SerialLCM.c"
 108  0013  3312        	set [18].6
 108  0014              ;# 108 "C:\Users\YVTC\Desktop\單晶片微控制器(一)\0522\SerialLCM.c" 1
 108  0014  0000        	nop
 108  0015  3712        	clr [18].6
 109  0016              #line 109 "C:\Users\YVTC\Desktop\單晶片微控制器(一)\0522\SerialLCM.c"
 109  0016  340A        	clr c
 109  0017  1B80     E  	rrc rb
 109  0018  1480     E  	inc ra
 106  0019              #line 106 "C:\Users\YVTC\Desktop\單晶片微控制器(一)\0522\SerialLCM.c"
 106  0019  0700     E  	mov a,ra
 106  001A  0A08        	sub a,8
 106  001B  390A        	snz z
 106  001C  2800     R  	jmp _L9
"File: SerialLCM.c   Assembler  Version HGASM0202      Page 4

 106  001D  0003        	ret
 106  001E              _WriteByte endp
 106  001E              #line 106 "C:\Users\YVTC\Desktop\單晶片微控制器(一)\0522\SerialLCM.c"
 106  001E              #pragma debug scope 1 1
 106  001E              public _ReadByte
 106  001E              #pragma debug scope 6 1
 113  001E              #line 113 "C:\Users\YVTC\Desktop\單晶片微控制器(一)\0522\SerialLCM.c"
 113  0000              _ReadByte .section 'code'
 113  0000              _ReadByte proc
 114  0000              #line 114 "C:\Users\YVTC\Desktop\單晶片微控制器(一)\0522\SerialLCM.c"
 114  0000  3393        	set [19].7
 114  0001  1F00     E  	clr rb
 113  0002              #line 113 "C:\Users\YVTC\Desktop\單晶片微控制器(一)\0522\SerialLCM.c"
 113  0002  0F80        	mov a,128
 113  0003  0080     E  	mov rc,a
 113  0004  1F00     E  	clr ra
 113  0005              _L13:
 116  0005              #line 116 "C:\Users\YVTC\Desktop\單晶片微控制器(一)\0522\SerialLCM.c"
 116  0005  3312        	set [18].6
 116  0006              ;# 116 "C:\Users\YVTC\Desktop\單晶片微控制器(一)\0522\SerialLCM.c" 1
 116  0006  0000        	nop
 117  0007              #line 117 "C:\Users\YVTC\Desktop\單晶片微控制器(一)\0522\SerialLCM.c"
 117  0007  3B92        	snz [18].7
 117  0008  2800     R  	jmp _L11
 117  0009  0700     E  	mov a,rc
 117  000A  0580     E  	orm a,ra
 117  000B              _L11:
 118  000B              #line 118 "C:\Users\YVTC\Desktop\單晶片微控制器(一)\0522\SerialLCM.c"
 118  000B  3712        	clr [18].6
 119  000C              #line 119 "C:\Users\YVTC\Desktop\單晶片微控制器(一)\0522\SerialLCM.c"
 119  000C  340A        	clr c
 119  000D  1B80     E  	rrc rc
 119  000E  1480     E  	inc rb
 115  000F              #line 115 "C:\Users\YVTC\Desktop\單晶片微控制器(一)\0522\SerialLCM.c"
 115  000F  0700     E  	mov a,rb
 115  0010  0A08        	sub a,8
 115  0011  390A        	snz z
 115  0012  2800     R  	jmp _L13
 122  0013              #line 122 "C:\Users\YVTC\Desktop\單晶片微控制器(一)\0522\SerialLCM.c"
 122  0013  0700     E  	mov a,ra
 122  0014  0003        	ret
 122  0015              _ReadByte endp
 122  0015              #line 122 "C:\Users\YVTC\Desktop\單晶片微控制器(一)\0522\SerialLCM.c"
 122  0015              #pragma debug scope 1 1
 122  0015              public _LCMRead
 122  0015              #pragma debug scope 7 1
  44  0015              #line 44 "C:\Users\YVTC\Desktop\單晶片微控制器(一)\0522\SerialLCM.c"
  44  0000              _LCMRead .section 'code'
  44  0000              _LCMRead proc
  44  0000  0004[           local _LCMRead_2 db 4 dup(?)	; 0,4
            00
            ]
  44  0000  0080     R  	mov _LCMRead_2[2],a
  44  0001              #pragma debug variable 8 7 _LCMRead_2+2 "fgCD"
  44  0001              #pragma debug variable 8 7 _LCMRead_2+1 "BusyAC"
  44  0001              #pragma debug variable 8 7 _LCMRead_2+0 "tmp"
  45  0001              #line 45 "C:\Users\YVTC\Desktop\單晶片微控制器(一)\0522\SerialLCM.c"
  45  0001              	fcall _I2C_START
  46  0008              #line 46 "C:\Users\YVTC\Desktop\單晶片微控制器(一)\0522\SerialLCM.c"
  46  0008  0F7E        	mov a,126
"File: SerialLCM.c   Assembler  Version HGASM0202      Page 5

  46  0009              	fcall _WriteByte
  46  0010              	fcall _CheckACK
  47  0017              #line 47 "C:\Users\YVTC\Desktop\單晶片微控制器(一)\0522\SerialLCM.c"
  47  0017  1E00     R  	snz _LCMRead_2[2]
  47  0018  2800     R  	jmp _L18
  47  0019              #line 47 "C:\Users\YVTC\Desktop\單晶片微控制器(一)\0522\SerialLCM.c"
  47  0019  0FFB        	mov a,251
  47  001A  0080     R  	mov _LCMRead_2[0],a
  47  001B  2800     R  	jmp _L19
  47  001C              _L18:
  47  001C  0FFA        	mov a,250
  47  001D  0080     R  	mov _LCMRead_2[0],a
  47  001E              _L19:
  48  001E              #line 48 "C:\Users\YVTC\Desktop\單晶片微控制器(一)\0522\SerialLCM.c"
  48  001E  0700     R  	mov a,_LCMRead_2[0]
  48  001F  0080     E  	mov ra,a
  48  0020  0700     E  	mov a,ra
  48  0021              	fcall _WriteByte
  48  0028              	fcall _CheckACK
  49  002F              #line 49 "C:\Users\YVTC\Desktop\單晶片微控制器(一)\0522\SerialLCM.c"
  49  002F  3000     R  	set _LCMRead_2[0].2
  50  0030              #line 50 "C:\Users\YVTC\Desktop\單晶片微控制器(一)\0522\SerialLCM.c"
  50  0030  0700     R  	mov a,_LCMRead_2[0]
  50  0031  0080     E  	mov ra,a
  50  0032  0700     E  	mov a,ra
  50  0033              	fcall _WriteByte
  50  003A              	fcall _CheckACK
  51  0041              #line 51 "C:\Users\YVTC\Desktop\單晶片微控制器(一)\0522\SerialLCM.c"
  51  0041              	fcall _I2C_STOP
  53  0048              #line 53 "C:\Users\YVTC\Desktop\單晶片微控制器(一)\0522\SerialLCM.c"
  53  0048              	fcall _I2C_START
  54  004F              #line 54 "C:\Users\YVTC\Desktop\單晶片微控制器(一)\0522\SerialLCM.c"
  54  004F  0F7F        	mov a,127
  54  0050              	fcall _WriteByte
  54  0057              	fcall _CheckACK
  55  005E              #line 55 "C:\Users\YVTC\Desktop\單晶片微控制器(一)\0522\SerialLCM.c"
  55  005E              	fcall _ReadByte
  55  0065  0080     E  	mov ra,a
  55  0066  0700     E  	mov a,ra
  55  0067  0080     R  	mov _LCMRead_2[1],a
  56  0068              #line 56 "C:\Users\YVTC\Desktop\單晶片微控制器(一)\0522\SerialLCM.c"
  56  0068  3392        	set [18].7
  56  0069  3793        	clr [19].7
  57  006A              #line 57 "C:\Users\YVTC\Desktop\單晶片微控制器(一)\0522\SerialLCM.c"
  57  006A  3312        	set [18].6
  57  006B              ;# 57 "C:\Users\YVTC\Desktop\單晶片微控制器(一)\0522\SerialLCM.c" 1
  57  006B  0000        	nop
  57  006C  3712        	clr [18].6
  58  006D              #line 58 "C:\Users\YVTC\Desktop\單晶片微控制器(一)\0522\SerialLCM.c"
  58  006D              	fcall _I2C_STOP
  60  0074              #line 60 "C:\Users\YVTC\Desktop\單晶片微控制器(一)\0522\SerialLCM.c"
  60  0074              	fcall _I2C_START
  61  007B              #line 61 "C:\Users\YVTC\Desktop\單晶片微控制器(一)\0522\SerialLCM.c"
  61  007B  0F7E        	mov a,126
  61  007C              	fcall _WriteByte
  61  0083              	fcall _CheckACK
  62  008A              #line 62 "C:\Users\YVTC\Desktop\單晶片微控制器(一)\0522\SerialLCM.c"
  62  008A  3400     R  	clr _LCMRead_2[0].2
  63  008B              #line 63 "C:\Users\YVTC\Desktop\單晶片微控制器(一)\0522\SerialLCM.c"
  63  008B  0700     R  	mov a,_LCMRead_2[0]
"File: SerialLCM.c   Assembler  Version HGASM0202      Page 6

  63  008C  0080     E  	mov ra,a
  63  008D  0700     E  	mov a,ra
  63  008E              	fcall _WriteByte
  63  0095              	fcall _CheckACK
  64  009C              #line 64 "C:\Users\YVTC\Desktop\單晶片微控制器(一)\0522\SerialLCM.c"
  64  009C  3000     R  	set _LCMRead_2[0].2
  65  009D              #line 65 "C:\Users\YVTC\Desktop\單晶片微控制器(一)\0522\SerialLCM.c"
  65  009D  0700     R  	mov a,_LCMRead_2[0]
  65  009E  0080     E  	mov ra,a
  65  009F  0700     E  	mov a,ra
  65  00A0              	fcall _WriteByte
  65  00A7              	fcall _CheckACK
  66  00AE              #line 66 "C:\Users\YVTC\Desktop\單晶片微控制器(一)\0522\SerialLCM.c"
  66  00AE              	fcall _I2C_STOP
  68  00B5              #line 68 "C:\Users\YVTC\Desktop\單晶片微控制器(一)\0522\SerialLCM.c"
  68  00B5              	fcall _I2C_START
  69  00BC              #line 69 "C:\Users\YVTC\Desktop\單晶片微控制器(一)\0522\SerialLCM.c"
  69  00BC  0F7F        	mov a,127
  69  00BD              	fcall _WriteByte
  69  00C4              	fcall _CheckACK
  70  00CB              #line 70 "C:\Users\YVTC\Desktop\單晶片微控制器(一)\0522\SerialLCM.c"
  70  00CB  0FF0        	mov a,240
  70  00CC  0680     R  	andm a,_LCMRead_2[1]
  71  00CD              #line 71 "C:\Users\YVTC\Desktop\單晶片微控制器(一)\0522\SerialLCM.c"
  71  00CD  0700     R  	mov a,_LCMRead_2[1]
  71  00CE  0080     R  	mov _LCMRead_2[3],a
  71  00CF              	fcall _ReadByte
  71  00D6  0080     E  	mov ra,a
  71  00D7  1100     E  	swapa ra
  71  00D8  0E0F        	and a,0fh
  71  00D9  0080     E  	mov ra,a
  71  00DA  0700     E  	mov a,ra
  71  00DB  0500     R  	or a,_LCMRead_2[3]
  71  00DC  0080     R  	mov _LCMRead_2[1],a
  72  00DD              #line 72 "C:\Users\YVTC\Desktop\單晶片微控制器(一)\0522\SerialLCM.c"
  72  00DD  3392        	set [18].7
  72  00DE  3793        	clr [19].7
  73  00DF              #line 73 "C:\Users\YVTC\Desktop\單晶片微控制器(一)\0522\SerialLCM.c"
  73  00DF  3312        	set [18].6
  73  00E0              ;# 73 "C:\Users\YVTC\Desktop\單晶片微控制器(一)\0522\SerialLCM.c" 1
  73  00E0  0000        	nop
  73  00E1  3712        	clr [18].6
  74  00E2              #line 74 "C:\Users\YVTC\Desktop\單晶片微控制器(一)\0522\SerialLCM.c"
  74  00E2              	fcall _I2C_STOP
  76  00E9              #line 76 "C:\Users\YVTC\Desktop\單晶片微控制器(一)\0522\SerialLCM.c"
  76  00E9              	fcall _I2C_START
  77  00F0              #line 77 "C:\Users\YVTC\Desktop\單晶片微控制器(一)\0522\SerialLCM.c"
  77  00F0  0F7E        	mov a,126
  77  00F1              	fcall _WriteByte
  77  00F8              	fcall _CheckACK
  78  00FF              #line 78 "C:\Users\YVTC\Desktop\單晶片微控制器(一)\0522\SerialLCM.c"
  78  00FF  3400     R  	clr _LCMRead_2[0].2
  79  0100              #line 79 "C:\Users\YVTC\Desktop\單晶片微控制器(一)\0522\SerialLCM.c"
  79  0100  0700     R  	mov a,_LCMRead_2[0]
  79  0101  0080     E  	mov ra,a
  79  0102  0700     E  	mov a,ra
  79  0103              	fcall _WriteByte
  79  010A              	fcall _CheckACK
  80  0111              #line 80 "C:\Users\YVTC\Desktop\單晶片微控制器(一)\0522\SerialLCM.c"
  80  0111              	fcall _I2C_STOP
"File: SerialLCM.c   Assembler  Version HGASM0202      Page 7

  81  0118              #line 81 "C:\Users\YVTC\Desktop\單晶片微控制器(一)\0522\SerialLCM.c"
  81  0118  0700     R  	mov a,_LCMRead_2[1]
  81  0119  0080     E  	mov ra,a
  82  011A              #line 82 "C:\Users\YVTC\Desktop\單晶片微控制器(一)\0522\SerialLCM.c"
  82  011A  0700     E  	mov a,ra
  82  011B  0003        	ret
  82  011C              _LCMRead endp
  82  011C              #line 82 "C:\Users\YVTC\Desktop\單晶片微控制器(一)\0522\SerialLCM.c"
  82  011C              #pragma debug scope 1 1
  82  011C              public _LCMWrite
  82  011C              #pragma debug scope 8 1
  17  011C              #line 17 "C:\Users\YVTC\Desktop\單晶片微控制器(一)\0522\SerialLCM.c"
  17  0000              _LCMWrite .section 'code'
  17  0000              _LCMWrite proc
  17  0000              public _LCMWrite_2
  17  0000  0005[           local _LCMWrite_2 db 5 dup(?)	; 1,4
            00
            ]
  17  0000  0080     R  	mov _LCMWrite_2[4],a
  17  0001              #pragma debug variable 8 8 _LCMWrite_2+4 "fgCD"
  17  0001              #pragma debug variable 8 8 _LCMWrite_2+0 "CD"
  17  0001              #pragma debug variable 8 8 _LCMWrite_2+3 "BusyAC"
  17  0001              #pragma debug variable 8 8 _LCMWrite_2+2 "tmp"
  17  0001              #pragma debug variable 8 8 _LCMWrite_2+1 "i"
  17  0001  0F01        	mov a,1
  17  0002  0080     R  	mov _LCMWrite_2[1],a
  17  0003              _L22:
  19  0003              #line 19 "C:\Users\YVTC\Desktop\單晶片微控制器(一)\0522\SerialLCM.c"
  19  0003  0F00        	mov a,0
  19  0004              	fcall _LCMRead
  19  000B  0080     E  	mov ra,a
  19  000C  0700     E  	mov a,ra
  19  000D  0080     R  	mov _LCMWrite_2[3],a
  20  000E              #line 20 "C:\Users\YVTC\Desktop\單晶片微控制器(一)\0522\SerialLCM.c"
  20  000E  3C00     R  	sz _LCMWrite_2[3].7
  20  000F  2800     R  	jmp _L22
  21  0010              #line 21 "C:\Users\YVTC\Desktop\單晶片微控制器(一)\0522\SerialLCM.c"
  21  0010              	fcall _I2C_START
  22  0017              #line 22 "C:\Users\YVTC\Desktop\單晶片微控制器(一)\0522\SerialLCM.c"
  22  0017  0F7E        	mov a,126
  22  0018              	fcall _WriteByte
  22  001F              	fcall _CheckACK
  23  0026              #line 23 "C:\Users\YVTC\Desktop\單晶片微控制器(一)\0522\SerialLCM.c"
  23  0026  1E00     R  	snz _LCMWrite_2[4]
  23  0027  2800     R  	jmp _L27
  23  0028  0F09        	mov a,9
  23  0029  0080     E  	mov ra,a
  23  002A  2800     R  	jmp _L23
  23  002B              _L27:
  23  002B  0F08        	mov a,8
  23  002C  0080     E  	mov ra,a
  23  002D              _L23:
  23  002D  0700     E  	mov a,ra
  23  002E  0080     R  	mov _LCMWrite_2[2],a
  24  002F              #line 24 "C:\Users\YVTC\Desktop\單晶片微控制器(一)\0522\SerialLCM.c"
  24  002F  0700     R  	mov a,_LCMWrite_2[0]
  24  0030  0EF0        	and a,240
  24  0031  0080     E  	mov ra,a
  24  0032  0700     E  	mov a,ra
  24  0033  0580     R  	orm a,_LCMWrite_2[2]
"File: SerialLCM.c   Assembler  Version HGASM0202      Page 8

  25  0034              #line 25 "C:\Users\YVTC\Desktop\單晶片微控制器(一)\0522\SerialLCM.c"
  25  0034  0700     R  	mov a,_LCMWrite_2[2]
  25  0035  0E31        	and a,49
  25  0036  0080     E  	mov ra,a
  25  0037  0700     E  	mov a,ra
  25  0038  0A20        	sub a,32
  25  0039  390A        	snz z
  25  003A  2800     R  	jmp _L25
  25  003B  0F02        	mov a,2
  25  003C  0080     R  	mov _LCMWrite_2[1],a
  25  003D              _L25:
  26  003D              #line 26 "C:\Users\YVTC\Desktop\單晶片微控制器(一)\0522\SerialLCM.c"
  26  003D  0700     R  	mov a,_LCMWrite_2[1]
  26  003E  0080     E  	mov ra,a
  26  003F  1500     E  	deca ra
  26  0040  0080     R  	mov _LCMWrite_2[1],a
  26  0041  1E00     E  	snz ra
  26  0042  2800     R  	jmp _L28
  27  0043              #line 27 "C:\Users\YVTC\Desktop\單晶片微控制器(一)\0522\SerialLCM.c"
  27  0043  0700     R  	mov a,_LCMWrite_2[2]
  27  0044  0080     E  	mov ra,a
  27  0045  0700     E  	mov a,ra
  27  0046              	fcall _WriteByte
  27  004D              	fcall _CheckACK
  28  0054              #line 28 "C:\Users\YVTC\Desktop\單晶片微控制器(一)\0522\SerialLCM.c"
  28  0054  3000     R  	set _LCMWrite_2[2].2
  29  0055              #line 29 "C:\Users\YVTC\Desktop\單晶片微控制器(一)\0522\SerialLCM.c"
  29  0055  0700     R  	mov a,_LCMWrite_2[2]
  29  0056  0080     E  	mov ra,a
  29  0057  0700     E  	mov a,ra
  29  0058              	fcall _WriteByte
  29  005F              	fcall _CheckACK
  30  0066              #line 30 "C:\Users\YVTC\Desktop\單晶片微控制器(一)\0522\SerialLCM.c"
  30  0066  3400     R  	clr _LCMWrite_2[2].2
  31  0067              #line 31 "C:\Users\YVTC\Desktop\單晶片微控制器(一)\0522\SerialLCM.c"
  31  0067  0700     R  	mov a,_LCMWrite_2[2]
  31  0068  0080     E  	mov ra,a
  31  0069  0700     E  	mov a,ra
  31  006A              	fcall _WriteByte
  31  0071              	fcall _CheckACK
  31  0078  2800     R  	jmp _L25
  31  0079              _L28:
  33  0079              #line 33 "C:\Users\YVTC\Desktop\單晶片微控制器(一)\0522\SerialLCM.c"
  33  0079  0F0F        	mov a,15
  33  007A  0680     R  	andm a,_LCMWrite_2[2]
  34  007B              #line 34 "C:\Users\YVTC\Desktop\單晶片微控制器(一)\0522\SerialLCM.c"
  34  007B  0700     R  	mov a,_LCMWrite_2[0]
  34  007C  0080     E  	mov rb,a
  34  007D  1F00     E  	clr rc
  34  007E  0F04        	mov a,4
  34  007F              _LI1:
  34  007F  340A        	clr c
  34  0080  1A80     E  	rlc rb
  34  0081  1A80     E  	rlc rc
  34  0082  1785        	sdz acc
  34  0083  2800     R  	jmp _LI1
  34  0084  0700     E  	mov a,rb
  34  0085  0580     R  	orm a,_LCMWrite_2[2]
  35  0086              #line 35 "C:\Users\YVTC\Desktop\單晶片微控制器(一)\0522\SerialLCM.c"
  35  0086  0700     R  	mov a,_LCMWrite_2[2]
"File: SerialLCM.c   Assembler  Version HGASM0202      Page 9

  35  0087  0080     E  	mov ra,a
  35  0088  0700     E  	mov a,ra
  35  0089              	fcall _WriteByte
  35  0090              	fcall _CheckACK
  36  0097              #line 36 "C:\Users\YVTC\Desktop\單晶片微控制器(一)\0522\SerialLCM.c"
  36  0097  3000     R  	set _LCMWrite_2[2].2
  37  0098              #line 37 "C:\Users\YVTC\Desktop\單晶片微控制器(一)\0522\SerialLCM.c"
  37  0098  0700     R  	mov a,_LCMWrite_2[2]
  37  0099  0080     E  	mov ra,a
  37  009A  0700     E  	mov a,ra
  37  009B              	fcall _WriteByte
  37  00A2              	fcall _CheckACK
  38  00A9              #line 38 "C:\Users\YVTC\Desktop\單晶片微控制器(一)\0522\SerialLCM.c"
  38  00A9  3400     R  	clr _LCMWrite_2[2].2
  39  00AA              #line 39 "C:\Users\YVTC\Desktop\單晶片微控制器(一)\0522\SerialLCM.c"
  39  00AA  0700     R  	mov a,_LCMWrite_2[2]
  39  00AB  0080     E  	mov ra,a
  39  00AC  0700     E  	mov a,ra
  39  00AD              	fcall _WriteByte
  39  00B4              	fcall _CheckACK
  40  00BB              #line 40 "C:\Users\YVTC\Desktop\單晶片微控制器(一)\0522\SerialLCM.c"
  40  00BB              	fcall _I2C_STOP
  41  00C2              #line 41 "C:\Users\YVTC\Desktop\單晶片微控制器(一)\0522\SerialLCM.c"
  41  00C2  0700     R  	mov a,_LCMWrite_2[3]
  41  00C3  0080     E  	mov ra,a
  42  00C4              #line 42 "C:\Users\YVTC\Desktop\單晶片微控制器(一)\0522\SerialLCM.c"
  42  00C4  0700     E  	mov a,ra
  42  00C5  0003        	ret
  42  00C6              _LCMWrite endp
  42  00C6              #line 42 "C:\Users\YVTC\Desktop\單晶片微控制器(一)\0522\SerialLCM.c"
  42  00C6              #pragma debug scope 1 1
  42  00C6              public _Delayms
  42  00C6              #pragma debug scope 9 1
 124  00C6              #line 124 "C:\Users\YVTC\Desktop\單晶片微控制器(一)\0522\SerialLCM.c"
 124  0000              _Delayms .section 'code'
 124  0000              _Delayms proc
 124  0000              public _Delayms_2
 124  0000  0002[           local _Delayms_2 db 2 dup(?)	; 2,0
            00
            ]
 124  0002              #pragma debug variable 10 9 _Delayms_2+0 "del"
 125  0002              #line 125 "C:\Users\YVTC\Desktop\單晶片微控制器(一)\0522\SerialLCM.c"
 125  0000  1F00     E  	clr rb
 125  0001  1F00     E  	clr rc
 125  0002  2800     R  	jmp _L30
 125  0003              _L31:
 125  0003              #line 125 "C:\Users\YVTC\Desktop\單晶片微控制器(一)\0522\SerialLCM.c"
 125  0003              ;# 125 "C:\Users\YVTC\Desktop\單晶片微控制器(一)\0522\SerialLCM.c" 1
 125  0003              	IF 2000>263690
 125  0003              ;# 125 "C:\Users\YVTC\Desktop\單晶片微控制器(一)\0522\SerialLCM.c" 1
 125  0003              	ERRMESSAGE 'the value 2000of the argument exceeds the maxinum 263690'
 125  0003              	ENDIF
 125  0003              ;# 125 "C:\Users\YVTC\Desktop\單晶片微控制器(一)\0522\SerialLCM.c" 1
 125  0003              	IF 2000<0
 125  0003              ;# 125 "C:\Users\YVTC\Desktop\單晶片微控制器(一)\0522\SerialLCM.c" 1
 125  0003              	ERRMESSAGE 'the value 2000 of the argument exceeds the mininum 0'
 125  0003              	ENDIF
 125  0003              ;# 125 "C:\Users\YVTC\Desktop\單晶片微控制器(一)\0522\SerialLCM.c" 1
 125  0003              	IF 2000==0
 125  0003              ;# 125 "C:\Users\YVTC\Desktop\單晶片微控制器(一)\0522\SerialLCM.c" 1
"File: SerialLCM.c   Assembler  Version HGASM0202      Page 10

 125  0003              	JMP $
 125  0003              	ENDIF
 125  0003              ;# 125 "C:\Users\YVTC\Desktop\單晶片微控制器(一)\0522\SerialLCM.c" 1
 125  0003              	IF (2000>=1) AND (2000<( 4 + __PBP__ * 2))
 125  0003              ;# 125 "C:\Users\YVTC\Desktop\單晶片微控制器(一)\0522\SerialLCM.c" 1
 125  0003              	NOP
 125  0003              	ENDIF
 125  0003              ;# 125 "C:\Users\YVTC\Desktop\單晶片微控制器(一)\0522\SerialLCM.c" 1
 125  0003              	IF (2000>=2) AND (2000<( 4 + __PBP__ * 2))
 125  0003              ;# 125 "C:\Users\YVTC\Desktop\單晶片微控制器(一)\0522\SerialLCM.c" 1
 125  0003              	NOP
 125  0003              	ENDIF
 125  0003              ;# 125 "C:\Users\YVTC\Desktop\單晶片微控制器(一)\0522\SerialLCM.c" 1
 125  0003              	IF (2000>=3) AND (2000<( 4 + __PBP__ * 2))
 125  0003              ;# 125 "C:\Users\YVTC\Desktop\單晶片微控制器(一)\0522\SerialLCM.c" 1
 125  0003              	NOP
 125  0003              	ENDIF
 125  0003              ;# 125 "C:\Users\YVTC\Desktop\單晶片微控制器(一)\0522\SerialLCM.c" 1
 125  0003              	IF (2000>=4) AND (2000<( 4 + __PBP__ * 2)) AND ( __PBP__ > 0 )
 125  0003              ;# 125 "C:\Users\YVTC\Desktop\單晶片微控制器(一)\0522\SerialLCM.c" 1
 125  0003              	NOP
 125  0003              	ENDIF
 125  0003              ;# 125 "C:\Users\YVTC\Desktop\單晶片微控制器(一)\0522\SerialLCM.c" 1
 125  0003              	IF (2000>=5) AND (2000<( 4 + __PBP__ * 2)) AND ( __PBP__ > 0 )
 125  0003              ;# 125 "C:\Users\YVTC\Desktop\單晶片微控制器(一)\0522\SerialLCM.c" 1
 125  0003              	NOP
 125  0003              	ENDIF
 125  0003              ;# 125 "C:\Users\YVTC\Desktop\單晶片微控制器(一)\0522\SerialLCM.c" 1
 125  0003              	IF (2000>=6) AND (2000<( 4 + __PBP__ * 2))  AND ( __PBP__ > 1 )
 125  0003              ;# 125 "C:\Users\YVTC\Desktop\單晶片微控制器(一)\0522\SerialLCM.c" 1
 125  0003              	NOP
 125  0003              	ENDIF
 125  0003              ;# 125 "C:\Users\YVTC\Desktop\單晶片微控制器(一)\0522\SerialLCM.c" 1
 125  0003              	IF (2000>=7) AND (2000<( 4 + __PBP__ * 2))  AND ( __PBP__ > 1 )
 125  0003              ;# 125 "C:\Users\YVTC\Desktop\單晶片微控制器(一)\0522\SerialLCM.c" 1
 125  0003              	NOP
 125  0003              	ENDIF
 125  0003              ;# 125 "C:\Users\YVTC\Desktop\單晶片微控制器(一)\0522\SerialLCM.c" 1
 125  0003              	IF (2000>=8) AND (2000<( 4 + __PBP__ * 2))  AND ( __PBP__ > 2 )
 125  0003              ;# 125 "C:\Users\YVTC\Desktop\單晶片微控制器(一)\0522\SerialLCM.c" 1
 125  0003              	NOP
 125  0003              	ENDIF
 125  0003              ;# 125 "C:\Users\YVTC\Desktop\單晶片微控制器(一)\0522\SerialLCM.c" 1
 125  0003              	IF (2000==9)  AND ( __PBP__ > 2 )
 125  0003              ;# 125 "C:\Users\YVTC\Desktop\單晶片微控制器(一)\0522\SerialLCM.c" 1
 125  0003              	NOP
 125  0003              	ENDIF
 125  0003              ;# 125 "C:\Users\YVTC\Desktop\單晶片微控制器(一)\0522\SerialLCM.c" 1
 125  0003              	IF (2000< ( 8 + __PBP__ * 2)) AND (2000>( 3 + __PBP__ * 2))
 125  0003              ;# 125 "C:\Users\YVTC\Desktop\單晶片微控制器(一)\0522\SerialLCM.c" 1
 125  0003              	fcall __DELAY3 + ( 7 + __PBP__ * 2) -2000
 125  0003              	ENDIF
 125  0003              ;# 125 "C:\Users\YVTC\Desktop\單晶片微控制器(一)\0522\SerialLCM.c" 1
 125  0003              	IF (2000< ( 0404h + __PBP__ * 2)) AND (2000>( 7 + __PBP__ * 2))
 125  0003              ;# 125 "C:\Users\YVTC\Desktop\單晶片微控制器(一)\0522\SerialLCM.c" 1
 125  0003              	MOV A,(2000-( 4 + __PBP__ * 2))/4
 125  0003              ;# 125 "C:\Users\YVTC\Desktop\單晶片微控制器(一)\0522\SerialLCM.c" 1
 125  0003              	fcall __DELAYX3 + 3 -((2000-( 4 + __PBP__ * 2)) MOD 4) 
 125  0003              	ENDIF
 125  0003              ;# 125 "C:\Users\YVTC\Desktop\單晶片微控制器(一)\0522\SerialLCM.c" 1
"File: SerialLCM.c   Assembler  Version HGASM0202      Page 11

 125  0003              	IF (2000< ( 040bh + __PBP__ * 2)) AND (2000> ( 0403h + __PBP__ * 2))
 125  0003              ;# 125 "C:\Users\YVTC\Desktop\單晶片微控制器(一)\0522\SerialLCM.c" 1
 125  0003              	MOV A,0 
 125  0003              ;# 125 "C:\Users\YVTC\Desktop\單晶片微控制器(一)\0522\SerialLCM.c" 1
 125  0003              	fcall __DELAYX6 + ( 040ah + __PBP__ * 2) -2000
 125  0003              	ENDIF
 125  0003              ;# 125 "C:\Users\YVTC\Desktop\單晶片微控制器(一)\0522\SerialLCM.c" 1
 125  0003              	IF (2000 >= ( 040bh + __PBP__ * 2)) AND ((((2000-( 9 + __PBP__ * 2))%0402h)/4+1)>256)
 125  0003              ;# 125 "C:\Users\YVTC\Desktop\單晶片微控制器(一)\0522\SerialLCM.c" 1
 125  0003              	MOV A,(2000-( 9 + __PBP__ * 2))/0402h
 125  0003              ;# 125 "C:\Users\YVTC\Desktop\單晶片微控制器(一)\0522\SerialLCM.c" 1
 125  0003              	MOV _builtin_holtek_delay_2,A
 125  0003              ;# 125 "C:\Users\YVTC\Desktop\單晶片微控制器(一)\0522\SerialLCM.c" 1
 125  0003              	MOV A,0
 125  0003              ;# 125 "C:\Users\YVTC\Desktop\單晶片微控制器(一)\0522\SerialLCM.c" 1
 125  0003              	fcall __DELAYY5 +5- (((2000-( 9 + __PBP__ * 2))%0402h)%6) 
 125  0003              	ENDIF
 125  0003              ;# 125 "C:\Users\YVTC\Desktop\單晶片微控制器(一)\0522\SerialLCM.c" 1
 125  0003              	IF (2000 >= ( 040bh + __PBP__ * 2)) AND ((((2000-( 9 + __PBP__ * 2))%0402h)/4+1)<=256)
 125  0003              ;# 125 "C:\Users\YVTC\Desktop\單晶片微控制器(一)\0522\SerialLCM.c" 1
 125  0003  0F01        	MOV A,(2000-( 9 + __PBP__ * 2))/0402h
 125  0004              ;# 125 "C:\Users\YVTC\Desktop\單晶片微控制器(一)\0522\SerialLCM.c" 1
 125  0004  0080     E  	MOV _builtin_holtek_delay_2,A
 125  0005              ;# 125 "C:\Users\YVTC\Desktop\單晶片微控制器(一)\0522\SerialLCM.c" 1
 125  0005  0FF1        	MOV A,((2000-( 9 + __PBP__ * 2))%0402h)/4+1
 125  0006              ;# 125 "C:\Users\YVTC\Desktop\單晶片微控制器(一)\0522\SerialLCM.c" 1
 125  0006              	fcall __DELAYY3 +3-(((2000-( 9 + __PBP__ * 2))%0402h)%4) 
 125  000D              	ENDIF
 125  000D  1480     E  	inc rb
 125  000E  3D0A        	sz z
 125  000F  1480     E  	inc rc
 125  0010              _L30:
 125  0010  0700     E  	mov a,rb
 125  0011  0200     R  	sub a,_Delayms_2[0]
 125  0012  0700     E  	mov a,rc
 125  0013  1200     R  	sbc a,_Delayms_2[1]
 125  0014  3B0A        	snz cz
 125  0015  2800     R  	jmp _L31
 125  0016  0003        	ret
 125  0017              _Delayms endp
 125  0017              #line 125 "C:\Users\YVTC\Desktop\單晶片微控制器(一)\0522\SerialLCM.c"
 125  0017              #pragma debug scope 1 1
 125  0017              #pragma debug struct_end
 125  0017              #pragma debug struct_end
 125  0017              #pragma debug union_end
 125  0017              #pragma debug union_end
 125  0017              #pragma debug variable 43 1 ___pa "__pa" 1
 125  0017              #pragma debug struct_end
 125  0017              #pragma debug struct_end
 125  0017              #pragma debug union_end
 125  0017              #pragma debug union_end
 125  0017              #pragma debug variable 45 1 ___pac "__pac" 1
 125  0017              
 125  0017              ; 
 125  0017              ; Generated by holtek-gcc v3.18, Tue May 22 15:15:45 2018
 125  0017              ; Rebuild 126
 125  0017              ; end of file


        0 Errors, 0