"File: TT2_original.c  Assembler  Version HGASM0202      Page 1


   1  0000              ; Generated by holtek-gcc v3.18, Tue May 22 10:37:35 2018
   2  0000              ; 
   3  0000              ; Configuration:
   4  0000              ;       with long instruction
   5  0000              ;       Multi-ROM, Multi-RAM
   6  0000              ;       bits_per_rom_unit:16
   7  0000              ;       with mp1
   8  0000              ;       with tbhp, address(0x9)
   9  0000              ;          Use tabrd-const
  10  0000              ;       
  11  0000              ; SFR address of long-instruction arch:
  12  0000              ;    mp0 = -1,1,0
  13  0000              ;    mp1 = 4,3,2
  14  0000              ;    mp2 = 14,13,12
  15  0000              ;    tbp = 9,7,8
  16  0000              ;    acc = 5
  17  0000              ;    pcl = 6
  18  0000              ;    status = 10
  19  0000              ;    bp = 11
  20  0000              ;    intc = 48
  21  0000              ;       
  22  0000              ;       
  23  0000              ; use 'tabrdc' instead of 'tabrd'
  24  0000              ;       
  25  0000              
  26  0000              #pragma translator "holtek-gcc 4.6.4" "3.18" "build 20130711"
  27  0000              ; Rebuild 126
  28  0000              
  29  0000              ir equ [2]
  30  0000              mp equ [3]
  31  0000              sbp equ [4]
  32  0000              acc equ [5]
  33  0000              bp equ [11]
  34  0000              tblp equ [7]
  35  0000              tbhp equ [9]
  36  0000              status equ [10]
  37  0000              c equ [10].0
  38  0000              ac equ [10].1
  39  0000              z equ [10].2
  40  0000              ov equ [10].3
  41  0000              cz equ [10].6
  42  0000              sc equ [10].7
  43  0000              intc equ [48]
  44  0000              
  45  0000              extern ra:byte
  46  0000              extern rb:byte
  47  0000              extern rc:byte
  48  0000              extern rd:byte
  49  0000              extern re:byte
  50  0000              extern rf:byte
  51  0000              extern rg:byte
  52  0000              extern rh:byte
  53  0000              extern _Crom2Prom:near
  54  0000              extern _Crom2PromNext:near
  55  0000              
  56  0000              RAMBANK 0 @BITDATASEC, @BITDATASEC1
  57  0000              @HCCINIT	.section 'data'
  58  0000              @HCCINIT0	.section 'data'
  59  0000              @BITDATASEC	 .section 'data'
"File: TT2_original.ASM  Assembler  Version HGASM0202      Page 2

  60  0000              @BITDATASEC1	 .section 'data'
  61  0000              
  62  0000              #pragma debug scope 1 1
  63  0000              	extern __DELAY3:near
  64  0000              	extern __DELAYX3:near
  65  0000              	extern __DELAYX6:near
  66  0000              	extern __DELAYY5:near
  67  0000              	extern __DELAYY3:near
  68  0000              	extern _builtin_holtek_delay_2:byte
  69  0000              ___pgc equ [43]
  70  0000              ___ph equ [46]
  71  0000              ___pg equ [42]
  72  0000              public _LCMWrite
  73  0000              #pragma debug scope 2 1

  74  0000              #line 74 "C:\Users\YVTC\Desktop\單晶片微控制器(一)\期末作業\TT2_original.c"
  74  0000              _LCMWrite .section 'code'
  74  0000              _LCMWrite proc
  74  0000              public _LCMWrite_2
  74  0000  0002[           local _LCMWrite_2 db 2 dup(?)	; 1,1
            00
            ]
  74  0000  0080     R  	mov _LCMWrite_2[1],a
  74  0001              #pragma debug variable 8 2 _LCMWrite_2+1 "DCFlag"
  74  0001              #pragma debug variable 8 2 _LCMWrite_2+0 "CD"
  75  0001              #line 75 "C:\Users\YVTC\Desktop\單晶片微控制器(一)\期末作業\TT2_original.c"
  75  0001  1FAB        	set [43]
  76  0002              #line 76 "C:\Users\YVTC\Desktop\單晶片微控制器(一)\期末作業\TT2_original.c"
  76  0002  342E        	clr [46].0
  76  0003  30AE        	set [46].1
  77  0004              #line 77 "C:\Users\YVTC\Desktop\單晶片微控制器(一)\期末作業\TT2_original.c"
  77  0004              ;# 77 "C:\Users\YVTC\Desktop\單晶片微控制器(一)\期末作業\TT2_original.c" 1
  77  0004  0000        	nop
  77  0005              _L3:
  79  0005              #line 79 "C:\Users\YVTC\Desktop\單晶片微控制器(一)\期末作業\TT2_original.c"
  79  0005  312E        	set [46].2
  79  0006              ;# 79 "C:\Users\YVTC\Desktop\單晶片微控制器(一)\期末作業\TT2_original.c" 1
  79  0006  0000        	nop
  80  0007              #line 80 "C:\Users\YVTC\Desktop\單晶片微控制器(一)\期末作業\TT2_original.c"
  80  0007  072A        	mov a,[42]
  80  0008  0080     E  	mov ra,a
  81  0009              #line 81 "C:\Users\YVTC\Desktop\單晶片微控制器(一)\期末作業\TT2_original.c"
  81  0009  352E        	clr [46].2
  82  000A              #line 82 "C:\Users\YVTC\Desktop\單晶片微控制器(一)\期末作業\TT2_original.c"
  82  000A  3C00     E  	sz ra.7
  82  000B  2800     R  	jmp _L3
  83  000C              #line 83 "C:\Users\YVTC\Desktop\單晶片微控制器(一)\期末作業\TT2_original.c"
  83  000C  1F2B        	clr [43]
  84  000D              #line 84 "C:\Users\YVTC\Desktop\單晶片微控制器(一)\期末作業\TT2_original.c"
  84  000D  34AE        	clr [46].1
  85  000E              #line 85 "C:\Users\YVTC\Desktop\單晶片微控制器(一)\期末作業\TT2_original.c"
  85  000E  0700     R  	mov a,_LCMWrite_2[1]
  85  000F  0E01        	and a,1
  85  0010  0080     E  	mov rb,a
  85  0011  342E        	clr [46].0
  85  0012  0700     E  	mov a,rb
  85  0013  05AE        	orm a,[46]
  86  0014              #line 86 "C:\Users\YVTC\Desktop\單晶片微控制器(一)\期末作業\TT2_original.c"
  86  0014  0700     R  	mov a,_LCMWrite_2[0]
  86  0015  00AA        	mov [42],a
"File: TT2_original.c  Assembler  Version HGASM0202      Page 3

  87  0016              #line 87 "C:\Users\YVTC\Desktop\單晶片微控制器(一)\期末作業\TT2_original.c"
  87  0016  312E        	set [46].2
  87  0017              ;# 87 "C:\Users\YVTC\Desktop\單晶片微控制器(一)\期末作業\TT2_original.c" 1
  87  0017  0000        	nop
  87  0018  352E        	clr [46].2
  89  0019              #line 89 "C:\Users\YVTC\Desktop\單晶片微控制器(一)\期末作業\TT2_original.c"
  89  0019  0700     E  	mov a,ra
  89  001A  0003        	ret
  89  001B              _LCMWrite endp
  89  001B              #line 89 "C:\Users\YVTC\Desktop\單晶片微控制器(一)\期末作業\TT2_original.c"
  89  001B              #pragma debug scope 1 1
  89  001B              public _ClearLine
  89  001B              #pragma debug scope 3 1
  58  001B              #line 58 "C:\Users\YVTC\Desktop\單晶片微控制器(一)\期末作業\TT2_original.c"
  58  0000              _ClearLine .section 'code'
  58  0000              _ClearLine proc
  58  0000  0003[           local _ClearLine_2 db 3 dup(?)	; 0,3
            00
            ]
  58  0000  0080     E  	mov ra,a
  58  0001              #pragma debug variable 8 3 _ClearLine_2+0 "line"
  59  0001              #line 59 "C:\Users\YVTC\Desktop\單晶片微控制器(一)\期末作業\TT2_original.c"
  59  0001  1700     E  	sdza ra
  59  0002  2800     R  	jmp _L9
  59  0003              #line 59 "C:\Users\YVTC\Desktop\單晶片微控制器(一)\期末作業\TT2_original.c"
  59  0003  0F80        	mov a,128
  59  0004  0080     R  	mov _ClearLine_2[2],a
  59  0005  2800     R  	jmp _L6
  59  0006              _L9:
  59  0006  0FC0        	mov a,192
  59  0007  0080     R  	mov _ClearLine_2[2],a
  59  0008              _L6:
  60  0008              #line 60 "C:\Users\YVTC\Desktop\單晶片微控制器(一)\期末作業\TT2_original.c"
  60  0008  0700     R  	mov a,_ClearLine_2[2]
  60  0009  0080     R  	mov _LCMWrite_2[0],a
  60  000A  0F00        	mov a,0
  60  000B              	fcall _LCMWrite
  60  0012  0F10        	mov a,16
  60  0013  0080     R  	mov _ClearLine_2[1],a
  60  0014              _L8:
  61  0014              #line 61 "C:\Users\YVTC\Desktop\單晶片微控制器(一)\期末作業\TT2_original.c"
  61  0014  0F20        	mov a,32
  61  0015  0080     R  	mov _LCMWrite_2[0],a
  61  0016  0F01        	mov a,1
  61  0017              	fcall _LCMWrite
  61  001E  1780     R  	sdz _ClearLine_2[1]
  61  001F  2800     R  	jmp _L8
  62  0020              #line 62 "C:\Users\YVTC\Desktop\單晶片微控制器(一)\期末作業\TT2_original.c"
  62  0020  0700     R  	mov a,_ClearLine_2[2]
  62  0021  0080     R  	mov _LCMWrite_2[0],a
  62  0022  0F00        	mov a,0
  62  0023              	fcall _LCMWrite
  62  002A  0003        	ret
  62  002B              _ClearLine endp
  62  002B              #line 62 "C:\Users\YVTC\Desktop\單晶片微控制器(一)\期末作業\TT2_original.c"
  62  002B              #pragma debug scope 1 1
  62  002B              ___phc equ [47]
  62  002B              public _LCMInit
  62  002B              #pragma debug scope 4 1
  65  002B              #line 65 "C:\Users\YVTC\Desktop\單晶片微控制器(一)\期末作業\TT2_original.c"
"File: TT2_original.c  Assembler  Version HGASM0202      Page 4

  65  0000              _LCMInit .section 'code'
  65  0000              _LCMInit proc
  65  0000  352E        	clr [46].2
  65  0001  34AE        	clr [46].1
  65  0002  342E        	clr [46].0
  66  0003              #line 66 "C:\Users\YVTC\Desktop\單晶片微控制器(一)\期末作業\TT2_original.c"
  66  0003  352F        	clr [47].2
  66  0004  34AF        	clr [47].1
  66  0005  342F        	clr [47].0
  67  0006              #line 67 "C:\Users\YVTC\Desktop\單晶片微控制器(一)\期末作業\TT2_original.c"
  67  0006              ;# 67 "C:\Users\YVTC\Desktop\單晶片微控制器(一)\期末作業\TT2_original.c" 1
  67  0006              	IF 50000>263690
  67  0006              ;# 67 "C:\Users\YVTC\Desktop\單晶片微控制器(一)\期末作業\TT2_original.c" 1
  67  0006              	ERRMESSAGE 'the value 50000of the argument exceeds the maxinum 263690'
  67  0006              	ENDIF
  67  0006              ;# 67 "C:\Users\YVTC\Desktop\單晶片微控制器(一)\期末作業\TT2_original.c" 1
  67  0006              	IF 50000<0
  67  0006              ;# 67 "C:\Users\YVTC\Desktop\單晶片微控制器(一)\期末作業\TT2_original.c" 1
  67  0006              	ERRMESSAGE 'the value 50000 of the argument exceeds the mininum 0'
  67  0006              	ENDIF
  67  0006              ;# 67 "C:\Users\YVTC\Desktop\單晶片微控制器(一)\期末作業\TT2_original.c" 1
  67  0006              	IF 50000==0
  67  0006              ;# 67 "C:\Users\YVTC\Desktop\單晶片微控制器(一)\期末作業\TT2_original.c" 1
  67  0006              	JMP $
  67  0006              	ENDIF
  67  0006              ;# 67 "C:\Users\YVTC\Desktop\單晶片微控制器(一)\期末作業\TT2_original.c" 1
  67  0006              	IF (50000>=1) AND (50000<( 4 + __PBP__ * 2))
  67  0006              ;# 67 "C:\Users\YVTC\Desktop\單晶片微控制器(一)\期末作業\TT2_original.c" 1
  67  0006              	NOP
  67  0006              	ENDIF
  67  0006              ;# 67 "C:\Users\YVTC\Desktop\單晶片微控制器(一)\期末作業\TT2_original.c" 1
  67  0006              	IF (50000>=2) AND (50000<( 4 + __PBP__ * 2))
  67  0006              ;# 67 "C:\Users\YVTC\Desktop\單晶片微控制器(一)\期末作業\TT2_original.c" 1
  67  0006              	NOP
  67  0006              	ENDIF
  67  0006              ;# 67 "C:\Users\YVTC\Desktop\單晶片微控制器(一)\期末作業\TT2_original.c" 1
  67  0006              	IF (50000>=3) AND (50000<( 4 + __PBP__ * 2))
  67  0006              ;# 67 "C:\Users\YVTC\Desktop\單晶片微控制器(一)\期末作業\TT2_original.c" 1
  67  0006              	NOP
  67  0006              	ENDIF
  67  0006              ;# 67 "C:\Users\YVTC\Desktop\單晶片微控制器(一)\期末作業\TT2_original.c" 1
  67  0006              	IF (50000>=4) AND (50000<( 4 + __PBP__ * 2)) AND ( __PBP__ > 0 )
  67  0006              ;# 67 "C:\Users\YVTC\Desktop\單晶片微控制器(一)\期末作業\TT2_original.c" 1
  67  0006              	NOP
  67  0006              	ENDIF
  67  0006              ;# 67 "C:\Users\YVTC\Desktop\單晶片微控制器(一)\期末作業\TT2_original.c" 1
  67  0006              	IF (50000>=5) AND (50000<( 4 + __PBP__ * 2)) AND ( __PBP__ > 0 )
  67  0006              ;# 67 "C:\Users\YVTC\Desktop\單晶片微控制器(一)\期末作業\TT2_original.c" 1
  67  0006              	NOP
  67  0006              	ENDIF
  67  0006              ;# 67 "C:\Users\YVTC\Desktop\單晶片微控制器(一)\期末作業\TT2_original.c" 1
  67  0006              	IF (50000>=6) AND (50000<( 4 + __PBP__ * 2))  AND ( __PBP__ > 1 )
  67  0006              ;# 67 "C:\Users\YVTC\Desktop\單晶片微控制器(一)\期末作業\TT2_original.c" 1
  67  0006              	NOP
  67  0006              	ENDIF
  67  0006              ;# 67 "C:\Users\YVTC\Desktop\單晶片微控制器(一)\期末作業\TT2_original.c" 1
  67  0006              	IF (50000>=7) AND (50000<( 4 + __PBP__ * 2))  AND ( __PBP__ > 1 )
  67  0006              ;# 67 "C:\Users\YVTC\Desktop\單晶片微控制器(一)\期末作業\TT2_original.c" 1
  67  0006              	NOP
  67  0006              	ENDIF
"File: TT2_original.c  Assembler  Version HGASM0202      Page 5

  67  0006              ;# 67 "C:\Users\YVTC\Desktop\單晶片微控制器(一)\期末作業\TT2_original.c" 1
  67  0006              	IF (50000>=8) AND (50000<( 4 + __PBP__ * 2))  AND ( __PBP__ > 2 )
  67  0006              ;# 67 "C:\Users\YVTC\Desktop\單晶片微控制器(一)\期末作業\TT2_original.c" 1
  67  0006              	NOP
  67  0006              	ENDIF
  67  0006              ;# 67 "C:\Users\YVTC\Desktop\單晶片微控制器(一)\期末作業\TT2_original.c" 1
  67  0006              	IF (50000==9)  AND ( __PBP__ > 2 )
  67  0006              ;# 67 "C:\Users\YVTC\Desktop\單晶片微控制器(一)\期末作業\TT2_original.c" 1
  67  0006              	NOP
  67  0006              	ENDIF
  67  0006              ;# 67 "C:\Users\YVTC\Desktop\單晶片微控制器(一)\期末作業\TT2_original.c" 1
  67  0006              	IF (50000< ( 8 + __PBP__ * 2)) AND (50000>( 3 + __PBP__ * 2))
  67  0006              ;# 67 "C:\Users\YVTC\Desktop\單晶片微控制器(一)\期末作業\TT2_original.c" 1
  67  0006              	fcall __DELAY3 + ( 7 + __PBP__ * 2) -50000
  67  0006              	ENDIF
  67  0006              ;# 67 "C:\Users\YVTC\Desktop\單晶片微控制器(一)\期末作業\TT2_original.c" 1
  67  0006              	IF (50000< ( 0404h + __PBP__ * 2)) AND (50000>( 7 + __PBP__ * 2))
  67  0006              ;# 67 "C:\Users\YVTC\Desktop\單晶片微控制器(一)\期末作業\TT2_original.c" 1
  67  0006              	MOV A,(50000-( 4 + __PBP__ * 2))/4
  67  0006              ;# 67 "C:\Users\YVTC\Desktop\單晶片微控制器(一)\期末作業\TT2_original.c" 1
  67  0006              	fcall __DELAYX3 + 3 -((50000-( 4 + __PBP__ * 2)) MOD 4) 
  67  0006              	ENDIF
  67  0006              ;# 67 "C:\Users\YVTC\Desktop\單晶片微控制器(一)\期末作業\TT2_original.c" 1
  67  0006              	IF (50000< ( 040bh + __PBP__ * 2)) AND (50000> ( 0403h + __PBP__ * 2))
  67  0006              ;# 67 "C:\Users\YVTC\Desktop\單晶片微控制器(一)\期末作業\TT2_original.c" 1
  67  0006              	MOV A,0 
  67  0006              ;# 67 "C:\Users\YVTC\Desktop\單晶片微控制器(一)\期末作業\TT2_original.c" 1
  67  0006              	fcall __DELAYX6 + ( 040ah + __PBP__ * 2) -50000
  67  0006              	ENDIF
  67  0006              ;# 67 "C:\Users\YVTC\Desktop\單晶片微控制器(一)\期末作業\TT2_original.c" 1
  67  0006              	IF (50000 >= ( 040bh + __PBP__ * 2)) AND ((((50000-( 9 + __PBP__ * 2))%0402h)/4+1)>256)
  67  0006              ;# 67 "C:\Users\YVTC\Desktop\單晶片微控制器(一)\期末作業\TT2_original.c" 1
  67  0006              	MOV A,(50000-( 9 + __PBP__ * 2))/0402h
  67  0006              ;# 67 "C:\Users\YVTC\Desktop\單晶片微控制器(一)\期末作業\TT2_original.c" 1
  67  0006              	MOV _builtin_holtek_delay_2,A
  67  0006              ;# 67 "C:\Users\YVTC\Desktop\單晶片微控制器(一)\期末作業\TT2_original.c" 1
  67  0006              	MOV A,0
  67  0006              ;# 67 "C:\Users\YVTC\Desktop\單晶片微控制器(一)\期末作業\TT2_original.c" 1
  67  0006              	fcall __DELAYY5 +5- (((50000-( 9 + __PBP__ * 2))%0402h)%6) 
  67  0006              	ENDIF
  67  0006              ;# 67 "C:\Users\YVTC\Desktop\單晶片微控制器(一)\期末作業\TT2_original.c" 1
  67  0006              	IF (50000 >= ( 040bh + __PBP__ * 2)) AND ((((50000-( 9 + __PBP__ * 2))%0402h)/4+1)<=256)
  67  0006              ;# 67 "C:\Users\YVTC\Desktop\單晶片微控制器(一)\期末作業\TT2_original.c" 1
  67  0006  0F30        	MOV A,(50000-( 9 + __PBP__ * 2))/0402h
  67  0007              ;# 67 "C:\Users\YVTC\Desktop\單晶片微控制器(一)\期末作業\TT2_original.c" 1
  67  0007  0080     E  	MOV _builtin_holtek_delay_2,A
  67  0008              ;# 67 "C:\Users\YVTC\Desktop\單晶片微控制器(一)\期末作業\TT2_original.c" 1
  67  0008  0FB9        	MOV A,((50000-( 9 + __PBP__ * 2))%0402h)/4+1
  67  0009              ;# 67 "C:\Users\YVTC\Desktop\單晶片微控制器(一)\期末作業\TT2_original.c" 1
  67  0009              	fcall __DELAYY3 +3-(((50000-( 9 + __PBP__ * 2))%0402h)%4) 
  67  0010              	ENDIF
  68  0010              #line 68 "C:\Users\YVTC\Desktop\單晶片微控制器(一)\期末作業\TT2_original.c"
  68  0010  0F38        	mov a,56
  68  0011  0080     R  	mov _LCMWrite_2[0],a
  68  0012  0F00        	mov a,0
  68  0013              	fcall _LCMWrite
  69  001A              #line 69 "C:\Users\YVTC\Desktop\單晶片微控制器(一)\期末作業\TT2_original.c"
  69  001A  0F0F        	mov a,15
  69  001B  0080     R  	mov _LCMWrite_2[0],a
  69  001C  0F00        	mov a,0
"File: TT2_original.c  Assembler  Version HGASM0202      Page 6

  69  001D              	fcall _LCMWrite
  70  0024              #line 70 "C:\Users\YVTC\Desktop\單晶片微控制器(一)\期末作業\TT2_original.c"
  70  0024  0F06        	mov a,6
  70  0025  0080     R  	mov _LCMWrite_2[0],a
  70  0026  0F00        	mov a,0
  70  0027              	fcall _LCMWrite
  71  002E              #line 71 "C:\Users\YVTC\Desktop\單晶片微控制器(一)\期末作業\TT2_original.c"
  71  002E  0F01        	mov a,1
  71  002F  0080     R  	mov _LCMWrite_2[0],a
  71  0030  0F00        	mov a,0
  71  0031              	fcall _LCMWrite
  71  0038  0003        	ret
  71  0039              _LCMInit endp
  71  0039              #line 71 "C:\Users\YVTC\Desktop\單晶片微控制器(一)\期末作業\TT2_original.c"
  71  0039              #pragma debug scope 1 1
  71  0039              ___pec equ [35]
  71  0039              ___pepu equ [33]
  71  0039              ___pe equ [34]
  71  0039              public _ScanKey
  71  0039              #pragma debug scope 5 1
  91  0039              #line 91 "C:\Users\YVTC\Desktop\單晶片微控制器(一)\期末作業\TT2_original.c"
  91  0000              _ScanKey .section 'code'
  91  0000              _ScanKey proc
  92  0000              #line 92 "C:\Users\YVTC\Desktop\單晶片微控制器(一)\期末作業\TT2_original.c"
  92  0000  0FF0        	mov a,240
  92  0001  00A3        	mov [35],a
  92  0002  0FF0        	mov a,240
  92  0003  00A1        	mov [33],a
  93  0004              #line 93 "C:\Users\YVTC\Desktop\單晶片微控制器(一)\期末作業\TT2_original.c"
  93  0004  0FFE        	mov a,254
  93  0005  00A2        	mov [34],a
  91  0006              #line 91 "C:\Users\YVTC\Desktop\單晶片微控制器(一)\期末作業\TT2_original.c"
  91  0006  1F00     E  	clr ra
  91  0007              _L16:
  95  0007              #line 95 "C:\Users\YVTC\Desktop\單晶片微控制器(一)\期末作業\TT2_original.c"
  95  0007  3A22        	snz [34].4
  95  0008  2800     R  	jmp _L12
  97  0009              #line 97 "C:\Users\YVTC\Desktop\單晶片微控制器(一)\期末作業\TT2_original.c"
  97  0009  3EA2        	sz [34].5
  97  000A  2800     R  	jmp _L13
  96  000B              #line 96 "C:\Users\YVTC\Desktop\單晶片微控制器(一)\期末作業\TT2_original.c"
  96  000B  1480     E  	inc ra
  96  000C  2800     R  	jmp _L12
  96  000D              _L13:
  99  000D              #line 99 "C:\Users\YVTC\Desktop\單晶片微控制器(一)\期末作業\TT2_original.c"
  99  000D  3F22        	sz [34].6
  99  000E  2800     R  	jmp _L14
  98  000F              #line 98 "C:\Users\YVTC\Desktop\單晶片微控制器(一)\期末作業\TT2_original.c"
  98  000F  0F02        	mov a,2
  98  0010  0380     E  	addm a,ra
  98  0011  2800     R  	jmp _L12
  98  0012              _L14:
 101  0012              #line 101 "C:\Users\YVTC\Desktop\單晶片微控制器(一)\期末作業\TT2_original.c"
 101  0012  3FA2        	sz [34].7
 101  0013  2800     R  	jmp _L15
 100  0014              #line 100 "C:\Users\YVTC\Desktop\單晶片微控制器(一)\期末作業\TT2_original.c"
 100  0014  0F03        	mov a,3
 100  0015  0380     E  	addm a,ra
 100  0016  2800     R  	jmp _L12
 100  0017              _L15:
"File: TT2_original.c  Assembler  Version HGASM0202      Page 7

 102  0017              #line 102 "C:\Users\YVTC\Desktop\單晶片微控制器(一)\期末作業\TT2_original.c"
 102  0017  0F04        	mov a,4
 102  0018  0380     E  	addm a,ra
 103  0019              #line 103 "C:\Users\YVTC\Desktop\單晶片微控制器(一)\期末作業\TT2_original.c"
 103  0019  0722        	mov a,[34]
 103  001A  03A2        	addm a,[34]
 103  001B  3022        	set [34].0
  94  001C              #line 94 "C:\Users\YVTC\Desktop\單晶片微控制器(一)\期末作業\TT2_original.c"
  94  001C  0700     E  	mov a,ra
  94  001D  0A10        	sub a,16
  94  001E  390A        	snz z
  94  001F  2800     R  	jmp _L16
  94  0020              _L12:
 106  0020              #line 106 "C:\Users\YVTC\Desktop\單晶片微控制器(一)\期末作業\TT2_original.c"
 106  0020  0700     E  	mov a,ra
 106  0021  0003        	ret
 106  0022              _ScanKey endp
 106  0022              #line 106 "C:\Users\YVTC\Desktop\單晶片微控制器(一)\期末作業\TT2_original.c"
 106  0022              #pragma debug scope 1 1
 106  0022              public _PAUSE
 106  0022              #pragma debug scope 6 1
 108  0022              #line 108 "C:\Users\YVTC\Desktop\單晶片微控制器(一)\期末作業\TT2_original.c"
 108  0000              _PAUSE .section 'code'
 108  0000              _PAUSE proc
 108  0000  00              local _PAUSE_2 db 1 dup(?)	; 0,1
 108  0000  0080     R  	mov _PAUSE_2[0],a
 108  0001              #pragma debug variable 8 6 _PAUSE_2+0 "i"
 109  0001              #line 109 "C:\Users\YVTC\Desktop\單晶片微控制器(一)\期末作業\TT2_original.c"
 109  0001  1F00     E  	clr ra
 109  0002  2800     R  	jmp _L24
 109  0003              _L25:
 109  0003              #line 109 "C:\Users\YVTC\Desktop\單晶片微控制器(一)\期末作業\TT2_original.c"
 109  0003              ;# 109 "C:\Users\YVTC\Desktop\單晶片微控制器(一)\期末作業\TT2_original.c" 1
 109  0003              	IF 20000>263690
 109  0003              ;# 109 "C:\Users\YVTC\Desktop\單晶片微控制器(一)\期末作業\TT2_original.c" 1
 109  0003              	ERRMESSAGE 'the value 20000of the argument exceeds the maxinum 263690'
 109  0003              	ENDIF
 109  0003              ;# 109 "C:\Users\YVTC\Desktop\單晶片微控制器(一)\期末作業\TT2_original.c" 1
 109  0003              	IF 20000<0
 109  0003              ;# 109 "C:\Users\YVTC\Desktop\單晶片微控制器(一)\期末作業\TT2_original.c" 1
 109  0003              	ERRMESSAGE 'the value 20000 of the argument exceeds the mininum 0'
 109  0003              	ENDIF
 109  0003              ;# 109 "C:\Users\YVTC\Desktop\單晶片微控制器(一)\期末作業\TT2_original.c" 1
 109  0003              	IF 20000==0
 109  0003              ;# 109 "C:\Users\YVTC\Desktop\單晶片微控制器(一)\期末作業\TT2_original.c" 1
 109  0003              	JMP $
 109  0003              	ENDIF
 109  0003              ;# 109 "C:\Users\YVTC\Desktop\單晶片微控制器(一)\期末作業\TT2_original.c" 1
 109  0003              	IF (20000>=1) AND (20000<( 4 + __PBP__ * 2))
 109  0003              ;# 109 "C:\Users\YVTC\Desktop\單晶片微控制器(一)\期末作業\TT2_original.c" 1
 109  0003              	NOP
 109  0003              	ENDIF
 109  0003              ;# 109 "C:\Users\YVTC\Desktop\單晶片微控制器(一)\期末作業\TT2_original.c" 1
 109  0003              	IF (20000>=2) AND (20000<( 4 + __PBP__ * 2))
 109  0003              ;# 109 "C:\Users\YVTC\Desktop\單晶片微控制器(一)\期末作業\TT2_original.c" 1
 109  0003              	NOP
 109  0003              	ENDIF
 109  0003              ;# 109 "C:\Users\YVTC\Desktop\單晶片微控制器(一)\期末作業\TT2_original.c" 1
 109  0003              	IF (20000>=3) AND (20000<( 4 + __PBP__ * 2))
 109  0003              ;# 109 "C:\Users\YVTC\Desktop\單晶片微控制器(一)\期末作業\TT2_original.c" 1
"File: TT2_original.c  Assembler  Version HGASM0202      Page 8

 109  0003              	NOP
 109  0003              	ENDIF
 109  0003              ;# 109 "C:\Users\YVTC\Desktop\單晶片微控制器(一)\期末作業\TT2_original.c" 1
 109  0003              	IF (20000>=4) AND (20000<( 4 + __PBP__ * 2)) AND ( __PBP__ > 0 )
 109  0003              ;# 109 "C:\Users\YVTC\Desktop\單晶片微控制器(一)\期末作業\TT2_original.c" 1
 109  0003              	NOP
 109  0003              	ENDIF
 109  0003              ;# 109 "C:\Users\YVTC\Desktop\單晶片微控制器(一)\期末作業\TT2_original.c" 1
 109  0003              	IF (20000>=5) AND (20000<( 4 + __PBP__ * 2)) AND ( __PBP__ > 0 )
 109  0003              ;# 109 "C:\Users\YVTC\Desktop\單晶片微控制器(一)\期末作業\TT2_original.c" 1
 109  0003              	NOP
 109  0003              	ENDIF
 109  0003              ;# 109 "C:\Users\YVTC\Desktop\單晶片微控制器(一)\期末作業\TT2_original.c" 1
 109  0003              	IF (20000>=6) AND (20000<( 4 + __PBP__ * 2))  AND ( __PBP__ > 1 )
 109  0003              ;# 109 "C:\Users\YVTC\Desktop\單晶片微控制器(一)\期末作業\TT2_original.c" 1
 109  0003              	NOP
 109  0003              	ENDIF
 109  0003              ;# 109 "C:\Users\YVTC\Desktop\單晶片微控制器(一)\期末作業\TT2_original.c" 1
 109  0003              	IF (20000>=7) AND (20000<( 4 + __PBP__ * 2))  AND ( __PBP__ > 1 )
 109  0003              ;# 109 "C:\Users\YVTC\Desktop\單晶片微控制器(一)\期末作業\TT2_original.c" 1
 109  0003              	NOP
 109  0003              	ENDIF
 109  0003              ;# 109 "C:\Users\YVTC\Desktop\單晶片微控制器(一)\期末作業\TT2_original.c" 1
 109  0003              	IF (20000>=8) AND (20000<( 4 + __PBP__ * 2))  AND ( __PBP__ > 2 )
 109  0003              ;# 109 "C:\Users\YVTC\Desktop\單晶片微控制器(一)\期末作業\TT2_original.c" 1
 109  0003              	NOP
 109  0003              	ENDIF
 109  0003              ;# 109 "C:\Users\YVTC\Desktop\單晶片微控制器(一)\期末作業\TT2_original.c" 1
 109  0003              	IF (20000==9)  AND ( __PBP__ > 2 )
 109  0003              ;# 109 "C:\Users\YVTC\Desktop\單晶片微控制器(一)\期末作業\TT2_original.c" 1
 109  0003              	NOP
 109  0003              	ENDIF
 109  0003              ;# 109 "C:\Users\YVTC\Desktop\單晶片微控制器(一)\期末作業\TT2_original.c" 1
 109  0003              	IF (20000< ( 8 + __PBP__ * 2)) AND (20000>( 3 + __PBP__ * 2))
 109  0003              ;# 109 "C:\Users\YVTC\Desktop\單晶片微控制器(一)\期末作業\TT2_original.c" 1
 109  0003              	fcall __DELAY3 + ( 7 + __PBP__ * 2) -20000
 109  0003              	ENDIF
 109  0003              ;# 109 "C:\Users\YVTC\Desktop\單晶片微控制器(一)\期末作業\TT2_original.c" 1
 109  0003              	IF (20000< ( 0404h + __PBP__ * 2)) AND (20000>( 7 + __PBP__ * 2))
 109  0003              ;# 109 "C:\Users\YVTC\Desktop\單晶片微控制器(一)\期末作業\TT2_original.c" 1
 109  0003              	MOV A,(20000-( 4 + __PBP__ * 2))/4
 109  0003              ;# 109 "C:\Users\YVTC\Desktop\單晶片微控制器(一)\期末作業\TT2_original.c" 1
 109  0003              	fcall __DELAYX3 + 3 -((20000-( 4 + __PBP__ * 2)) MOD 4) 
 109  0003              	ENDIF
 109  0003              ;# 109 "C:\Users\YVTC\Desktop\單晶片微控制器(一)\期末作業\TT2_original.c" 1
 109  0003              	IF (20000< ( 040bh + __PBP__ * 2)) AND (20000> ( 0403h + __PBP__ * 2))
 109  0003              ;# 109 "C:\Users\YVTC\Desktop\單晶片微控制器(一)\期末作業\TT2_original.c" 1
 109  0003              	MOV A,0 
 109  0003              ;# 109 "C:\Users\YVTC\Desktop\單晶片微控制器(一)\期末作業\TT2_original.c" 1
 109  0003              	fcall __DELAYX6 + ( 040ah + __PBP__ * 2) -20000
 109  0003              	ENDIF
 109  0003              ;# 109 "C:\Users\YVTC\Desktop\單晶片微控制器(一)\期末作業\TT2_original.c" 1
 109  0003              	IF (20000 >= ( 040bh + __PBP__ * 2)) AND ((((20000-( 9 + __PBP__ * 2))%0402h)/4+1)>256)
 109  0003              ;# 109 "C:\Users\YVTC\Desktop\單晶片微控制器(一)\期末作業\TT2_original.c" 1
 109  0003              	MOV A,(20000-( 9 + __PBP__ * 2))/0402h
 109  0003              ;# 109 "C:\Users\YVTC\Desktop\單晶片微控制器(一)\期末作業\TT2_original.c" 1
 109  0003              	MOV _builtin_holtek_delay_2,A
 109  0003              ;# 109 "C:\Users\YVTC\Desktop\單晶片微控制器(一)\期末作業\TT2_original.c" 1
 109  0003              	MOV A,0
 109  0003              ;# 109 "C:\Users\YVTC\Desktop\單晶片微控制器(一)\期末作業\TT2_original.c" 1
"File: TT2_original.c  Assembler  Version HGASM0202      Page 9

 109  0003              	fcall __DELAYY5 +5- (((20000-( 9 + __PBP__ * 2))%0402h)%6) 
 109  0003              	ENDIF
 109  0003              ;# 109 "C:\Users\YVTC\Desktop\單晶片微控制器(一)\期末作業\TT2_original.c" 1
 109  0003              	IF (20000 >= ( 040bh + __PBP__ * 2)) AND ((((20000-( 9 + __PBP__ * 2))%0402h)/4+1)<=256)
 109  0003              ;# 109 "C:\Users\YVTC\Desktop\單晶片微控制器(一)\期末作業\TT2_original.c" 1
 109  0003  0F13        	MOV A,(20000-( 9 + __PBP__ * 2))/0402h
 109  0004              ;# 109 "C:\Users\YVTC\Desktop\單晶片微控制器(一)\期末作業\TT2_original.c" 1
 109  0004  0080     E  	MOV _builtin_holtek_delay_2,A
 109  0005              ;# 109 "C:\Users\YVTC\Desktop\單晶片微控制器(一)\期末作業\TT2_original.c" 1
 109  0005  0F7C        	MOV A,((20000-( 9 + __PBP__ * 2))%0402h)/4+1
 109  0006              ;# 109 "C:\Users\YVTC\Desktop\單晶片微控制器(一)\期末作業\TT2_original.c" 1
 109  0006              	fcall __DELAYY3 +3-(((20000-( 9 + __PBP__ * 2))%0402h)%4) 
 109  000D              	ENDIF
 109  000D  1480     E  	inc ra
 109  000E              _L24:
 109  000E  0700     E  	mov a,ra
 109  000F  0200     R  	sub a,_PAUSE_2[0]
 109  0010  390A        	snz z
 109  0011  2800     R  	jmp _L25
 109  0012  0003        	ret
 109  0013              _PAUSE endp
 109  0013              #line 109 "C:\Users\YVTC\Desktop\單晶片微控制器(一)\期末作業\TT2_original.c"
 109  0013              #pragma debug scope 1 1
 109  0013              ___tm0al equ [98]
 109  0013              ___tm0ah equ [99]
 109  0013              ___mfi0 equ [52]
 109  0013              ___pa equ [18]
 109  0013              ___tm0c0 equ [94]
 109  0013              public _UARTTXData
 109  0013              #pragma debug scope 7 1
 112  0013              #line 112 "C:\Users\YVTC\Desktop\單晶片微控制器(一)\期末作業\TT2_original.c"
 112  0000              _UARTTXData .section 'code'
 112  0000              _UARTTXData proc
 112  0000  00              local _UARTTXData_2 db 1 dup(?)	; 0,1
 112  0000  0080     R  	mov _UARTTXData_2[0],a
 112  0001              #pragma debug variable 8 7 _UARTTXData_2+0 "data"
 113  0001              #line 113 "C:\Users\YVTC\Desktop\單晶片微控制器(一)\期末作業\TT2_original.c"
 113  0001  0FA0        	mov a,160
 113  0002  00E2        	mov [98],a
 113  0003  0F01        	mov a,1
 113  0004  00E3        	mov [99],a
 114  0005              #line 114 "C:\Users\YVTC\Desktop\單晶片微控制器(一)\期末作業\TT2_original.c"
 114  0005  36B4        	clr [52].5
 115  0006              #line 115 "C:\Users\YVTC\Desktop\單晶片微控制器(一)\期末作業\TT2_original.c"
 115  0006  3492        	clr [18].1
 116  0007              #line 116 "C:\Users\YVTC\Desktop\單晶片微控制器(一)\期末作業\TT2_original.c"
 116  0007  31DE        	set [94].3
 116  0008              _L28:
 117  0008              #line 117 "C:\Users\YVTC\Desktop\單晶片微控制器(一)\期末作業\TT2_original.c"
 117  0008  3AB4        	snz [52].5
 117  0009  2800     R  	jmp _L28
 118  000A              #line 118 "C:\Users\YVTC\Desktop\單晶片微控制器(一)\期末作業\TT2_original.c"
 118  000A  36B4        	clr [52].5
 118  000B  1F00     E  	clr rb
 112  000C              #line 112 "C:\Users\YVTC\Desktop\單晶片微控制器(一)\期末作業\TT2_original.c"
 112  000C  0F01        	mov a,1
 112  000D  0080     E  	mov ra,a
 112  000E              _L34:
 120  000E              #line 120 "C:\Users\YVTC\Desktop\單晶片微控制器(一)\期末作業\TT2_original.c"
 120  000E  0700     E  	mov a,ra
"File: TT2_original.c  Assembler  Version HGASM0202      Page 10

 120  000F  0600     R  	and a,_UARTTXData_2[0]
 120  0010  0080     E  	mov rc,a
 120  0011  1E00     E  	snz rc
 120  0012  2800     R  	jmp _L29
 120  0013  3092        	set [18].1
 120  0014  2800     R  	jmp _L32
 120  0015              _L29:
 120  0015  3492        	clr [18].1
 120  0016              _L32:
 121  0016              #line 121 "C:\Users\YVTC\Desktop\單晶片微控制器(一)\期末作業\TT2_original.c"
 121  0016  3AB4        	snz [52].5
 121  0017  2800     R  	jmp _L32
 122  0018              #line 122 "C:\Users\YVTC\Desktop\單晶片微控制器(一)\期末作業\TT2_original.c"
 122  0018  36B4        	clr [52].5
 123  0019              #line 123 "C:\Users\YVTC\Desktop\單晶片微控制器(一)\期末作業\TT2_original.c"
 123  0019  0700     E  	mov a,ra
 123  001A  0380     E  	addm a,ra
 123  001B  1480     E  	inc rb
 124  001C              #line 124 "C:\Users\YVTC\Desktop\單晶片微控制器(一)\期末作業\TT2_original.c"
 124  001C  0700     E  	mov a,rb
 124  001D  0A08        	sub a,8
 124  001E  390A        	snz z
 124  001F  2800     R  	jmp _L34
 125  0020              #line 125 "C:\Users\YVTC\Desktop\單晶片微控制器(一)\期末作業\TT2_original.c"
 125  0020  3092        	set [18].1
 125  0021              _L36:
 126  0021              #line 126 "C:\Users\YVTC\Desktop\單晶片微控制器(一)\期末作業\TT2_original.c"
 126  0021  3AB4        	snz [52].5
 126  0022  2800     R  	jmp _L36
 127  0023              #line 127 "C:\Users\YVTC\Desktop\單晶片微控制器(一)\期末作業\TT2_original.c"
 127  0023  35DE        	clr [94].3
 127  0024  0003        	ret
 127  0025              _UARTTXData endp
 127  0025              #line 127 "C:\Users\YVTC\Desktop\單晶片微控制器(一)\期末作業\TT2_original.c"
 127  0025              #pragma debug scope 1 1
 127  0025              public _Delayms
 127  0025              #pragma debug scope 8 1
 130  0025              #line 130 "C:\Users\YVTC\Desktop\單晶片微控制器(一)\期末作業\TT2_original.c"
 130  0000              _Delayms .section 'code'
 130  0000              _Delayms proc
 130  0000              public _Delayms_2
 130  0000  0002[           local _Delayms_2 db 2 dup(?)	; 2,0
            00
            ]
 130  0002              #pragma debug variable 10 8 _Delayms_2+0 "del"
 131  0002              #line 131 "C:\Users\YVTC\Desktop\單晶片微控制器(一)\期末作業\TT2_original.c"
 131  0000  1F00     E  	clr rb
 131  0001  1F00     E  	clr rc
 131  0002  2800     R  	jmp _L38
 131  0003              _L39:
 131  0003              #line 131 "C:\Users\YVTC\Desktop\單晶片微控制器(一)\期末作業\TT2_original.c"
 131  0003              ;# 131 "C:\Users\YVTC\Desktop\單晶片微控制器(一)\期末作業\TT2_original.c" 1
 131  0003              	IF 2000>263690
 131  0003              ;# 131 "C:\Users\YVTC\Desktop\單晶片微控制器(一)\期末作業\TT2_original.c" 1
 131  0003              	ERRMESSAGE 'the value 2000of the argument exceeds the maxinum 263690'
 131  0003              	ENDIF
 131  0003              ;# 131 "C:\Users\YVTC\Desktop\單晶片微控制器(一)\期末作業\TT2_original.c" 1
 131  0003              	IF 2000<0
 131  0003              ;# 131 "C:\Users\YVTC\Desktop\單晶片微控制器(一)\期末作業\TT2_original.c" 1
 131  0003              	ERRMESSAGE 'the value 2000 of the argument exceeds the mininum 0'
"File: TT2_original.c  Assembler  Version HGASM0202      Page 11

 131  0003              	ENDIF
 131  0003              ;# 131 "C:\Users\YVTC\Desktop\單晶片微控制器(一)\期末作業\TT2_original.c" 1
 131  0003              	IF 2000==0
 131  0003              ;# 131 "C:\Users\YVTC\Desktop\單晶片微控制器(一)\期末作業\TT2_original.c" 1
 131  0003              	JMP $
 131  0003              	ENDIF
 131  0003              ;# 131 "C:\Users\YVTC\Desktop\單晶片微控制器(一)\期末作業\TT2_original.c" 1
 131  0003              	IF (2000>=1) AND (2000<( 4 + __PBP__ * 2))
 131  0003              ;# 131 "C:\Users\YVTC\Desktop\單晶片微控制器(一)\期末作業\TT2_original.c" 1
 131  0003              	NOP
 131  0003              	ENDIF
 131  0003              ;# 131 "C:\Users\YVTC\Desktop\單晶片微控制器(一)\期末作業\TT2_original.c" 1
 131  0003              	IF (2000>=2) AND (2000<( 4 + __PBP__ * 2))
 131  0003              ;# 131 "C:\Users\YVTC\Desktop\單晶片微控制器(一)\期末作業\TT2_original.c" 1
 131  0003              	NOP
 131  0003              	ENDIF
 131  0003              ;# 131 "C:\Users\YVTC\Desktop\單晶片微控制器(一)\期末作業\TT2_original.c" 1
 131  0003              	IF (2000>=3) AND (2000<( 4 + __PBP__ * 2))
 131  0003              ;# 131 "C:\Users\YVTC\Desktop\單晶片微控制器(一)\期末作業\TT2_original.c" 1
 131  0003              	NOP
 131  0003              	ENDIF
 131  0003              ;# 131 "C:\Users\YVTC\Desktop\單晶片微控制器(一)\期末作業\TT2_original.c" 1
 131  0003              	IF (2000>=4) AND (2000<( 4 + __PBP__ * 2)) AND ( __PBP__ > 0 )
 131  0003              ;# 131 "C:\Users\YVTC\Desktop\單晶片微控制器(一)\期末作業\TT2_original.c" 1
 131  0003              	NOP
 131  0003              	ENDIF
 131  0003              ;# 131 "C:\Users\YVTC\Desktop\單晶片微控制器(一)\期末作業\TT2_original.c" 1
 131  0003              	IF (2000>=5) AND (2000<( 4 + __PBP__ * 2)) AND ( __PBP__ > 0 )
 131  0003              ;# 131 "C:\Users\YVTC\Desktop\單晶片微控制器(一)\期末作業\TT2_original.c" 1
 131  0003              	NOP
 131  0003              	ENDIF
 131  0003              ;# 131 "C:\Users\YVTC\Desktop\單晶片微控制器(一)\期末作業\TT2_original.c" 1
 131  0003              	IF (2000>=6) AND (2000<( 4 + __PBP__ * 2))  AND ( __PBP__ > 1 )
 131  0003              ;# 131 "C:\Users\YVTC\Desktop\單晶片微控制器(一)\期末作業\TT2_original.c" 1
 131  0003              	NOP
 131  0003              	ENDIF
 131  0003              ;# 131 "C:\Users\YVTC\Desktop\單晶片微控制器(一)\期末作業\TT2_original.c" 1
 131  0003              	IF (2000>=7) AND (2000<( 4 + __PBP__ * 2))  AND ( __PBP__ > 1 )
 131  0003              ;# 131 "C:\Users\YVTC\Desktop\單晶片微控制器(一)\期末作業\TT2_original.c" 1
 131  0003              	NOP
 131  0003              	ENDIF
 131  0003              ;# 131 "C:\Users\YVTC\Desktop\單晶片微控制器(一)\期末作業\TT2_original.c" 1
 131  0003              	IF (2000>=8) AND (2000<( 4 + __PBP__ * 2))  AND ( __PBP__ > 2 )
 131  0003              ;# 131 "C:\Users\YVTC\Desktop\單晶片微控制器(一)\期末作業\TT2_original.c" 1
 131  0003              	NOP
 131  0003              	ENDIF
 131  0003              ;# 131 "C:\Users\YVTC\Desktop\單晶片微控制器(一)\期末作業\TT2_original.c" 1
 131  0003              	IF (2000==9)  AND ( __PBP__ > 2 )
 131  0003              ;# 131 "C:\Users\YVTC\Desktop\單晶片微控制器(一)\期末作業\TT2_original.c" 1
 131  0003              	NOP
 131  0003              	ENDIF
 131  0003              ;# 131 "C:\Users\YVTC\Desktop\單晶片微控制器(一)\期末作業\TT2_original.c" 1
 131  0003              	IF (2000< ( 8 + __PBP__ * 2)) AND (2000>( 3 + __PBP__ * 2))
 131  0003              ;# 131 "C:\Users\YVTC\Desktop\單晶片微控制器(一)\期末作業\TT2_original.c" 1
 131  0003              	fcall __DELAY3 + ( 7 + __PBP__ * 2) -2000
 131  0003              	ENDIF
 131  0003              ;# 131 "C:\Users\YVTC\Desktop\單晶片微控制器(一)\期末作業\TT2_original.c" 1
 131  0003              	IF (2000< ( 0404h + __PBP__ * 2)) AND (2000>( 7 + __PBP__ * 2))
 131  0003              ;# 131 "C:\Users\YVTC\Desktop\單晶片微控制器(一)\期末作業\TT2_original.c" 1
 131  0003              	MOV A,(2000-( 4 + __PBP__ * 2))/4
"File: TT2_original.c  Assembler  Version HGASM0202      Page 12

 131  0003              ;# 131 "C:\Users\YVTC\Desktop\單晶片微控制器(一)\期末作業\TT2_original.c" 1
 131  0003              	fcall __DELAYX3 + 3 -((2000-( 4 + __PBP__ * 2)) MOD 4) 
 131  0003              	ENDIF
 131  0003              ;# 131 "C:\Users\YVTC\Desktop\單晶片微控制器(一)\期末作業\TT2_original.c" 1
 131  0003              	IF (2000< ( 040bh + __PBP__ * 2)) AND (2000> ( 0403h + __PBP__ * 2))
 131  0003              ;# 131 "C:\Users\YVTC\Desktop\單晶片微控制器(一)\期末作業\TT2_original.c" 1
 131  0003              	MOV A,0 
 131  0003              ;# 131 "C:\Users\YVTC\Desktop\單晶片微控制器(一)\期末作業\TT2_original.c" 1
 131  0003              	fcall __DELAYX6 + ( 040ah + __PBP__ * 2) -2000
 131  0003              	ENDIF
 131  0003              ;# 131 "C:\Users\YVTC\Desktop\單晶片微控制器(一)\期末作業\TT2_original.c" 1
 131  0003              	IF (2000 >= ( 040bh + __PBP__ * 2)) AND ((((2000-( 9 + __PBP__ * 2))%0402h)/4+1)>256)
 131  0003              ;# 131 "C:\Users\YVTC\Desktop\單晶片微控制器(一)\期末作業\TT2_original.c" 1
 131  0003              	MOV A,(2000-( 9 + __PBP__ * 2))/0402h
 131  0003              ;# 131 "C:\Users\YVTC\Desktop\單晶片微控制器(一)\期末作業\TT2_original.c" 1
 131  0003              	MOV _builtin_holtek_delay_2,A
 131  0003              ;# 131 "C:\Users\YVTC\Desktop\單晶片微控制器(一)\期末作業\TT2_original.c" 1
 131  0003              	MOV A,0
 131  0003              ;# 131 "C:\Users\YVTC\Desktop\單晶片微控制器(一)\期末作業\TT2_original.c" 1
 131  0003              	fcall __DELAYY5 +5- (((2000-( 9 + __PBP__ * 2))%0402h)%6) 
 131  0003              	ENDIF
 131  0003              ;# 131 "C:\Users\YVTC\Desktop\單晶片微控制器(一)\期末作業\TT2_original.c" 1
 131  0003              	IF (2000 >= ( 040bh + __PBP__ * 2)) AND ((((2000-( 9 + __PBP__ * 2))%0402h)/4+1)<=256)
 131  0003              ;# 131 "C:\Users\YVTC\Desktop\單晶片微控制器(一)\期末作業\TT2_original.c" 1
 131  0003  0F01        	MOV A,(2000-( 9 + __PBP__ * 2))/0402h
 131  0004              ;# 131 "C:\Users\YVTC\Desktop\單晶片微控制器(一)\期末作業\TT2_original.c" 1
 131  0004  0080     E  	MOV _builtin_holtek_delay_2,A
 131  0005              ;# 131 "C:\Users\YVTC\Desktop\單晶片微控制器(一)\期末作業\TT2_original.c" 1
 131  0005  0FF1        	MOV A,((2000-( 9 + __PBP__ * 2))%0402h)/4+1
 131  0006              ;# 131 "C:\Users\YVTC\Desktop\單晶片微控制器(一)\期末作業\TT2_original.c" 1
 131  0006              	fcall __DELAYY3 +3-(((2000-( 9 + __PBP__ * 2))%0402h)%4) 
 131  000D              	ENDIF
 131  000D  1480     E  	inc rb
 131  000E  3D0A        	sz z
 131  000F  1480     E  	inc rc
 131  0010              _L38:
 131  0010  0700     E  	mov a,rb
 131  0011  0200     R  	sub a,_Delayms_2[0]
 131  0012  0700     E  	mov a,rc
 131  0013  1200     R  	sbc a,_Delayms_2[1]
 131  0014  3B0A        	snz cz
 131  0015  2800     R  	jmp _L39
 131  0016  0003        	ret
 131  0017              _Delayms endp
 131  0017              #line 131 "C:\Users\YVTC\Desktop\單晶片微控制器(一)\期末作業\TT2_original.c"
 131  0017              #pragma debug scope 1 1
 131  0017              ___wdtc equ [62]
 131  0017              ___pac equ [19]
 131  0017              ___integ equ [57]
 131  0017              ___papu equ [17]
 131  0017              ___ifs0 equ [328]
 131  0017              ___tm0c1 equ [95]
 131  0017              ___intc0 equ [48]
 131  0017              public _main
 131  0017              #pragma debug scope 9 1
  27  0017              #line 27 "C:\Users\YVTC\Desktop\單晶片微控制器(一)\期末作業\TT2_original.c"
  27  0017              IFDEF WITH_DEFAULT_STARTUP
  27  0017              extern _main_initial0:near
  27  0017              extern _main_startup:near
  27  0017              ENDIF
"File: TT2_original.c  Assembler  Version HGASM0202      Page 13

  27  0017              
  27  0017              ROMBANK 0 @start
  27  0000              @start .section com_l 'code'
  27  0000              _main_startup1:
  27  0000              @start .section com_e 'code'
  27  0000  0F00     R  	mov a,bank _main
  27  0001  008B        	mov bp,a
  27  0002  2800     R  	jmp _main
  27  0003              
  27  0000              _main .section 'code'
  27  0000              _main proc
  27  0000  0002[           local _main_2 db 2 dup(?)
            00
            ]
  27  0002              #pragma debug variable 8 9 _main_2+1 "AC"
  28  0002              #line 28 "C:\Users\YVTC\Desktop\單晶片微控制器(一)\期末作業\TT2_original.c"
  28  0000  0FAF        	mov a,175
  28  0001  00BE        	mov [62],a
  29  0002              #line 29 "C:\Users\YVTC\Desktop\單晶片微控制器(一)\期末作業\TT2_original.c"
  29  0002              	fcall _LCMInit
  31  0009              #line 31 "C:\Users\YVTC\Desktop\單晶片微控制器(一)\期末作業\TT2_original.c"
  31  0009  3193        	set [19].3
  31  000A  3092        	set [18].1
  31  000B  3493        	clr [19].1
  32  000C              #line 32 "C:\Users\YVTC\Desktop\單晶片微控制器(一)\期末作業\TT2_original.c"
  32  000C  0F02        	mov a,2
  32  000D  00B9        	mov [57],a
  32  000E  3191        	set [17].3
  33  000F              #line 33 "C:\Users\YVTC\Desktop\單晶片微控制器(一)\期末作業\TT2_original.c"
  33  000F  9F48 0001   	lclr [328]
  34  0011              #line 34 "C:\Users\YVTC\Desktop\單晶片微控制器(一)\期末作業\TT2_original.c"
  34  0011  0F10        	mov a,16
  34  0012  00DE        	mov [94],a
  35  0013              #line 35 "C:\Users\YVTC\Desktop\單晶片微控制器(一)\期末作業\TT2_original.c"
  35  0013  0FC1        	mov a,193
  35  0014  00DF        	mov [95],a
  36  0015              #line 36 "C:\Users\YVTC\Desktop\單晶片微控制器(一)\期末作業\TT2_original.c"
  36  0015  30B0        	set [48].1
  36  0016  3030        	set [48].0
  27  0017              #line 27 "C:\Users\YVTC\Desktop\單晶片微控制器(一)\期末作業\TT2_original.c"
  27  0017  1F00     R  	clr _main_2[1]
  27  0018              _L42:
  40  0018              #line 40 "C:\Users\YVTC\Desktop\單晶片微控制器(一)\期末作業\TT2_original.c"
  40  0018              	fcall _ScanKey
  40  001F  0080     R  	mov _main_2[0],a
  40  0020  0700     R  	mov a,_main_2[0]
  40  0021  0A10        	sub a,16
  40  0022  3D0A        	sz z
  40  0023  2800     R  	jmp _L42
  41  0024              #line 41 "C:\Users\YVTC\Desktop\單晶片微控制器(一)\期末作業\TT2_original.c"
  41  0024  0F14        	mov a,20
  41  0025              	fcall _PAUSE
  41  002C              _L44:
  42  002C              #line 42 "C:\Users\YVTC\Desktop\單晶片微控制器(一)\期末作業\TT2_original.c"
  42  002C              	fcall _ScanKey
  42  0033  0080     E  	mov ra,a
  42  0034  0700     E  	mov a,ra
  42  0035  0A10        	sub a,16
  42  0036  390A        	snz z
  42  0037  2800     R  	jmp _L44
"File: TT2_original.c  Assembler  Version HGASM0202      Page 14

  43  0038              #line 43 "C:\Users\YVTC\Desktop\單晶片微控制器(一)\期末作業\TT2_original.c"
  43  0038  0F05        	mov a,5
  43  0039              	fcall _PAUSE
  44  0040              #line 44 "C:\Users\YVTC\Desktop\單晶片微控制器(一)\期末作業\TT2_original.c"
  44  0040  0F52        	mov a,82
  44  0041  0200     R  	sub a,_main_2[1]
  44  0042  3C0A        	sz c
  44  0043  2800     R  	jmp _L45
  45  0044              #line 45 "C:\Users\YVTC\Desktop\單晶片微控制器(一)\期末作業\TT2_original.c"
  45  0044  0F01        	mov a,1
  45  0045  0080     R  	mov _LCMWrite_2[0],a
  45  0046  0F00        	mov a,0
  45  0047              	fcall _LCMWrite
  46  004E              #line 46 "C:\Users\YVTC\Desktop\單晶片微控制器(一)\期末作業\TT2_original.c"
  46  004E              ;# 46 "C:\Users\YVTC\Desktop\單晶片微控制器(一)\期末作業\TT2_original.c" 1
  46  004E              	IF 4000>263690
  46  004E              ;# 46 "C:\Users\YVTC\Desktop\單晶片微控制器(一)\期末作業\TT2_original.c" 1
  46  004E              	ERRMESSAGE 'the value 4000of the argument exceeds the maxinum 263690'
  46  004E              	ENDIF
  46  004E              ;# 46 "C:\Users\YVTC\Desktop\單晶片微控制器(一)\期末作業\TT2_original.c" 1
  46  004E              	IF 4000<0
  46  004E              ;# 46 "C:\Users\YVTC\Desktop\單晶片微控制器(一)\期末作業\TT2_original.c" 1
  46  004E              	ERRMESSAGE 'the value 4000 of the argument exceeds the mininum 0'
  46  004E              	ENDIF
  46  004E              ;# 46 "C:\Users\YVTC\Desktop\單晶片微控制器(一)\期末作業\TT2_original.c" 1
  46  004E              	IF 4000==0
  46  004E              ;# 46 "C:\Users\YVTC\Desktop\單晶片微控制器(一)\期末作業\TT2_original.c" 1
  46  004E              	JMP $
  46  004E              	ENDIF
  46  004E              ;# 46 "C:\Users\YVTC\Desktop\單晶片微控制器(一)\期末作業\TT2_original.c" 1
  46  004E              	IF (4000>=1) AND (4000<( 4 + __PBP__ * 2))
  46  004E              ;# 46 "C:\Users\YVTC\Desktop\單晶片微控制器(一)\期末作業\TT2_original.c" 1
  46  004E              	NOP
  46  004E              	ENDIF
  46  004E              ;# 46 "C:\Users\YVTC\Desktop\單晶片微控制器(一)\期末作業\TT2_original.c" 1
  46  004E              	IF (4000>=2) AND (4000<( 4 + __PBP__ * 2))
  46  004E              ;# 46 "C:\Users\YVTC\Desktop\單晶片微控制器(一)\期末作業\TT2_original.c" 1
  46  004E              	NOP
  46  004E              	ENDIF
  46  004E              ;# 46 "C:\Users\YVTC\Desktop\單晶片微控制器(一)\期末作業\TT2_original.c" 1
  46  004E              	IF (4000>=3) AND (4000<( 4 + __PBP__ * 2))
  46  004E              ;# 46 "C:\Users\YVTC\Desktop\單晶片微控制器(一)\期末作業\TT2_original.c" 1
  46  004E              	NOP
  46  004E              	ENDIF
  46  004E              ;# 46 "C:\Users\YVTC\Desktop\單晶片微控制器(一)\期末作業\TT2_original.c" 1
  46  004E              	IF (4000>=4) AND (4000<( 4 + __PBP__ * 2)) AND ( __PBP__ > 0 )
  46  004E              ;# 46 "C:\Users\YVTC\Desktop\單晶片微控制器(一)\期末作業\TT2_original.c" 1
  46  004E              	NOP
  46  004E              	ENDIF
  46  004E              ;# 46 "C:\Users\YVTC\Desktop\單晶片微控制器(一)\期末作業\TT2_original.c" 1
  46  004E              	IF (4000>=5) AND (4000<( 4 + __PBP__ * 2)) AND ( __PBP__ > 0 )
  46  004E              ;# 46 "C:\Users\YVTC\Desktop\單晶片微控制器(一)\期末作業\TT2_original.c" 1
  46  004E              	NOP
  46  004E              	ENDIF
  46  004E              ;# 46 "C:\Users\YVTC\Desktop\單晶片微控制器(一)\期末作業\TT2_original.c" 1
  46  004E              	IF (4000>=6) AND (4000<( 4 + __PBP__ * 2))  AND ( __PBP__ > 1 )
  46  004E              ;# 46 "C:\Users\YVTC\Desktop\單晶片微控制器(一)\期末作業\TT2_original.c" 1
  46  004E              	NOP
  46  004E              	ENDIF
  46  004E              ;# 46 "C:\Users\YVTC\Desktop\單晶片微控制器(一)\期末作業\TT2_original.c" 1
"File: TT2_original.c  Assembler  Version HGASM0202      Page 15

  46  004E              	IF (4000>=7) AND (4000<( 4 + __PBP__ * 2))  AND ( __PBP__ > 1 )
  46  004E              ;# 46 "C:\Users\YVTC\Desktop\單晶片微控制器(一)\期末作業\TT2_original.c" 1
  46  004E              	NOP
  46  004E              	ENDIF
  46  004E              ;# 46 "C:\Users\YVTC\Desktop\單晶片微控制器(一)\期末作業\TT2_original.c" 1
  46  004E              	IF (4000>=8) AND (4000<( 4 + __PBP__ * 2))  AND ( __PBP__ > 2 )
  46  004E              ;# 46 "C:\Users\YVTC\Desktop\單晶片微控制器(一)\期末作業\TT2_original.c" 1
  46  004E              	NOP
  46  004E              	ENDIF
  46  004E              ;# 46 "C:\Users\YVTC\Desktop\單晶片微控制器(一)\期末作業\TT2_original.c" 1
  46  004E              	IF (4000==9)  AND ( __PBP__ > 2 )
  46  004E              ;# 46 "C:\Users\YVTC\Desktop\單晶片微控制器(一)\期末作業\TT2_original.c" 1
  46  004E              	NOP
  46  004E              	ENDIF
  46  004E              ;# 46 "C:\Users\YVTC\Desktop\單晶片微控制器(一)\期末作業\TT2_original.c" 1
  46  004E              	IF (4000< ( 8 + __PBP__ * 2)) AND (4000>( 3 + __PBP__ * 2))
  46  004E              ;# 46 "C:\Users\YVTC\Desktop\單晶片微控制器(一)\期末作業\TT2_original.c" 1
  46  004E              	fcall __DELAY3 + ( 7 + __PBP__ * 2) -4000
  46  004E              	ENDIF
  46  004E              ;# 46 "C:\Users\YVTC\Desktop\單晶片微控制器(一)\期末作業\TT2_original.c" 1
  46  004E              	IF (4000< ( 0404h + __PBP__ * 2)) AND (4000>( 7 + __PBP__ * 2))
  46  004E              ;# 46 "C:\Users\YVTC\Desktop\單晶片微控制器(一)\期末作業\TT2_original.c" 1
  46  004E              	MOV A,(4000-( 4 + __PBP__ * 2))/4
  46  004E              ;# 46 "C:\Users\YVTC\Desktop\單晶片微控制器(一)\期末作業\TT2_original.c" 1
  46  004E              	fcall __DELAYX3 + 3 -((4000-( 4 + __PBP__ * 2)) MOD 4) 
  46  004E              	ENDIF
  46  004E              ;# 46 "C:\Users\YVTC\Desktop\單晶片微控制器(一)\期末作業\TT2_original.c" 1
  46  004E              	IF (4000< ( 040bh + __PBP__ * 2)) AND (4000> ( 0403h + __PBP__ * 2))
  46  004E              ;# 46 "C:\Users\YVTC\Desktop\單晶片微控制器(一)\期末作業\TT2_original.c" 1
  46  004E              	MOV A,0 
  46  004E              ;# 46 "C:\Users\YVTC\Desktop\單晶片微控制器(一)\期末作業\TT2_original.c" 1
  46  004E              	fcall __DELAYX6 + ( 040ah + __PBP__ * 2) -4000
  46  004E              	ENDIF
  46  004E              ;# 46 "C:\Users\YVTC\Desktop\單晶片微控制器(一)\期末作業\TT2_original.c" 1
  46  004E              	IF (4000 >= ( 040bh + __PBP__ * 2)) AND ((((4000-( 9 + __PBP__ * 2))%0402h)/4+1)>256)
  46  004E              ;# 46 "C:\Users\YVTC\Desktop\單晶片微控制器(一)\期末作業\TT2_original.c" 1
  46  004E              	MOV A,(4000-( 9 + __PBP__ * 2))/0402h
  46  004E              ;# 46 "C:\Users\YVTC\Desktop\單晶片微控制器(一)\期末作業\TT2_original.c" 1
  46  004E              	MOV _builtin_holtek_delay_2,A
  46  004E              ;# 46 "C:\Users\YVTC\Desktop\單晶片微控制器(一)\期末作業\TT2_original.c" 1
  46  004E              	MOV A,0
  46  004E              ;# 46 "C:\Users\YVTC\Desktop\單晶片微控制器(一)\期末作業\TT2_original.c" 1
  46  004E              	fcall __DELAYY5 +5- (((4000-( 9 + __PBP__ * 2))%0402h)%6) 
  46  004E              	ENDIF
  46  004E              ;# 46 "C:\Users\YVTC\Desktop\單晶片微控制器(一)\期末作業\TT2_original.c" 1
  46  004E              	IF (4000 >= ( 040bh + __PBP__ * 2)) AND ((((4000-( 9 + __PBP__ * 2))%0402h)/4+1)<=256)
  46  004E              ;# 46 "C:\Users\YVTC\Desktop\單晶片微控制器(一)\期末作業\TT2_original.c" 1
  46  004E  0F03        	MOV A,(4000-( 9 + __PBP__ * 2))/0402h
  46  004F              ;# 46 "C:\Users\YVTC\Desktop\單晶片微控制器(一)\期末作業\TT2_original.c" 1
  46  004F  0080     E  	MOV _builtin_holtek_delay_2,A
  46  0050              ;# 46 "C:\Users\YVTC\Desktop\單晶片微控制器(一)\期末作業\TT2_original.c" 1
  46  0050  0FE4        	MOV A,((4000-( 9 + __PBP__ * 2))%0402h)/4+1
  46  0051              ;# 46 "C:\Users\YVTC\Desktop\單晶片微控制器(一)\期末作業\TT2_original.c" 1
  46  0051              	fcall __DELAYY3 +3-(((4000-( 9 + __PBP__ * 2))%0402h)%4) 
  46  0058              	ENDIF
  46  0058  2800     R  	jmp _L46
  46  0059              _L45:
  48  0059              #line 48 "C:\Users\YVTC\Desktop\單晶片微控制器(一)\期末作業\TT2_original.c"
  48  0059  0700     R  	mov a,_main_2[1]
  48  005A  0A13        	sub a,19
"File: TT2_original.c  Assembler  Version HGASM0202      Page 16

  48  005B  390A        	snz z
  48  005C  2800     R  	jmp _L46
  48  005D  0FC0        	mov a,192
  48  005E  0080     R  	mov _LCMWrite_2[0],a
  48  005F  0F00        	mov a,0
  48  0060              	fcall _LCMWrite
  48  0067              _L46:
  50  0067              #line 50 "C:\Users\YVTC\Desktop\單晶片微控制器(一)\期末作業\TT2_original.c"
  50  0067  0F09        	mov a,9
  50  0068  0200     R  	sub a,_main_2[0]
  50  0069  3C0A        	sz c
  50  006A  2800     R  	jmp _L49
  50  006B  0F37        	mov a,55
  50  006C  0080     E  	mov ra,a
  50  006D  2800     R  	jmp _L47
  50  006E              _L49:
  50  006E  0F30        	mov a,48
  50  006F  0080     E  	mov ra,a
  50  0070              _L47:
  50  0070  0700     E  	mov a,ra
  50  0071  0300     R  	add a,_main_2[0]
  50  0072  0080     R  	mov _main_2[0],a
  51  0073              #line 51 "C:\Users\YVTC\Desktop\單晶片微控制器(一)\期末作業\TT2_original.c"
  51  0073  0700     R  	mov a,_main_2[0]
  51  0074  0080     R  	mov _LCMWrite_2[0],a
  51  0075  0F01        	mov a,1
  51  0076              	fcall _LCMWrite
  51  007D  0080     R  	mov _main_2[1],a
  52  007E              #line 52 "C:\Users\YVTC\Desktop\單晶片微控制器(一)\期末作業\TT2_original.c"
  52  007E  0700     R  	mov a,_main_2[0]
  52  007F              	fcall _UARTTXData
  53  0086              #line 53 "C:\Users\YVTC\Desktop\單晶片微控制器(一)\期末作業\TT2_original.c"
  53  0086  0FC8        	mov a,-56
  53  0087  0080     R  	mov _Delayms_2[0],a
  53  0088  1F00     R  	clr _Delayms_2[1]
  53  0089              	fcall _Delayms
  54  0090              #line 54 "C:\Users\YVTC\Desktop\單晶片微控制器(一)\期末作業\TT2_original.c"
  54  0090  2800     R  	jmp _L42
  54  0091  2800     R  	jmp $
  54  0092              _main endp
  54  0092              
  54  0092              @dummy endp
  54  0092              
  54  0092              #line 54 "C:\Users\YVTC\Desktop\單晶片微控制器(一)\期末作業\TT2_original.c"
  54  0092              #pragma debug scope 1 1
  54  0092              public _ISR_ExtINT0
  54  0092              #pragma debug scope 10 1
 134  0092              #line 134 "C:\Users\YVTC\Desktop\單晶片微控制器(一)\期末作業\TT2_original.c"
 134  0092              rombank 0 @ISR_ExtINT0_code
 134  0000              @ISR_ExtINT0_code .section at 4 'code'
 134  0000  0080     E  	mov r1,a
 134  0001  070B        	mov a,bp
 134  0002  1F0B        	clr bp
 134  0003  2800     R  	jmp _ISR_ExtINT0
 134  0004              ROMBANK 0 _ISR_ExtINT0
 134  0004              #pragma debug scope 1 1
 134  0004              @dummy4 endp
 134  0004              #pragma debug scope 11 1
 134  0000              _ISR_ExtINT0 .section 'code'
 134  0000              _ISR_ExtINT0 proc
"File: TT2_original.c  Assembler  Version HGASM0202      Page 17

 134  0000  00          local _ISR_ExtINT0_2 db 1 dup(?)
 134  0000  0080     E  	mov r2,a
 134  0001  070A        	mov a, status
 134  0002  0080     E  	mov r3,a
 134  0003  0703        	mov a,mp
 134  0004  0080     E  	mov r4,a
 134  0005  0704        	mov a,sbp
 134  0006  0080     E  	mov r5,a
 134  0007  0707        	mov a,tblp
 134  0008  0080     E  	mov r6,a
 134  0009  0709        	mov a,tbhp
 134  000A  0080     E  	mov r7,a
 134  000B              #pragma debug variable 8 11 _ISR_ExtINT0_2+0 "AC"
 135  000B              #line 135 "C:\Users\YVTC\Desktop\單晶片微控制器(一)\期末作業\TT2_original.c"
 135  000B  0FD0        	mov a,208
 135  000C  00E2        	mov [98],a
 135  000D  1F63        	clr [99]
 136  000E              #line 136 "C:\Users\YVTC\Desktop\單晶片微控制器(一)\期末作業\TT2_original.c"
 136  000E  36B4        	clr [52].5
 136  000F  31DE        	set [94].3
 137  0010              #line 137 "C:\Users\YVTC\Desktop\單晶片微控制器(一)\期末作業\TT2_original.c"
 137  0010  1F00     R  	clr _RxData[0]
 137  0011              _L52:
 138  0011              #line 138 "C:\Users\YVTC\Desktop\單晶片微控制器(一)\期末作業\TT2_original.c"
 138  0011  3AB4        	snz [52].5
 138  0012  2800     R  	jmp _L52
 139  0013              #line 139 "C:\Users\YVTC\Desktop\單晶片微控制器(一)\期末作業\TT2_original.c"
 139  0013  0FA0        	mov a,160
 139  0014  00E2        	mov [98],a
 139  0015  0F01        	mov a,1
 139  0016  00E3        	mov [99],a
 140  0017              #line 140 "C:\Users\YVTC\Desktop\單晶片微控制器(一)\期末作業\TT2_original.c"
 140  0017  36B4        	clr [52].5
 140  0018  1F00     E  	clr rb
 134  0019              #line 134 "C:\Users\YVTC\Desktop\單晶片微控制器(一)\期末作業\TT2_original.c"
 134  0019  0F01        	mov a,1
 134  001A  0080     E  	mov ra,a
 134  001B              _L54:
 142  001B              #line 142 "C:\Users\YVTC\Desktop\單晶片微控制器(一)\期末作業\TT2_original.c"
 142  001B  3AB4        	snz [52].5
 142  001C  2800     R  	jmp _L54
 143  001D              #line 143 "C:\Users\YVTC\Desktop\單晶片微控制器(一)\期末作業\TT2_original.c"
 143  001D  36B4        	clr [52].5
 144  001E              #line 144 "C:\Users\YVTC\Desktop\單晶片微控制器(一)\期末作業\TT2_original.c"
 144  001E  3992        	snz [18].3
 144  001F  2800     R  	jmp _L55
 144  0020  0700     E  	mov a,ra
 144  0021  0580     R  	orm a,_RxData[0]
 144  0022              _L55:
 145  0022              #line 145 "C:\Users\YVTC\Desktop\單晶片微控制器(一)\期末作業\TT2_original.c"
 145  0022  0700     E  	mov a,ra
 145  0023  0380     E  	addm a,ra
 145  0024  1480     E  	inc rb
 146  0025              #line 146 "C:\Users\YVTC\Desktop\單晶片微控制器(一)\期末作業\TT2_original.c"
 146  0025  0700     E  	mov a,rb
 146  0026  0A08        	sub a,8
 146  0027  390A        	snz z
 146  0028  2800     R  	jmp _L54
 146  0029              _L59:
 147  0029              #line 147 "C:\Users\YVTC\Desktop\單晶片微控制器(一)\期末作業\TT2_original.c"
"File: TT2_original.c  Assembler  Version HGASM0202      Page 18

 147  0029  3AB4        	snz [52].5
 147  002A  2800     R  	jmp _L59
 148  002B              #line 148 "C:\Users\YVTC\Desktop\單晶片微控制器(一)\期末作業\TT2_original.c"
 148  002B  35DE        	clr [94].3
 149  002C              #line 149 "C:\Users\YVTC\Desktop\單晶片微控制器(一)\期末作業\TT2_original.c"
 149  002C  0F01        	mov a,1
 149  002D  0080     R  	mov _b_RX[0],a
 150  002E              #line 150 "C:\Users\YVTC\Desktop\單晶片微控制器(一)\期末作業\TT2_original.c"
 150  002E  3630        	clr [48].4
 151  002F              #line 151 "C:\Users\YVTC\Desktop\單晶片微控制器(一)\期末作業\TT2_original.c"
 151  002F  0700     R  	mov a,_b_RX[0]
 151  0030  0080     E  	mov ra,a
 151  0031  1F00     R  	clr _b_RX[0]
 153  0032              #line 153 "C:\Users\YVTC\Desktop\單晶片微控制器(一)\期末作業\TT2_original.c"
 153  0032  0700     R  	mov a,_RxData[0]
 153  0033  0080     R  	mov _LCMWrite_2[0],a
 153  0034  0F01        	mov a,1
 153  0035              	fcall _LCMWrite
 153  003C  0080     R  	mov _ISR_ExtINT0_2[0],a
 154  003D              #line 154 "C:\Users\YVTC\Desktop\單晶片微控制器(一)\期末作業\TT2_original.c"
 154  003D  0F52        	mov a,82
 154  003E  0200     R  	sub a,_ISR_ExtINT0_2[0]
 154  003F  3C0A        	sz c
 154  0040  2800     R  	jmp _L60
 155  0041              #line 155 "C:\Users\YVTC\Desktop\單晶片微控制器(一)\期末作業\TT2_original.c"
 155  0041  0F01        	mov a,1
 155  0042  0080     R  	mov _LCMWrite_2[0],a
 155  0043  0F00        	mov a,0
 155  0044              	fcall _LCMWrite
 156  004B              #line 156 "C:\Users\YVTC\Desktop\單晶片微控制器(一)\期末作業\TT2_original.c"
 156  004B              ;# 156 "C:\Users\YVTC\Desktop\單晶片微控制器(一)\期末作業\TT2_original.c" 1
 156  004B              	IF 4000>263690
 156  004B              ;# 156 "C:\Users\YVTC\Desktop\單晶片微控制器(一)\期末作業\TT2_original.c" 1
 156  004B              	ERRMESSAGE 'the value 4000of the argument exceeds the maxinum 263690'
 156  004B              	ENDIF
 156  004B              ;# 156 "C:\Users\YVTC\Desktop\單晶片微控制器(一)\期末作業\TT2_original.c" 1
 156  004B              	IF 4000<0
 156  004B              ;# 156 "C:\Users\YVTC\Desktop\單晶片微控制器(一)\期末作業\TT2_original.c" 1
 156  004B              	ERRMESSAGE 'the value 4000 of the argument exceeds the mininum 0'
 156  004B              	ENDIF
 156  004B              ;# 156 "C:\Users\YVTC\Desktop\單晶片微控制器(一)\期末作業\TT2_original.c" 1
 156  004B              	IF 4000==0
 156  004B              ;# 156 "C:\Users\YVTC\Desktop\單晶片微控制器(一)\期末作業\TT2_original.c" 1
 156  004B              	JMP $
 156  004B              	ENDIF
 156  004B              ;# 156 "C:\Users\YVTC\Desktop\單晶片微控制器(一)\期末作業\TT2_original.c" 1
 156  004B              	IF (4000>=1) AND (4000<( 4 + __PBP__ * 2))
 156  004B              ;# 156 "C:\Users\YVTC\Desktop\單晶片微控制器(一)\期末作業\TT2_original.c" 1
 156  004B              	NOP
 156  004B              	ENDIF
 156  004B              ;# 156 "C:\Users\YVTC\Desktop\單晶片微控制器(一)\期末作業\TT2_original.c" 1
 156  004B              	IF (4000>=2) AND (4000<( 4 + __PBP__ * 2))
 156  004B              ;# 156 "C:\Users\YVTC\Desktop\單晶片微控制器(一)\期末作業\TT2_original.c" 1
 156  004B              	NOP
 156  004B              	ENDIF
 156  004B              ;# 156 "C:\Users\YVTC\Desktop\單晶片微控制器(一)\期末作業\TT2_original.c" 1
 156  004B              	IF (4000>=3) AND (4000<( 4 + __PBP__ * 2))
 156  004B              ;# 156 "C:\Users\YVTC\Desktop\單晶片微控制器(一)\期末作業\TT2_original.c" 1
 156  004B              	NOP
 156  004B              	ENDIF
"File: TT2_original.c  Assembler  Version HGASM0202      Page 19

 156  004B              ;# 156 "C:\Users\YVTC\Desktop\單晶片微控制器(一)\期末作業\TT2_original.c" 1
 156  004B              	IF (4000>=4) AND (4000<( 4 + __PBP__ * 2)) AND ( __PBP__ > 0 )
 156  004B              ;# 156 "C:\Users\YVTC\Desktop\單晶片微控制器(一)\期末作業\TT2_original.c" 1
 156  004B              	NOP
 156  004B              	ENDIF
 156  004B              ;# 156 "C:\Users\YVTC\Desktop\單晶片微控制器(一)\期末作業\TT2_original.c" 1
 156  004B              	IF (4000>=5) AND (4000<( 4 + __PBP__ * 2)) AND ( __PBP__ > 0 )
 156  004B              ;# 156 "C:\Users\YVTC\Desktop\單晶片微控制器(一)\期末作業\TT2_original.c" 1
 156  004B              	NOP
 156  004B              	ENDIF
 156  004B              ;# 156 "C:\Users\YVTC\Desktop\單晶片微控制器(一)\期末作業\TT2_original.c" 1
 156  004B              	IF (4000>=6) AND (4000<( 4 + __PBP__ * 2))  AND ( __PBP__ > 1 )
 156  004B              ;# 156 "C:\Users\YVTC\Desktop\單晶片微控制器(一)\期末作業\TT2_original.c" 1
 156  004B              	NOP
 156  004B              	ENDIF
 156  004B              ;# 156 "C:\Users\YVTC\Desktop\單晶片微控制器(一)\期末作業\TT2_original.c" 1
 156  004B              	IF (4000>=7) AND (4000<( 4 + __PBP__ * 2))  AND ( __PBP__ > 1 )
 156  004B              ;# 156 "C:\Users\YVTC\Desktop\單晶片微控制器(一)\期末作業\TT2_original.c" 1
 156  004B              	NOP
 156  004B              	ENDIF
 156  004B              ;# 156 "C:\Users\YVTC\Desktop\單晶片微控制器(一)\期末作業\TT2_original.c" 1
 156  004B              	IF (4000>=8) AND (4000<( 4 + __PBP__ * 2))  AND ( __PBP__ > 2 )
 156  004B              ;# 156 "C:\Users\YVTC\Desktop\單晶片微控制器(一)\期末作業\TT2_original.c" 1
 156  004B              	NOP
 156  004B              	ENDIF
 156  004B              ;# 156 "C:\Users\YVTC\Desktop\單晶片微控制器(一)\期末作業\TT2_original.c" 1
 156  004B              	IF (4000==9)  AND ( __PBP__ > 2 )
 156  004B              ;# 156 "C:\Users\YVTC\Desktop\單晶片微控制器(一)\期末作業\TT2_original.c" 1
 156  004B              	NOP
 156  004B              	ENDIF
 156  004B              ;# 156 "C:\Users\YVTC\Desktop\單晶片微控制器(一)\期末作業\TT2_original.c" 1
 156  004B              	IF (4000< ( 8 + __PBP__ * 2)) AND (4000>( 3 + __PBP__ * 2))
 156  004B              ;# 156 "C:\Users\YVTC\Desktop\單晶片微控制器(一)\期末作業\TT2_original.c" 1
 156  004B              	fcall __DELAY3 + ( 7 + __PBP__ * 2) -4000
 156  004B              	ENDIF
 156  004B              ;# 156 "C:\Users\YVTC\Desktop\單晶片微控制器(一)\期末作業\TT2_original.c" 1
 156  004B              	IF (4000< ( 0404h + __PBP__ * 2)) AND (4000>( 7 + __PBP__ * 2))
 156  004B              ;# 156 "C:\Users\YVTC\Desktop\單晶片微控制器(一)\期末作業\TT2_original.c" 1
 156  004B              	MOV A,(4000-( 4 + __PBP__ * 2))/4
 156  004B              ;# 156 "C:\Users\YVTC\Desktop\單晶片微控制器(一)\期末作業\TT2_original.c" 1
 156  004B              	fcall __DELAYX3 + 3 -((4000-( 4 + __PBP__ * 2)) MOD 4) 
 156  004B              	ENDIF
 156  004B              ;# 156 "C:\Users\YVTC\Desktop\單晶片微控制器(一)\期末作業\TT2_original.c" 1
 156  004B              	IF (4000< ( 040bh + __PBP__ * 2)) AND (4000> ( 0403h + __PBP__ * 2))
 156  004B              ;# 156 "C:\Users\YVTC\Desktop\單晶片微控制器(一)\期末作業\TT2_original.c" 1
 156  004B              	MOV A,0 
 156  004B              ;# 156 "C:\Users\YVTC\Desktop\單晶片微控制器(一)\期末作業\TT2_original.c" 1
 156  004B              	fcall __DELAYX6 + ( 040ah + __PBP__ * 2) -4000
 156  004B              	ENDIF
 156  004B              ;# 156 "C:\Users\YVTC\Desktop\單晶片微控制器(一)\期末作業\TT2_original.c" 1
 156  004B              	IF (4000 >= ( 040bh + __PBP__ * 2)) AND ((((4000-( 9 + __PBP__ * 2))%0402h)/4+1)>256)
 156  004B              ;# 156 "C:\Users\YVTC\Desktop\單晶片微控制器(一)\期末作業\TT2_original.c" 1
 156  004B              	MOV A,(4000-( 9 + __PBP__ * 2))/0402h
 156  004B              ;# 156 "C:\Users\YVTC\Desktop\單晶片微控制器(一)\期末作業\TT2_original.c" 1
 156  004B              	MOV _builtin_holtek_delay_2,A
 156  004B              ;# 156 "C:\Users\YVTC\Desktop\單晶片微控制器(一)\期末作業\TT2_original.c" 1
 156  004B              	MOV A,0
 156  004B              ;# 156 "C:\Users\YVTC\Desktop\單晶片微控制器(一)\期末作業\TT2_original.c" 1
 156  004B              	fcall __DELAYY5 +5- (((4000-( 9 + __PBP__ * 2))%0402h)%6) 
 156  004B              	ENDIF
"File: TT2_original.c  Assembler  Version HGASM0202      Page 20

 156  004B              ;# 156 "C:\Users\YVTC\Desktop\單晶片微控制器(一)\期末作業\TT2_original.c" 1
 156  004B              	IF (4000 >= ( 040bh + __PBP__ * 2)) AND ((((4000-( 9 + __PBP__ * 2))%0402h)/4+1)<=256)
 156  004B              ;# 156 "C:\Users\YVTC\Desktop\單晶片微控制器(一)\期末作業\TT2_original.c" 1
 156  004B  0F03        	MOV A,(4000-( 9 + __PBP__ * 2))/0402h
 156  004C              ;# 156 "C:\Users\YVTC\Desktop\單晶片微控制器(一)\期末作業\TT2_original.c" 1
 156  004C  0080     E  	MOV _builtin_holtek_delay_2,A
 156  004D              ;# 156 "C:\Users\YVTC\Desktop\單晶片微控制器(一)\期末作業\TT2_original.c" 1
 156  004D  0FE4        	MOV A,((4000-( 9 + __PBP__ * 2))%0402h)/4+1
 156  004E              ;# 156 "C:\Users\YVTC\Desktop\單晶片微控制器(一)\期末作業\TT2_original.c" 1
 156  004E              	fcall __DELAYY3 +3-(((4000-( 9 + __PBP__ * 2))%0402h)%4) 
 156  0055              	ENDIF
 156  0055  2800     R  	jmp _L50
 156  0056              _L60:
 158  0056              #line 158 "C:\Users\YVTC\Desktop\單晶片微控制器(一)\期末作業\TT2_original.c"
 158  0056  0700     R  	mov a,_ISR_ExtINT0_2[0]
 158  0057  0A13        	sub a,19
 158  0058  390A        	snz z
 158  0059  2800     R  	jmp _L50
 158  005A  0FC0        	mov a,192
 158  005B  0080     R  	mov _LCMWrite_2[0],a
 158  005C  0F00        	mov a,0
 158  005D              	fcall _LCMWrite
 158  0064              _L50:
 158  0064  0700     E  	mov a,r2
 158  0065  008B        	mov bp,a
 158  0066  0700     E  	mov a,r3
 158  0067  008A        	mov status,a
 158  0068  0700     E  	mov a,r4
 158  0069  0083        	mov mp,a
 158  006A  0700     E  	mov a,r5
 158  006B  0084        	mov sbp,a
 158  006C  0700     E  	mov a,r6
 158  006D  0087        	mov tblp,a
 158  006E  0700     E  	mov a,r7
 158  006F  0089        	mov tbhp,a
 158  0070  1D05        	tabrdc acc
 158  0071  0700     E  	mov a,r1
 158  0072  0004        	reti
 158  0073              _ISR_ExtINT0 endp
 158  0073              
 158  0073              #line 158 "C:\Users\YVTC\Desktop\單晶片微控制器(一)\期末作業\TT2_original.c"
 158  0073              #pragma debug scope 1 1
  18  0073              #line 18 "C:\Users\YVTC\Desktop\單晶片微控制器(一)\期末作業\TT2_original.c"
  18  0073              public _RxData
  18  0000              @HCCINIT0_RxData .section 'data'
  18  0000              _RxData	db 0
  18  0001              #pragma debug variable 8 1 _RxData "RxData"
  18  0001              
  18  0000              @HCCINIT .section 'data'
  18  0000              public _b_RX
  18  0000              @HCCINIT	.section 'data'
  17  0000              #line 17 "C:\Users\YVTC\Desktop\單晶片微控制器(一)\期末作業\TT2_original.c"
  17  0000              @HCCINIT_b_RX .section 'data'
  17  0000              _b_RX label byte
  17  0000              #pragma debug variable 8 1 _b_RX "b_RX"
  17  0000              	db 0
  17  0000              @ROMDATA_BASE .section inpage 'code'
  17  0000              	db 0
  17  0001              @HCCINIT_b_RX .section 'data'
  17  0001              #pragma debug struct_end
"File: TT2_original.c  Assembler  Version HGASM0202      Page 21

  17  0001              #pragma debug struct_end
  17  0001              #pragma debug union_end
  17  0001              #pragma debug union_end
  17  0001              #pragma debug variable 43 1 ___papu "__papu" 1
  17  0001              #pragma debug struct_end
  17  0001              #pragma debug struct_end
  17  0001              #pragma debug union_end
  17  0001              #pragma debug union_end
  17  0001              #pragma debug variable 45 1 ___pa "__pa" 1
  17  0001              #pragma debug struct_end
  17  0001              #pragma debug struct_end
  17  0001              #pragma debug union_end
  17  0001              #pragma debug union_end
  17  0001              #pragma debug variable 47 1 ___pac "__pac" 1
  17  0001              #pragma debug struct_end
  17  0001              #pragma debug struct_end
  17  0001              #pragma debug union_end
  17  0001              #pragma debug union_end
  17  0001              #pragma debug variable 49 1 ___pepu "__pepu" 1
  17  0001              #pragma debug struct_end
  17  0001              #pragma debug struct_end
  17  0001              #pragma debug union_end
  17  0001              #pragma debug union_end
  17  0001              #pragma debug variable 51 1 ___pe "__pe" 1
  17  0001              #pragma debug struct_end
  17  0001              #pragma debug struct_end
  17  0001              #pragma debug union_end
  17  0001              #pragma debug union_end
  17  0001              #pragma debug variable 53 1 ___pec "__pec" 1
  17  0001              #pragma debug struct_end
  17  0001              #pragma debug struct_end
  17  0001              #pragma debug union_end
  17  0001              #pragma debug union_end
  17  0001              #pragma debug variable 55 1 ___pg "__pg" 1
  17  0001              #pragma debug struct_end
  17  0001              #pragma debug struct_end
  17  0001              #pragma debug union_end
  17  0001              #pragma debug union_end
  17  0001              #pragma debug variable 57 1 ___pgc "__pgc" 1
  17  0001              #pragma debug struct_end
  17  0001              #pragma debug struct_end
  17  0001              #pragma debug union_end
  17  0001              #pragma debug union_end
  17  0001              #pragma debug variable 59 1 ___ph "__ph" 1
  17  0001              #pragma debug struct_end
  17  0001              #pragma debug struct_end
  17  0001              #pragma debug union_end
  17  0001              #pragma debug union_end
  17  0001              #pragma debug variable 61 1 ___phc "__phc" 1
  17  0001              #pragma debug struct_end
  17  0001              #pragma debug struct_end
  17  0001              #pragma debug union_end
  17  0001              #pragma debug union_end
  17  0001              #pragma debug variable 63 1 ___intc0 "__intc0" 1
  17  0001              #pragma debug struct_end
  17  0001              #pragma debug struct_end
  17  0001              #pragma debug union_end
  17  0001              #pragma debug union_end
  17  0001              #pragma debug variable 65 1 ___mfi0 "__mfi0" 1
  17  0001              #pragma debug struct_end
"File: TT2_original.c  Assembler  Version HGASM0202      Page 22

  17  0001              #pragma debug struct_end
  17  0001              #pragma debug union_end
  17  0001              #pragma debug union_end
  17  0001              #pragma debug variable 67 1 ___integ "__integ" 1
  17  0001              #pragma debug struct_end
  17  0001              #pragma debug struct_end
  17  0001              #pragma debug union_end
  17  0001              #pragma debug union_end
  17  0001              #pragma debug variable 69 1 ___wdtc "__wdtc" 1
  17  0001              #pragma debug struct_end
  17  0001              #pragma debug struct_end
  17  0001              #pragma debug union_end
  17  0001              #pragma debug union_end
  17  0001              #pragma debug variable 71 1 ___tm0c0 "__tm0c0" 1
  17  0001              #pragma debug struct_end
  17  0001              #pragma debug struct_end
  17  0001              #pragma debug union_end
  17  0001              #pragma debug union_end
  17  0001              #pragma debug variable 73 1 ___tm0c1 "__tm0c1" 1
  17  0001              #pragma debug variable 8 1 ___tm0al "__tm0al" 1
  17  0001              #pragma debug variable 8 1 ___tm0ah "__tm0ah" 1
  17  0001              #pragma debug struct_end
  17  0001              #pragma debug struct_end
  17  0001              #pragma debug union_end
  17  0001              #pragma debug union_end
  17  0001              #pragma debug variable 75 1 ___ifs0 "__ifs0" 1
  17  0001              extern r1:byte
  17  0001              extern r2:byte
  17  0001              extern r3:byte
  17  0001              extern r4:byte
  17  0001              extern r5:byte
  17  0001              extern r6:byte
  17  0001              extern r7:byte
  27  0001              #line 27 "C:\Users\YVTC\Desktop\單晶片微控制器(一)\期末作業\TT2_original.c"
  27  0000              @code .section at 0 'code'
  27  0000  1F0B        	clr bp
  27  0001  2800     R  	jmp _main_startup1
  27  0002              
  27  0002              
  27  0002              ; 
  27  0002              ; Generated by holtek-gcc v3.18, Tue May 22 10:37:35 2018
  27  0002              ; Rebuild 126
  27  0002              ; end of file


        0 Errors, 0